Archive member included because of file (symbol)

/home/zhouyongjian/wangshi/wmsdk_bundle-3.1.16/bin/wmsdk/libs/libdrv.a(mdev_startup.o)
                              (Reset_IRQHandler)
/home/zhouyongjian/wangshi/wmsdk_bundle-3.1.16/bin/wmsdk/libs/libdrv.a(mdev_pm.o)
                              /home/zhouyongjian/wangshi/wmsdk_bundle-3.1.16/bin/wmsdk/libs/libdrv.a(mdev_startup.o) (pm4_sig)
/home/zhouyongjian/wangshi/wmsdk_bundle-3.1.16/bin/wmsdk/libs/libdrv.a(mw300_clock.o)
                              /home/zhouyongjian/wangshi/wmsdk_bundle-3.1.16/bin/wmsdk/libs/libdrv.a(mdev_startup.o) (CLK_SystemClkSrc)
/home/zhouyongjian/wangshi/wmsdk_bundle-3.1.16/bin/wmsdk/libs/libdrv.a(mw300_driver.o)
                              /home/zhouyongjian/wangshi/wmsdk_bundle-3.1.16/bin/wmsdk/libs/libdrv.a(mdev_pm.o) (install_int_callback)
/home/zhouyongjian/wangshi/wmsdk_bundle-3.1.16/bin/wmsdk/libs/libdrv.a(mw300_pmu.o)
                              /home/zhouyongjian/wangshi/wmsdk_bundle-3.1.16/bin/wmsdk/libs/libdrv.a(mdev_pm.o) (PMU_SetSleepMode)
/home/zhouyongjian/wangshi/wmsdk_bundle-3.1.16/bin/wmsdk/libs/libdrv.a(mdev_rtc.o)
                              /home/zhouyongjian/wangshi/wmsdk_bundle-3.1.16/bin/wmsdk/libs/libdrv.a(mdev_pm.o) (rtc_drv_set_alarm_cb)
/home/zhouyongjian/wangshi/wmsdk_bundle-3.1.16/bin/wmsdk/libs/libdrv.a(mw300_pinmux.o)
                              /home/zhouyongjian/wangshi/wmsdk_bundle-3.1.16/bin/wmsdk/libs/libdrv.a(mdev_rtc.o) (GPIO_PinMuxFun)
/home/zhouyongjian/wangshi/wmsdk_bundle-3.1.16/bin/wmsdk/libs/libdrv.a(mw300_rtc.o)
                              /home/zhouyongjian/wangshi/wmsdk_bundle-3.1.16/bin/wmsdk/libs/libdrv.a(mdev_rtc.o) (RTC_CounterReset)
/home/zhouyongjian/wangshi/wmsdk_bundle-3.1.16/bin/wmsdk/libs/libdrv.a(mdev_gpt.o)
                              /home/zhouyongjian/wangshi/wmsdk_bundle-3.1.16/bin/wmsdk/libs/libdrv.a(mdev_rtc.o) (gpt_drv_open)
/home/zhouyongjian/wangshi/wmsdk_bundle-3.1.16/bin/wmsdk/libs/libdrv.a(mw300_gpt.o)
                              /home/zhouyongjian/wangshi/wmsdk_bundle-3.1.16/bin/wmsdk/libs/libdrv.a(mdev_gpt.o) (GPT_Init)
/home/zhouyongjian/wangshi/wmsdk_bundle-3.1.16/bin/wmsdk/libs/libfreertos.a(queue.o)
                              /home/zhouyongjian/wangshi/wmsdk_bundle-3.1.16/bin/wmsdk/libs/libdrv.a(mdev_gpt.o) (xQueueGenericSend)
/home/zhouyongjian/wangshi/wmsdk_bundle-3.1.16/bin/wmsdk/libs/libfreertos.a(tasks.o)
                              /home/zhouyongjian/wangshi/wmsdk_bundle-3.1.16/bin/wmsdk/libs/libfreertos.a(queue.o) (vTaskSuspendAll)
/home/zhouyongjian/wangshi/wmsdk_bundle-3.1.16/bin/wmsdk/libs/libfreertos.a(timers.o)
                              /home/zhouyongjian/wangshi/wmsdk_bundle-3.1.16/bin/wmsdk/libs/libfreertos.a(tasks.o) (xTimerCreateTimerTask)
/home/zhouyongjian/wangshi/wmsdk_bundle-3.1.16/bin/wmsdk/libs/libfreertos.a(port.o)
                              /home/zhouyongjian/wangshi/wmsdk_bundle-3.1.16/bin/wmsdk/libs/libfreertos.a(tasks.o) (pxPortInitialiseStack)
/home/zhouyongjian/wangshi/wmsdk_bundle-3.1.16/bin/wmsdk/libs/libfreertos.a(heap_4.o)
                              /home/zhouyongjian/wangshi/wmsdk_bundle-3.1.16/bin/wmsdk/libs/libfreertos.a(queue.o) (pvPortMalloc)
/home/zhouyongjian/wangshi/wmsdk_bundle-3.1.16/bin/wmsdk/libs/libfreertos.a(list.o)
                              /home/zhouyongjian/wangshi/wmsdk_bundle-3.1.16/bin/wmsdk/libs/libfreertos.a(queue.o) (vListInitialise)
/home/zhouyongjian/wangshi/wmsdk_bundle-3.1.16/bin/wmsdk/libs/libmdev.a(mdev.o)
                              /home/zhouyongjian/wangshi/wmsdk_bundle-3.1.16/bin/wmsdk/libs/libdrv.a(mdev_rtc.o) (mdev_register)
/home/zhouyongjian/wangshi/wmsdk_bundle-3.1.16/bin/wmsdk/libs/libos.a(os.o)
                              /home/zhouyongjian/wangshi/wmsdk_bundle-3.1.16/bin/wmsdk/libs/libfreertos.a(tasks.o) (vApplicationStackOverflowHook)
/home/zhouyongjian/wangshi/wmsdk_bundle-3.1.16/bin/wmsdk/libs/libpwrmgr.a(pwrmgr.o)
                              /home/zhouyongjian/wangshi/wmsdk_bundle-3.1.16/bin/wmsdk/libs/libdrv.a(mdev_rtc.o) (pm_register_cb)
/home/zhouyongjian/wangshi/wmsdk_bundle-3.1.16/bin/wmsdk/libs/libutil.a(boot_flags.o)
                              /home/zhouyongjian/wangshi/wmsdk_bundle-3.1.16/bin/wmsdk/libs/libdrv.a(mdev_startup.o) (boot_init)
/home/zhouyongjian/wangshi/wmsdk_bundle-3.1.16/bin/wmsdk/libs/libutil.a(critical_error.o)
                              /home/zhouyongjian/wangshi/wmsdk_bundle-3.1.16/bin/wmsdk/libs/libdrv.a(mdev_startup.o) (critical_error)
/home/zhouyongjian/wangshi/wmsdk_bundle-3.1.16/bin/wmsdk/libs/libwmstdio.a(wmstdio.o)
                              /home/zhouyongjian/wangshi/wmsdk_bundle-3.1.16/bin/wmsdk/libs/libdrv.a(mdev_pm.o) (wmprintf)
/home/zhouyongjian/wangshi/wmsdk_bundle-3.1.16/bin/wmsdk/libs/libwmstdio.a(console.o)
                              /home/zhouyongjian/wangshi/wmsdk_bundle-3.1.16/bin/wmsdk/libs/libwmstdio.a(wmstdio.o) (serial_console_printf)
/home/zhouyongjian/wangshi/wmsdk_bundle-3.1.16/bin/wmsdk/libs/libwmtime.a(hwrtc.o)
                              /home/zhouyongjian/wangshi/wmsdk_bundle-3.1.16/bin/wmsdk/libs/libpwrmgr.a(pwrmgr.o) (hwrtc_time_update)
/home/zhouyongjian/wangshi/wmsdk_bundle-3.1.16/bin/wmsdk/libs/libc.a(atoi.o)
                              /home/zhouyongjian/wangshi/wmsdk_bundle-3.1.16/bin/wmsdk/libs/libpwrmgr.a(pwrmgr.o) (atoi)
/home/zhouyongjian/wangshi/wmsdk_bundle-3.1.16/bin/wmsdk/libs/libc.a(memcmp.o)
                              /home/zhouyongjian/wangshi/wmsdk_bundle-3.1.16/bin/wmsdk/libs/libfreertos.a(tasks.o) (memcmp)
/home/zhouyongjian/wangshi/wmsdk_bundle-3.1.16/bin/wmsdk/libs/libc.a(snprintf.o)
                              /home/zhouyongjian/wangshi/wmsdk_bundle-3.1.16/bin/wmsdk/libs/libfreertos.a(tasks.o) (snprintf)
/home/zhouyongjian/wangshi/wmsdk_bundle-3.1.16/bin/wmsdk/libs/libc.a(sprintf.o)
                              /home/zhouyongjian/wangshi/wmsdk_bundle-3.1.16/bin/wmsdk/libs/libfreertos.a(tasks.o) (sprintf)
/home/zhouyongjian/wangshi/wmsdk_bundle-3.1.16/bin/wmsdk/libs/libc.a(sscanf.o)
                              /home/zhouyongjian/wangshi/wmsdk_bundle-3.1.16/bin/wmsdk/libs/libos.a(os.o) (sscanf)
/home/zhouyongjian/wangshi/wmsdk_bundle-3.1.16/bin/wmsdk/libs/libc.a(vsnprintf.o)
                              /home/zhouyongjian/wangshi/wmsdk_bundle-3.1.16/bin/wmsdk/libs/libwmstdio.a(wmstdio.o) (vsnprintf)
/home/zhouyongjian/wangshi/wmsdk_bundle-3.1.16/bin/wmsdk/libs/libc.a(vsscanf.o)
                              /home/zhouyongjian/wangshi/wmsdk_bundle-3.1.16/bin/wmsdk/libs/libc.a(sscanf.o) (vsscanf)
/home/zhouyongjian/wangshi/wmsdk_bundle-3.1.16/bin/wmsdk/libs/libc.a(strcmp.o)
                              /home/zhouyongjian/wangshi/wmsdk_bundle-3.1.16/bin/wmsdk/libs/libmdev.a(mdev.o) (strcmp)
/home/zhouyongjian/wangshi/wmsdk_bundle-3.1.16/bin/wmsdk/libs/libc.a(strncmp.o)
                              /home/zhouyongjian/wangshi/wmsdk_bundle-3.1.16/bin/wmsdk/libs/libos.a(os.o) (strncmp)
/home/zhouyongjian/wangshi/wmsdk_bundle-3.1.16/bin/wmsdk/libs/libc.a(strncpy.o)
                              /home/zhouyongjian/wangshi/wmsdk_bundle-3.1.16/bin/wmsdk/libs/libfreertos.a(tasks.o) (strncpy)
/home/zhouyongjian/wangshi/wmsdk_bundle-3.1.16/bin/wmsdk/libs/libc.a(strcat.o)
                              /home/zhouyongjian/wangshi/wmsdk_bundle-3.1.16/bin/wmsdk/libs/libfreertos.a(tasks.o) (strcat)
/home/zhouyongjian/wangshi/wmsdk_bundle-3.1.16/bin/wmsdk/libs/libc.a(strlen.o)
                              /home/zhouyongjian/wangshi/wmsdk_bundle-3.1.16/bin/wmsdk/libs/libfreertos.a(tasks.o) (strlen)
/home/zhouyongjian/wangshi/wmsdk_bundle-3.1.16/bin/wmsdk/libs/libc.a(strchr.o)
                              /home/zhouyongjian/wangshi/wmsdk_bundle-3.1.16/bin/wmsdk/libs/libc.a(strcat.o) (strchr)
/home/zhouyongjian/wangshi/wmsdk_bundle-3.1.16/bin/wmsdk/libs/libc.a(strstr.o)
                              /home/zhouyongjian/wangshi/wmsdk_bundle-3.1.16/bin/wmsdk/libs/libos.a(os.o) (strstr)
/home/zhouyongjian/wangshi/wmsdk_bundle-3.1.16/bin/wmsdk/libs/libc.a(strtok.o)
                              /home/zhouyongjian/wangshi/wmsdk_bundle-3.1.16/bin/wmsdk/libs/libos.a(os.o) (strtok)
/home/zhouyongjian/wangshi/wmsdk_bundle-3.1.16/bin/wmsdk/libs/libc.a(strtok_r.o)
                              /home/zhouyongjian/wangshi/wmsdk_bundle-3.1.16/bin/wmsdk/libs/libc.a(strtok.o) (strtok_r)
/home/zhouyongjian/wangshi/wmsdk_bundle-3.1.16/bin/wmsdk/libs/libc.a(strntoumax.o)
                              /home/zhouyongjian/wangshi/wmsdk_bundle-3.1.16/bin/wmsdk/libs/libc.a(atoi.o) (strntoumax)
/home/zhouyongjian/wangshi/wmsdk_bundle-3.1.16/bin/wmsdk/libs/libc.a(ctypes.o)
                              /home/zhouyongjian/wangshi/wmsdk_bundle-3.1.16/bin/wmsdk/libs/libc.a(vsscanf.o) (__ctypes)
/home/zhouyongjian/wangshi/wmsdk_bundle-3.1.16/bin/wmsdk/libs/libc.a(memmem.o)
                              /home/zhouyongjian/wangshi/wmsdk_bundle-3.1.16/bin/wmsdk/libs/libc.a(strstr.o) (memmem)
/home/zhouyongjian/wangshi/wmsdk_bundle-3.1.16/bin/wmsdk/libs/libc.a(strcpy.o)
                              /home/zhouyongjian/wangshi/wmsdk_bundle-3.1.16/bin/wmsdk/libs/libc.a(strcat.o) (strcpy)
/home/zhouyongjian/wangshi/wmsdk_bundle-3.1.16/bin/wmsdk/libs/libc.a(strsep.o)
                              /home/zhouyongjian/wangshi/wmsdk_bundle-3.1.16/bin/wmsdk/libs/libc.a(strtok_r.o) (strsep)
/home/zhouyongjian/wangshi/wmsdk_bundle-3.1.16/bin/wmsdk/libs/libc.a(strpbrk.o)
                              /home/zhouyongjian/wangshi/wmsdk_bundle-3.1.16/bin/wmsdk/libs/libc.a(strsep.o) (strpbrk)
/home/zhouyongjian/wangshi/wmsdk_bundle-3.1.16/bin/wmsdk/libs/libc.a(strxspn.o)
                              /home/zhouyongjian/wangshi/wmsdk_bundle-3.1.16/bin/wmsdk/libs/libc.a(strpbrk.o) (__strxspn)
/home/zhouyongjian/wangshi/wmsdk_bundle-3.1.16/bin/wmsdk/libs/libcli.a(cli.o)
                              /home/zhouyongjian/wangshi/wmsdk_bundle-3.1.16/bin/wmsdk/libs/libpwrmgr.a(pwrmgr.o) (cli_register_command)
/home/zhouyongjian/wangshi/wmsdk_bundle-3.1.16/bin/wmsdk/libs/libcli.a(cli_mem_simple.o)
                              /home/zhouyongjian/wangshi/wmsdk_bundle-3.1.16/bin/wmsdk/libs/libcli.a(cli.o) (cli_mem_cleanup)
/home/zhouyongjian/wangshi/wmsdk_bundle-3.1.16/bin/wmsdk/libs/libdrv.a(mw300_gpio.o)
                              obj/board.o (GPIO_SetPinDir)
/home/zhouyongjian/wangshi/wmsdk_bundle-3.1.16/bin/wmsdk/libs/libdrv.a(mw300_uart.o)
                              /home/zhouyongjian/wangshi/wmsdk_bundle-3.1.16/bin/wmsdk/libs/libwmstdio.a(wmstdio.o) (UART_WriteLine)
/home/zhouyongjian/wangshi/wmsdk_bundle-3.1.16/bin/wmsdk/libs/libdrv.a(mdev_gpio.o)
                              obj/electric_measure.o (gpio_drv_write)
/home/zhouyongjian/wangshi/wmsdk_bundle-3.1.16/bin/wmsdk/libs/libdrv.a(mdev_uart.o)
                              /home/zhouyongjian/wangshi/wmsdk_bundle-3.1.16/bin/wmsdk/libs/libwmstdio.a(console.o) (uart_drv_open)
/home/zhouyongjian/wangshi/wmsdk_bundle-3.1.16/bin/wmsdk/libs/libdrv.a(mdev_dma.o)
                              /home/zhouyongjian/wangshi/wmsdk_bundle-3.1.16/bin/wmsdk/libs/libdrv.a(mdev_uart.o) (dma_drv_init)
/home/zhouyongjian/wangshi/wmsdk_bundle-3.1.16/bin/wmsdk/libs/libdrv.a(mw300_dma.o)
                              /home/zhouyongjian/wangshi/wmsdk_bundle-3.1.16/bin/wmsdk/libs/libdrv.a(mdev_uart.o) (DMA_ChannelInit)
/home/zhouyongjian/wangshi/wmsdk_bundle-3.1.16/bin/wmsdk/libs/libutil.a(flash.o)
                              obj/electric_measure.o (flash_drv_erase)
/home/zhouyongjian/wangshi/wmsdk_bundle-3.1.16/bin/wmsdk/libs/libc.a(strcasecmp.o)
                              /home/zhouyongjian/wangshi/wmsdk_bundle-3.1.16/bin/wmsdk/libs/libcli.a(cli.o) (strcasecmp)
/home/zhouyongjian/wangshi/wmsdk_bundle-3.1.16/bin/wmsdk/libs/libdrv.a(mdev_iflash.o)
                              /home/zhouyongjian/wangshi/wmsdk_bundle-3.1.16/bin/wmsdk/libs/libutil.a(flash.o) (iflash_drv_open)
/home/zhouyongjian/wangshi/wmsdk_bundle-3.1.16/bin/wmsdk/libs/libdrv.a(mw300_flash.o)
                              /home/zhouyongjian/wangshi/wmsdk_bundle-3.1.16/bin/wmsdk/libs/libdrv.a(mdev_iflash.o) (FLASH_ResetFastReadQuad)
/home/zhouyongjian/wangshi/wmsdk_bundle-3.1.16/bin/wmsdk/libs/libdrv.a(mw300_qspi.o)
                              /home/zhouyongjian/wangshi/wmsdk_bundle-3.1.16/bin/wmsdk/libs/libdrv.a(mw300_flash.o) (QSPI_FlushFIFO)
/home/zhouyongjian/Intelligent_AC_Infrared/gcc-arm-none-eabi-4_8-2014q2/bin/../lib/gcc/arm-none-eabi/4.8.4/armv7e-m/libgcc.a(_arm_addsubdf3.o)
                              /home/zhouyongjian/wangshi/wmsdk_bundle-3.1.16/bin/wmsdk/libs/libdrv.a(mdev_startup.o) (__aeabi_dadd)
/home/zhouyongjian/Intelligent_AC_Infrared/gcc-arm-none-eabi-4_8-2014q2/bin/../lib/gcc/arm-none-eabi/4.8.4/armv7e-m/libgcc.a(_arm_muldivdf3.o)
                              /home/zhouyongjian/wangshi/wmsdk_bundle-3.1.16/bin/wmsdk/libs/libdrv.a(mdev_startup.o) (__aeabi_ddiv)
/home/zhouyongjian/Intelligent_AC_Infrared/gcc-arm-none-eabi-4_8-2014q2/bin/../lib/gcc/arm-none-eabi/4.8.4/armv7e-m/libgcc.a(_arm_fixdfsi.o)
                              /home/zhouyongjian/wangshi/wmsdk_bundle-3.1.16/bin/wmsdk/libs/libdrv.a(mdev_startup.o) (__aeabi_d2iz)
/home/zhouyongjian/Intelligent_AC_Infrared/gcc-arm-none-eabi-4_8-2014q2/bin/../lib/gcc/arm-none-eabi/4.8.4/armv7e-m/libgcc.a(_aeabi_uldivmod.o)
                              /home/zhouyongjian/wangshi/wmsdk_bundle-3.1.16/bin/wmsdk/libs/libdrv.a(mw300_clock.o) (__aeabi_uldivmod)
/home/zhouyongjian/Intelligent_AC_Infrared/gcc-arm-none-eabi-4_8-2014q2/bin/../lib/gcc/arm-none-eabi/4.8.4/armv7e-m/libgcc.a(bpabi.o)
                              /home/zhouyongjian/Intelligent_AC_Infrared/gcc-arm-none-eabi-4_8-2014q2/bin/../lib/gcc/arm-none-eabi/4.8.4/armv7e-m/libgcc.a(_aeabi_uldivmod.o) (__gnu_uldivmod_helper)
/home/zhouyongjian/Intelligent_AC_Infrared/gcc-arm-none-eabi-4_8-2014q2/bin/../lib/gcc/arm-none-eabi/4.8.4/armv7e-m/libgcc.a(_dvmd_tls.o)
                              /home/zhouyongjian/Intelligent_AC_Infrared/gcc-arm-none-eabi-4_8-2014q2/bin/../lib/gcc/arm-none-eabi/4.8.4/armv7e-m/libgcc.a(_aeabi_uldivmod.o) (__aeabi_ldiv0)
/home/zhouyongjian/Intelligent_AC_Infrared/gcc-arm-none-eabi-4_8-2014q2/bin/../lib/gcc/arm-none-eabi/4.8.4/armv7e-m/libgcc.a(_divdi3.o)
                              /home/zhouyongjian/Intelligent_AC_Infrared/gcc-arm-none-eabi-4_8-2014q2/bin/../lib/gcc/arm-none-eabi/4.8.4/armv7e-m/libgcc.a(bpabi.o) (__divdi3)
/home/zhouyongjian/Intelligent_AC_Infrared/gcc-arm-none-eabi-4_8-2014q2/bin/../lib/gcc/arm-none-eabi/4.8.4/armv7e-m/libgcc.a(_udivdi3.o)
                              /home/zhouyongjian/Intelligent_AC_Infrared/gcc-arm-none-eabi-4_8-2014q2/bin/../lib/gcc/arm-none-eabi/4.8.4/armv7e-m/libgcc.a(bpabi.o) (__udivdi3)
/home/zhouyongjian/Intelligent_AC_Infrared/gcc-arm-none-eabi-4_8-2014q2/bin/../lib/gcc/arm-none-eabi/4.8.4/../../../../arm-none-eabi/lib/armv7e-m/libg.a(lib_a-memcpy.o)
                              /home/zhouyongjian/wangshi/wmsdk_bundle-3.1.16/bin/wmsdk/libs/libfreertos.a(queue.o) (memcpy)
/home/zhouyongjian/Intelligent_AC_Infrared/gcc-arm-none-eabi-4_8-2014q2/bin/../lib/gcc/arm-none-eabi/4.8.4/../../../../arm-none-eabi/lib/armv7e-m/libg.a(lib_a-memmove.o)
                              /home/zhouyongjian/wangshi/wmsdk_bundle-3.1.16/bin/wmsdk/libs/libcli.a(cli.o) (memmove)
/home/zhouyongjian/Intelligent_AC_Infrared/gcc-arm-none-eabi-4_8-2014q2/bin/../lib/gcc/arm-none-eabi/4.8.4/../../../../arm-none-eabi/lib/armv7e-m/libg.a(lib_a-memset.o)
                              /home/zhouyongjian/wangshi/wmsdk_bundle-3.1.16/bin/wmsdk/libs/libdrv.a(mdev_startup.o) (memset)

Discarded input sections

 .text          0x00000000        0x0 /home/zhouyongjian/wangshi/wmsdk_bundle-3.1.16/bin/wmsdk/libs/libdrv.a(mdev_startup.o)
 .data          0x00000000        0x0 /home/zhouyongjian/wangshi/wmsdk_bundle-3.1.16/bin/wmsdk/libs/libdrv.a(mdev_startup.o)
 .bss           0x00000000        0x0 /home/zhouyongjian/wangshi/wmsdk_bundle-3.1.16/bin/wmsdk/libs/libdrv.a(mdev_startup.o)
 .text          0x00000000        0x0 /home/zhouyongjian/wangshi/wmsdk_bundle-3.1.16/bin/wmsdk/libs/libdrv.a(mdev_pm.o)
 .data          0x00000000        0x0 /home/zhouyongjian/wangshi/wmsdk_bundle-3.1.16/bin/wmsdk/libs/libdrv.a(mdev_pm.o)
 .bss           0x00000000        0x0 /home/zhouyongjian/wangshi/wmsdk_bundle-3.1.16/bin/wmsdk/libs/libdrv.a(mdev_pm.o)
 .text.os_setup_idle_function
                0x00000000       0x38 /home/zhouyongjian/wangshi/wmsdk_bundle-3.1.16/bin/wmsdk/libs/libdrv.a(mdev_pm.o)
 .text.os_remove_idle_function
                0x00000000       0x24 /home/zhouyongjian/wangshi/wmsdk_bundle-3.1.16/bin/wmsdk/libs/libdrv.a(mdev_pm.o)
 .text.populate_wakeup_reason
                0x00000000       0x34 /home/zhouyongjian/wangshi/wmsdk_bundle-3.1.16/bin/wmsdk/libs/libdrv.a(mdev_pm.o)
 .text.extpin0_cb
                0x00000000       0x10 /home/zhouyongjian/wangshi/wmsdk_bundle-3.1.16/bin/wmsdk/libs/libdrv.a(mdev_pm.o)
 .text.extpin1_cb
                0x00000000       0x10 /home/zhouyongjian/wangshi/wmsdk_bundle-3.1.16/bin/wmsdk/libs/libdrv.a(mdev_pm.o)
 .text.dummy_rtc_cb
                0x00000000       0x10 /home/zhouyongjian/wangshi/wmsdk_bundle-3.1.16/bin/wmsdk/libs/libdrv.a(mdev_pm.o)
 .text.idle_hook
                0x00000000        0xc /home/zhouyongjian/wangshi/wmsdk_bundle-3.1.16/bin/wmsdk/libs/libdrv.a(mdev_pm.o)
 .text.prepare_for_low_power
                0x00000000      0x160 /home/zhouyongjian/wangshi/wmsdk_bundle-3.1.16/bin/wmsdk/libs/libdrv.a(mdev_pm.o)
 .text.switch_on_io_domains
                0x00000000       0x24 /home/zhouyongjian/wangshi/wmsdk_bundle-3.1.16/bin/wmsdk/libs/libdrv.a(mdev_pm.o)
 .text.update_time
                0x00000000       0x3c /home/zhouyongjian/wangshi/wmsdk_bundle-3.1.16/bin/wmsdk/libs/libdrv.a(mdev_pm.o)
 .text.asm_mcu_pm3
                0x00000000       0xd4 /home/zhouyongjian/wangshi/wmsdk_bundle-3.1.16/bin/wmsdk/libs/libdrv.a(mdev_pm.o)
 .text.ps_wait  0x00000000       0x10 /home/zhouyongjian/wangshi/wmsdk_bundle-3.1.16/bin/wmsdk/libs/libdrv.a(mdev_pm.o)
 .text.mcu_pm3  0x00000000      0x2b4 /home/zhouyongjian/wangshi/wmsdk_bundle-3.1.16/bin/wmsdk/libs/libdrv.a(mdev_pm.o)
 .text.mcu_pm2  0x00000000       0x60 /home/zhouyongjian/wangshi/wmsdk_bundle-3.1.16/bin/wmsdk/libs/libdrv.a(mdev_pm.o)
 .text.pm_idle_hook
                0x00000000       0x68 /home/zhouyongjian/wangshi/wmsdk_bundle-3.1.16/bin/wmsdk/libs/libdrv.a(mdev_pm.o)
 .text.pm_mcu_io_cfg
                0x00000000        0xc /home/zhouyongjian/wangshi/wmsdk_bundle-3.1.16/bin/wmsdk/libs/libdrv.a(mdev_pm.o)
 .text.pm_mcu_cfg
                0x00000000       0x58 /home/zhouyongjian/wangshi/wmsdk_bundle-3.1.16/bin/wmsdk/libs/libdrv.a(mdev_pm.o)
 .text.pm_mcu_state
                0x00000000       0x60 /home/zhouyongjian/wangshi/wmsdk_bundle-3.1.16/bin/wmsdk/libs/libdrv.a(mdev_pm.o)
 .text.pm_wakeup_source
                0x00000000        0xc /home/zhouyongjian/wangshi/wmsdk_bundle-3.1.16/bin/wmsdk/libs/libdrv.a(mdev_pm.o)
 .text.pm_mcu_is_enabled
                0x00000000        0xc /home/zhouyongjian/wangshi/wmsdk_bundle-3.1.16/bin/wmsdk/libs/libdrv.a(mdev_pm.o)
 .text.pm_mcu_get_mode
                0x00000000        0xc /home/zhouyongjian/wangshi/wmsdk_bundle-3.1.16/bin/wmsdk/libs/libdrv.a(mdev_pm.o)
 .text.arch_pm_init
                0x00000000       0xa4 /home/zhouyongjian/wangshi/wmsdk_bundle-3.1.16/bin/wmsdk/libs/libdrv.a(mdev_pm.o)
 .text.arch_reboot
                0x00000000       0x34 /home/zhouyongjian/wangshi/wmsdk_bundle-3.1.16/bin/wmsdk/libs/libdrv.a(mdev_pm.o)
 .text.pm_pm0_in_idle
                0x00000000       0x1c /home/zhouyongjian/wangshi/wmsdk_bundle-3.1.16/bin/wmsdk/libs/libdrv.a(mdev_pm.o)
 .bss.pm_state  0x00000000       0x10 /home/zhouyongjian/wangshi/wmsdk_bundle-3.1.16/bin/wmsdk/libs/libdrv.a(mdev_pm.o)
 .bss.rtc_dev   0x00000000        0x4 /home/zhouyongjian/wangshi/wmsdk_bundle-3.1.16/bin/wmsdk/libs/libdrv.a(mdev_pm.o)
 .bss.pm3_entryaddr
                0x00000000        0x4 /home/zhouyongjian/wangshi/wmsdk_bundle-3.1.16/bin/wmsdk/libs/libdrv.a(mdev_pm.o)
 .bss.curr_rtc_ticks
                0x00000000        0x4 /home/zhouyongjian/wangshi/wmsdk_bundle-3.1.16/bin/wmsdk/libs/libdrv.a(mdev_pm.o)
 .bss.sys_regs  0x00000000       0xac /home/zhouyongjian/wangshi/wmsdk_bundle-3.1.16/bin/wmsdk/libs/libdrv.a(mdev_pm.o)
 .rodata.str1.1
                0x00000000       0x46 /home/zhouyongjian/wangshi/wmsdk_bundle-3.1.16/bin/wmsdk/libs/libdrv.a(mdev_pm.o)
 .nvram         0x00000000        0x4 /home/zhouyongjian/wangshi/wmsdk_bundle-3.1.16/bin/wmsdk/libs/libdrv.a(mdev_pm.o)
 .bss.wakeup_reason
                0x00000000        0x4 /home/zhouyongjian/wangshi/wmsdk_bundle-3.1.16/bin/wmsdk/libs/libdrv.a(mdev_pm.o)
 .text          0x00000000        0x0 /home/zhouyongjian/wangshi/wmsdk_bundle-3.1.16/bin/wmsdk/libs/libdrv.a(mw300_clock.o)
 .data          0x00000000        0x0 /home/zhouyongjian/wangshi/wmsdk_bundle-3.1.16/bin/wmsdk/libs/libdrv.a(mw300_clock.o)
 .bss           0x00000000        0x0 /home/zhouyongjian/wangshi/wmsdk_bundle-3.1.16/bin/wmsdk/libs/libdrv.a(mw300_clock.o)
 .text.CLK_GAUClkSrc
                0x00000000       0x4c /home/zhouyongjian/wangshi/wmsdk_bundle-3.1.16/bin/wmsdk/libs/libdrv.a(mw300_clock.o)
 .text.CLK_RTCClkSrc
                0x00000000       0x2c /home/zhouyongjian/wangshi/wmsdk_bundle-3.1.16/bin/wmsdk/libs/libdrv.a(mw300_clock.o)
 .text.CLK_UARTDividerSet
                0x00000000       0x50 /home/zhouyongjian/wangshi/wmsdk_bundle-3.1.16/bin/wmsdk/libs/libdrv.a(mw300_clock.o)
 .text.CLK_GetUARTDivider
                0x00000000       0x38 /home/zhouyongjian/wangshi/wmsdk_bundle-3.1.16/bin/wmsdk/libs/libdrv.a(mw300_clock.o)
 .text.CLK_SetUARTClkSrc
                0x00000000       0x78 /home/zhouyongjian/wangshi/wmsdk_bundle-3.1.16/bin/wmsdk/libs/libdrv.a(mw300_clock.o)
 .text.CLK_GetUARTClkSrc
                0x00000000       0x24 /home/zhouyongjian/wangshi/wmsdk_bundle-3.1.16/bin/wmsdk/libs/libdrv.a(mw300_clock.o)
 .text.CLK_PDMClkSrc
                0x00000000       0x30 /home/zhouyongjian/wangshi/wmsdk_bundle-3.1.16/bin/wmsdk/libs/libdrv.a(mw300_clock.o)
 .text.CLK_SSPClkSrc
                0x00000000       0x7c /home/zhouyongjian/wangshi/wmsdk_bundle-3.1.16/bin/wmsdk/libs/libdrv.a(mw300_clock.o)
 .text.CLK_AupllRefClkSrc
                0x00000000       0x30 /home/zhouyongjian/wangshi/wmsdk_bundle-3.1.16/bin/wmsdk/libs/libdrv.a(mw300_clock.o)
 .text.CLK_AupllEnable
                0x00000000       0x7c /home/zhouyongjian/wangshi/wmsdk_bundle-3.1.16/bin/wmsdk/libs/libdrv.a(mw300_clock.o)
 .text.CLK_AupllDisable
                0x00000000       0x10 /home/zhouyongjian/wangshi/wmsdk_bundle-3.1.16/bin/wmsdk/libs/libdrv.a(mw300_clock.o)
 .text.CLK_SetAupllPostDiv
                0x00000000       0x20 /home/zhouyongjian/wangshi/wmsdk_bundle-3.1.16/bin/wmsdk/libs/libdrv.a(mw300_clock.o)
 .text.CLK_Xtal32KEnable
                0x00000000       0x30 /home/zhouyongjian/wangshi/wmsdk_bundle-3.1.16/bin/wmsdk/libs/libdrv.a(mw300_clock.o)
 .text.CLK_Xtal32KDisable
                0x00000000       0x14 /home/zhouyongjian/wangshi/wmsdk_bundle-3.1.16/bin/wmsdk/libs/libdrv.a(mw300_clock.o)
 .text.CLK_RC32MEnable
                0x00000000       0x18 /home/zhouyongjian/wangshi/wmsdk_bundle-3.1.16/bin/wmsdk/libs/libdrv.a(mw300_clock.o)
 .text.CLK_RC32MDisable
                0x00000000       0x18 /home/zhouyongjian/wangshi/wmsdk_bundle-3.1.16/bin/wmsdk/libs/libdrv.a(mw300_clock.o)
 .text.CLK_RC32KEnable
                0x00000000       0x14 /home/zhouyongjian/wangshi/wmsdk_bundle-3.1.16/bin/wmsdk/libs/libdrv.a(mw300_clock.o)
 .text.CLK_RC32KDisable
                0x00000000       0x14 /home/zhouyongjian/wangshi/wmsdk_bundle-3.1.16/bin/wmsdk/libs/libdrv.a(mw300_clock.o)
 .text.CLK_ModuleClkDisable
                0x00000000      0x188 /home/zhouyongjian/wangshi/wmsdk_bundle-3.1.16/bin/wmsdk/libs/libdrv.a(mw300_clock.o)
 .text.CLK_GetModuleClkDivider
                0x00000000      0x120 /home/zhouyongjian/wangshi/wmsdk_bundle-3.1.16/bin/wmsdk/libs/libdrv.a(mw300_clock.o)
 .text.CLK_RefClkDisable
                0x00000000       0x38 /home/zhouyongjian/wangshi/wmsdk_bundle-3.1.16/bin/wmsdk/libs/libdrv.a(mw300_clock.o)
 .text.RC32M_SelOutput32MHz
                0x00000000       0x24 /home/zhouyongjian/wangshi/wmsdk_bundle-3.1.16/bin/wmsdk/libs/libdrv.a(mw300_clock.o)
 .text.CLK_RC32KCalibration
                0x00000000      0x104 /home/zhouyongjian/wangshi/wmsdk_bundle-3.1.16/bin/wmsdk/libs/libdrv.a(mw300_clock.o)
 .text.RC32M_GetIntStatus
                0x00000000       0x24 /home/zhouyongjian/wangshi/wmsdk_bundle-3.1.16/bin/wmsdk/libs/libdrv.a(mw300_clock.o)
 .text.RC32M_IntMask
                0x00000000       0x24 /home/zhouyongjian/wangshi/wmsdk_bundle-3.1.16/bin/wmsdk/libs/libdrv.a(mw300_clock.o)
 .text.RC32M_IntClr
                0x00000000       0x24 /home/zhouyongjian/wangshi/wmsdk_bundle-3.1.16/bin/wmsdk/libs/libdrv.a(mw300_clock.o)
 .text          0x00000000        0x0 /home/zhouyongjian/wangshi/wmsdk_bundle-3.1.16/bin/wmsdk/libs/libdrv.a(mw300_driver.o)
 .data          0x00000000        0x0 /home/zhouyongjian/wangshi/wmsdk_bundle-3.1.16/bin/wmsdk/libs/libdrv.a(mw300_driver.o)
 .bss           0x00000000        0x0 /home/zhouyongjian/wangshi/wmsdk_bundle-3.1.16/bin/wmsdk/libs/libdrv.a(mw300_driver.o)
 .text          0x00000000        0x0 /home/zhouyongjian/wangshi/wmsdk_bundle-3.1.16/bin/wmsdk/libs/libdrv.a(mw300_pmu.o)
 .data          0x00000000        0x0 /home/zhouyongjian/wangshi/wmsdk_bundle-3.1.16/bin/wmsdk/libs/libdrv.a(mw300_pmu.o)
 .bss           0x00000000        0x0 /home/zhouyongjian/wangshi/wmsdk_bundle-3.1.16/bin/wmsdk/libs/libdrv.a(mw300_pmu.o)
 .text.PMU_SetSleepMode
                0x00000000       0x24 /home/zhouyongjian/wangshi/wmsdk_bundle-3.1.16/bin/wmsdk/libs/libdrv.a(mw300_pmu.o)
 .text.PMU_GetSleepMode
                0x00000000       0x10 /home/zhouyongjian/wangshi/wmsdk_bundle-3.1.16/bin/wmsdk/libs/libdrv.a(mw300_pmu.o)
 .text.PMU_ClearWakeupSrcInt
                0x00000000       0x48 /home/zhouyongjian/wangshi/wmsdk_bundle-3.1.16/bin/wmsdk/libs/libdrv.a(mw300_pmu.o)
 .text.PMU_GetLastWakeupStatus
                0x00000000       0x48 /home/zhouyongjian/wangshi/wmsdk_bundle-3.1.16/bin/wmsdk/libs/libdrv.a(mw300_pmu.o)
 .text.PMU_WakeupSrcIntMask
                0x00000000       0x7c /home/zhouyongjian/wangshi/wmsdk_bundle-3.1.16/bin/wmsdk/libs/libdrv.a(mw300_pmu.o)
 .text.PMU_PowerOffVDDIO
                0x00000000       0x54 /home/zhouyongjian/wangshi/wmsdk_bundle-3.1.16/bin/wmsdk/libs/libdrv.a(mw300_pmu.o)
 .text.PMU_PowerDownVDDIO
                0x00000000       0x54 /home/zhouyongjian/wangshi/wmsdk_bundle-3.1.16/bin/wmsdk/libs/libdrv.a(mw300_pmu.o)
 .text.PMU_PowerNormalVDDIO
                0x00000000       0x54 /home/zhouyongjian/wangshi/wmsdk_bundle-3.1.16/bin/wmsdk/libs/libdrv.a(mw300_pmu.o)
 .text.PMU_ConfigVDDIOLevel
                0x00000000       0xa4 /home/zhouyongjian/wangshi/wmsdk_bundle-3.1.16/bin/wmsdk/libs/libdrv.a(mw300_pmu.o)
 .text.PMU_ConfigExtraInterrupt
                0x00000000      0x2d4 /home/zhouyongjian/wangshi/wmsdk_bundle-3.1.16/bin/wmsdk/libs/libdrv.a(mw300_pmu.o)
 .text.PMU_UlpcompModeSelect
                0x00000000       0x14 /home/zhouyongjian/wangshi/wmsdk_bundle-3.1.16/bin/wmsdk/libs/libdrv.a(mw300_pmu.o)
 .text.PMU_UlpcompRefVoltageSel
                0x00000000       0x14 /home/zhouyongjian/wangshi/wmsdk_bundle-3.1.16/bin/wmsdk/libs/libdrv.a(mw300_pmu.o)
 .text.PMU_UlpcompHysteresisSel
                0x00000000       0x14 /home/zhouyongjian/wangshi/wmsdk_bundle-3.1.16/bin/wmsdk/libs/libdrv.a(mw300_pmu.o)
 .text.PMU_UlpcompCmd
                0x00000000       0x1c /home/zhouyongjian/wangshi/wmsdk_bundle-3.1.16/bin/wmsdk/libs/libdrv.a(mw300_pmu.o)
 .text.PMU_GetUlpcompStatus
                0x00000000       0x10 /home/zhouyongjian/wangshi/wmsdk_bundle-3.1.16/bin/wmsdk/libs/libdrv.a(mw300_pmu.o)
 .text.PMU_GetUlpcompOutValue
                0x00000000       0x10 /home/zhouyongjian/wangshi/wmsdk_bundle-3.1.16/bin/wmsdk/libs/libdrv.a(mw300_pmu.o)
 .text.PMU_ConfigVbatBrndet
                0x00000000       0x34 /home/zhouyongjian/wangshi/wmsdk_bundle-3.1.16/bin/wmsdk/libs/libdrv.a(mw300_pmu.o)
 .text.PMU_GetVbatBrndetStatus
                0x00000000       0x10 /home/zhouyongjian/wangshi/wmsdk_bundle-3.1.16/bin/wmsdk/libs/libdrv.a(mw300_pmu.o)
 .text.PMU_GetVbatBrndetOutValue
                0x00000000       0x10 /home/zhouyongjian/wangshi/wmsdk_bundle-3.1.16/bin/wmsdk/libs/libdrv.a(mw300_pmu.o)
 .text.PMU_VbatBrndetIntCmd
                0x00000000       0x18 /home/zhouyongjian/wangshi/wmsdk_bundle-3.1.16/bin/wmsdk/libs/libdrv.a(mw300_pmu.o)
 .text.PMU_PowerDownWLAN
                0x00000000       0x14 /home/zhouyongjian/wangshi/wmsdk_bundle-3.1.16/bin/wmsdk/libs/libdrv.a(mw300_pmu.o)
 .text.PMU_MCIWakeupWLANEnable
                0x00000000       0x14 /home/zhouyongjian/wangshi/wmsdk_bundle-3.1.16/bin/wmsdk/libs/libdrv.a(mw300_pmu.o)
 .text.PMU_MCIWakeupWLANDisable
                0x00000000       0x14 /home/zhouyongjian/wangshi/wmsdk_bundle-3.1.16/bin/wmsdk/libs/libdrv.a(mw300_pmu.o)
 .text          0x00000000        0x0 /home/zhouyongjian/wangshi/wmsdk_bundle-3.1.16/bin/wmsdk/libs/libdrv.a(mdev_rtc.o)
 .data          0x00000000        0x0 /home/zhouyongjian/wangshi/wmsdk_bundle-3.1.16/bin/wmsdk/libs/libdrv.a(mdev_rtc.o)
 .bss           0x00000000        0x0 /home/zhouyongjian/wangshi/wmsdk_bundle-3.1.16/bin/wmsdk/libs/libdrv.a(mdev_rtc.o)
 .text.rtc_xtal32k_ps_cb
                0x00000000       0x1e /home/zhouyongjian/wangshi/wmsdk_bundle-3.1.16/bin/wmsdk/libs/libdrv.a(mdev_rtc.o)
 .text.rtc_drv_set_alarm_cb
                0x00000000       0x30 /home/zhouyongjian/wangshi/wmsdk_bundle-3.1.16/bin/wmsdk/libs/libdrv.a(mdev_rtc.o)
 .text.rtc_drv_set_cb
                0x00000000       0x2c /home/zhouyongjian/wangshi/wmsdk_bundle-3.1.16/bin/wmsdk/libs/libdrv.a(mdev_rtc.o)
 .text.rtc_drv_set
                0x00000000       0x14 /home/zhouyongjian/wangshi/wmsdk_bundle-3.1.16/bin/wmsdk/libs/libdrv.a(mdev_rtc.o)
 .text.rtc_drv_reset
                0x00000000        0x4 /home/zhouyongjian/wangshi/wmsdk_bundle-3.1.16/bin/wmsdk/libs/libdrv.a(mdev_rtc.o)
 .text.rtc_drv_get
                0x00000000       0x28 /home/zhouyongjian/wangshi/wmsdk_bundle-3.1.16/bin/wmsdk/libs/libdrv.a(mdev_rtc.o)
 .text.rtc_drv_set_alarm
                0x00000000       0x1c /home/zhouyongjian/wangshi/wmsdk_bundle-3.1.16/bin/wmsdk/libs/libdrv.a(mdev_rtc.o)
 .text.rtc_drv_get_uppval
                0x00000000        0x4 /home/zhouyongjian/wangshi/wmsdk_bundle-3.1.16/bin/wmsdk/libs/libdrv.a(mdev_rtc.o)
 .text.rtc_drv_stop
                0x00000000        0x4 /home/zhouyongjian/wangshi/wmsdk_bundle-3.1.16/bin/wmsdk/libs/libdrv.a(mdev_rtc.o)
 .text.rtc_drv_start
                0x00000000        0x4 /home/zhouyongjian/wangshi/wmsdk_bundle-3.1.16/bin/wmsdk/libs/libdrv.a(mdev_rtc.o)
 .text.rtc_drv_close
                0x00000000        0x4 /home/zhouyongjian/wangshi/wmsdk_bundle-3.1.16/bin/wmsdk/libs/libdrv.a(mdev_rtc.o)
 .text.rtc_drv_open
                0x00000000       0x24 /home/zhouyongjian/wangshi/wmsdk_bundle-3.1.16/bin/wmsdk/libs/libdrv.a(mdev_rtc.o)
 .text.rtc_drv_init
                0x00000000      0x1a0 /home/zhouyongjian/wangshi/wmsdk_bundle-3.1.16/bin/wmsdk/libs/libdrv.a(mdev_rtc.o)
 .rodata.str1.1
                0x00000000       0x62 /home/zhouyongjian/wangshi/wmsdk_bundle-3.1.16/bin/wmsdk/libs/libdrv.a(mdev_rtc.o)
 .bss.MDEV_rtc  0x00000000       0x14 /home/zhouyongjian/wangshi/wmsdk_bundle-3.1.16/bin/wmsdk/libs/libdrv.a(mdev_rtc.o)
 .debug_info    0x00000000     0x1b60 /home/zhouyongjian/wangshi/wmsdk_bundle-3.1.16/bin/wmsdk/libs/libdrv.a(mdev_rtc.o)
 .debug_abbrev  0x00000000      0x3f9 /home/zhouyongjian/wangshi/wmsdk_bundle-3.1.16/bin/wmsdk/libs/libdrv.a(mdev_rtc.o)
 .debug_loc     0x00000000      0x31c /home/zhouyongjian/wangshi/wmsdk_bundle-3.1.16/bin/wmsdk/libs/libdrv.a(mdev_rtc.o)
 .debug_aranges
                0x00000000       0x80 /home/zhouyongjian/wangshi/wmsdk_bundle-3.1.16/bin/wmsdk/libs/libdrv.a(mdev_rtc.o)
 .debug_ranges  0x00000000       0xe0 /home/zhouyongjian/wangshi/wmsdk_bundle-3.1.16/bin/wmsdk/libs/libdrv.a(mdev_rtc.o)
 .debug_line    0x00000000      0x4a6 /home/zhouyongjian/wangshi/wmsdk_bundle-3.1.16/bin/wmsdk/libs/libdrv.a(mdev_rtc.o)
 .debug_str     0x00000000     0x1667 /home/zhouyongjian/wangshi/wmsdk_bundle-3.1.16/bin/wmsdk/libs/libdrv.a(mdev_rtc.o)
 .comment       0x00000000       0x71 /home/zhouyongjian/wangshi/wmsdk_bundle-3.1.16/bin/wmsdk/libs/libdrv.a(mdev_rtc.o)
 .ARM.attributes
                0x00000000       0x33 /home/zhouyongjian/wangshi/wmsdk_bundle-3.1.16/bin/wmsdk/libs/libdrv.a(mdev_rtc.o)
 .debug_frame   0x00000000      0x130 /home/zhouyongjian/wangshi/wmsdk_bundle-3.1.16/bin/wmsdk/libs/libdrv.a(mdev_rtc.o)
 .text          0x00000000        0x0 /home/zhouyongjian/wangshi/wmsdk_bundle-3.1.16/bin/wmsdk/libs/libdrv.a(mw300_pinmux.o)
 .data          0x00000000        0x0 /home/zhouyongjian/wangshi/wmsdk_bundle-3.1.16/bin/wmsdk/libs/libdrv.a(mw300_pinmux.o)
 .bss           0x00000000        0x0 /home/zhouyongjian/wangshi/wmsdk_bundle-3.1.16/bin/wmsdk/libs/libdrv.a(mw300_pinmux.o)
 .text.GPIO_PinModeConfig
                0x00000000       0xc0 /home/zhouyongjian/wangshi/wmsdk_bundle-3.1.16/bin/wmsdk/libs/libdrv.a(mw300_pinmux.o)
 .text          0x00000000        0x0 /home/zhouyongjian/wangshi/wmsdk_bundle-3.1.16/bin/wmsdk/libs/libdrv.a(mw300_rtc.o)
 .data          0x00000000        0x0 /home/zhouyongjian/wangshi/wmsdk_bundle-3.1.16/bin/wmsdk/libs/libdrv.a(mw300_rtc.o)
 .bss           0x00000000        0x0 /home/zhouyongjian/wangshi/wmsdk_bundle-3.1.16/bin/wmsdk/libs/libdrv.a(mw300_rtc.o)
 .text.RTC_CounterReset
                0x00000000       0x38 /home/zhouyongjian/wangshi/wmsdk_bundle-3.1.16/bin/wmsdk/libs/libdrv.a(mw300_rtc.o)
 .text.RTC_Init
                0x00000000       0x24 /home/zhouyongjian/wangshi/wmsdk_bundle-3.1.16/bin/wmsdk/libs/libdrv.a(mw300_rtc.o)
 .text.RTC_GetCntStatus
                0x00000000       0x10 /home/zhouyongjian/wangshi/wmsdk_bundle-3.1.16/bin/wmsdk/libs/libdrv.a(mw300_rtc.o)
 .text.RTC_Start
                0x00000000       0x10 /home/zhouyongjian/wangshi/wmsdk_bundle-3.1.16/bin/wmsdk/libs/libdrv.a(mw300_rtc.o)
 .text.RTC_Stop
                0x00000000       0x10 /home/zhouyongjian/wangshi/wmsdk_bundle-3.1.16/bin/wmsdk/libs/libdrv.a(mw300_rtc.o)
 .text.RTC_SetCounterUppVal
                0x00000000        0xc /home/zhouyongjian/wangshi/wmsdk_bundle-3.1.16/bin/wmsdk/libs/libdrv.a(mw300_rtc.o)
 .text.RTC_GetCounterUppVal
                0x00000000        0xc /home/zhouyongjian/wangshi/wmsdk_bundle-3.1.16/bin/wmsdk/libs/libdrv.a(mw300_rtc.o)
 .text.RTC_SetCounterAlarmVal
                0x00000000        0xc /home/zhouyongjian/wangshi/wmsdk_bundle-3.1.16/bin/wmsdk/libs/libdrv.a(mw300_rtc.o)
 .text.RTC_GetCounterVal
                0x00000000        0xc /home/zhouyongjian/wangshi/wmsdk_bundle-3.1.16/bin/wmsdk/libs/libdrv.a(mw300_rtc.o)
 .text.RTC_IntMask
                0x00000000       0x38 /home/zhouyongjian/wangshi/wmsdk_bundle-3.1.16/bin/wmsdk/libs/libdrv.a(mw300_rtc.o)
 .text.RTC_IntClr
                0x00000000       0x34 /home/zhouyongjian/wangshi/wmsdk_bundle-3.1.16/bin/wmsdk/libs/libdrv.a(mw300_rtc.o)
 .text.RTC_GetStatus
                0x00000000       0x24 /home/zhouyongjian/wangshi/wmsdk_bundle-3.1.16/bin/wmsdk/libs/libdrv.a(mw300_rtc.o)
 .text          0x00000000        0x0 /home/zhouyongjian/wangshi/wmsdk_bundle-3.1.16/bin/wmsdk/libs/libdrv.a(mdev_gpt.o)
 .data          0x00000000        0x0 /home/zhouyongjian/wangshi/wmsdk_bundle-3.1.16/bin/wmsdk/libs/libdrv.a(mdev_gpt.o)
 .bss           0x00000000        0x0 /home/zhouyongjian/wangshi/wmsdk_bundle-3.1.16/bin/wmsdk/libs/libdrv.a(mdev_gpt.o)
 .text.gpt_drv_pwm
                0x00000000       0x36 /home/zhouyongjian/wangshi/wmsdk_bundle-3.1.16/bin/wmsdk/libs/libdrv.a(mdev_gpt.o)
 .text.gpt_drv_stop
                0x00000000       0x38 /home/zhouyongjian/wangshi/wmsdk_bundle-3.1.16/bin/wmsdk/libs/libdrv.a(mdev_gpt.o)
 .text.gpt_drv_close
                0x00000000       0x4c /home/zhouyongjian/wangshi/wmsdk_bundle-3.1.16/bin/wmsdk/libs/libdrv.a(mdev_gpt.o)
 .text          0x00000000        0x0 /home/zhouyongjian/wangshi/wmsdk_bundle-3.1.16/bin/wmsdk/libs/libdrv.a(mw300_gpt.o)
 .data          0x00000000        0x0 /home/zhouyongjian/wangshi/wmsdk_bundle-3.1.16/bin/wmsdk/libs/libdrv.a(mw300_gpt.o)
 .bss           0x00000000        0x0 /home/zhouyongjian/wangshi/wmsdk_bundle-3.1.16/bin/wmsdk/libs/libdrv.a(mw300_gpt.o)
 .text.GPT_Stop
                0x00000000       0x14 /home/zhouyongjian/wangshi/wmsdk_bundle-3.1.16/bin/wmsdk/libs/libdrv.a(mw300_gpt.o)
 .text.GPT_ChannelReset
                0x00000000       0x1c /home/zhouyongjian/wangshi/wmsdk_bundle-3.1.16/bin/wmsdk/libs/libdrv.a(mw300_gpt.o)
 .text.GPT_InputConfig
                0x00000000       0x28 /home/zhouyongjian/wangshi/wmsdk_bundle-3.1.16/bin/wmsdk/libs/libdrv.a(mw300_gpt.o)
 .text.GPT_ChannelFuncSelect
                0x00000000       0x18 /home/zhouyongjian/wangshi/wmsdk_bundle-3.1.16/bin/wmsdk/libs/libdrv.a(mw300_gpt.o)
 .text.GPT_ChannelInputConfig
                0x00000000       0x18 /home/zhouyongjian/wangshi/wmsdk_bundle-3.1.16/bin/wmsdk/libs/libdrv.a(mw300_gpt.o)
 .text.GPT_ChannelOutputConfig
                0x00000000       0x40 /home/zhouyongjian/wangshi/wmsdk_bundle-3.1.16/bin/wmsdk/libs/libdrv.a(mw300_gpt.o)
 .text.GPT_SetCounterUppVal
                0x00000000       0x10 /home/zhouyongjian/wangshi/wmsdk_bundle-3.1.16/bin/wmsdk/libs/libdrv.a(mw300_gpt.o)
 .text.GPT_SetChannelMatchVal0
                0x00000000       0x28 /home/zhouyongjian/wangshi/wmsdk_bundle-3.1.16/bin/wmsdk/libs/libdrv.a(mw300_gpt.o)
 .text.GPT_SetChannelMatchVal1
                0x00000000       0x28 /home/zhouyongjian/wangshi/wmsdk_bundle-3.1.16/bin/wmsdk/libs/libdrv.a(mw300_gpt.o)
 .text.GPT_SetChannelBothMatchVal
                0x00000000       0x2c /home/zhouyongjian/wangshi/wmsdk_bundle-3.1.16/bin/wmsdk/libs/libdrv.a(mw300_gpt.o)
 .text.GPT_GetCaptureVal
                0x00000000       0x14 /home/zhouyongjian/wangshi/wmsdk_bundle-3.1.16/bin/wmsdk/libs/libdrv.a(mw300_gpt.o)
 .text.GPT_GetCounterVal
                0x00000000       0x10 /home/zhouyongjian/wangshi/wmsdk_bundle-3.1.16/bin/wmsdk/libs/libdrv.a(mw300_gpt.o)
 .text.GPT_DMACmd
                0x00000000       0x34 /home/zhouyongjian/wangshi/wmsdk_bundle-3.1.16/bin/wmsdk/libs/libdrv.a(mw300_gpt.o)
 .text.GPT_DMAChannelSelect
                0x00000000       0x28 /home/zhouyongjian/wangshi/wmsdk_bundle-3.1.16/bin/wmsdk/libs/libdrv.a(mw300_gpt.o)
 .text.GPT_TrigCmd
                0x00000000       0x18 /home/zhouyongjian/wangshi/wmsdk_bundle-3.1.16/bin/wmsdk/libs/libdrv.a(mw300_gpt.o)
 .text.GPT_TrigConfig
                0x00000000       0x1c /home/zhouyongjian/wangshi/wmsdk_bundle-3.1.16/bin/wmsdk/libs/libdrv.a(mw300_gpt.o)
 .text.GPT_StatusClr
                0x00000000       0x50 /home/zhouyongjian/wangshi/wmsdk_bundle-3.1.16/bin/wmsdk/libs/libdrv.a(mw300_gpt.o)
 .text.GPT_GetStatus
                0x00000000       0x68 /home/zhouyongjian/wangshi/wmsdk_bundle-3.1.16/bin/wmsdk/libs/libdrv.a(mw300_gpt.o)
 .text          0x00000000        0x0 /home/zhouyongjian/wangshi/wmsdk_bundle-3.1.16/bin/wmsdk/libs/libfreertos.a(queue.o)
 .data          0x00000000        0x0 /home/zhouyongjian/wangshi/wmsdk_bundle-3.1.16/bin/wmsdk/libs/libfreertos.a(queue.o)
 .bss           0x00000000        0x0 /home/zhouyongjian/wangshi/wmsdk_bundle-3.1.16/bin/wmsdk/libs/libfreertos.a(queue.o)
 .text.vGetWaiterListFromHandle
                0x00000000        0x8 /home/zhouyongjian/wangshi/wmsdk_bundle-3.1.16/bin/wmsdk/libs/libfreertos.a(queue.o)
 .text.xQueueCreateCountingSemaphore
                0x00000000       0x10 /home/zhouyongjian/wangshi/wmsdk_bundle-3.1.16/bin/wmsdk/libs/libfreertos.a(queue.o)
 .text.xQueueGiveMutexRecursive
                0x00000000       0x2c /home/zhouyongjian/wangshi/wmsdk_bundle-3.1.16/bin/wmsdk/libs/libfreertos.a(queue.o)
 .text.xQueueTakeMutexRecursive
                0x00000000       0x34 /home/zhouyongjian/wangshi/wmsdk_bundle-3.1.16/bin/wmsdk/libs/libfreertos.a(queue.o)
 .text.xQueueReceiveFromISR
                0x00000000       0x54 /home/zhouyongjian/wangshi/wmsdk_bundle-3.1.16/bin/wmsdk/libs/libfreertos.a(queue.o)
 .text.uxQueueMessagesWaiting
                0x00000000       0x14 /home/zhouyongjian/wangshi/wmsdk_bundle-3.1.16/bin/wmsdk/libs/libfreertos.a(queue.o)
 .text.uxQueueMessagesWaitingFromISR
                0x00000000        0x4 /home/zhouyongjian/wangshi/wmsdk_bundle-3.1.16/bin/wmsdk/libs/libfreertos.a(queue.o)
 .text.vQueueDelete
                0x00000000       0x14 /home/zhouyongjian/wangshi/wmsdk_bundle-3.1.16/bin/wmsdk/libs/libfreertos.a(queue.o)
 .text.xQueueIsQueueEmptyFromISR
                0x00000000        0xc /home/zhouyongjian/wangshi/wmsdk_bundle-3.1.16/bin/wmsdk/libs/libfreertos.a(queue.o)
 .text.xQueueIsQueueFullFromISR
                0x00000000        0xc /home/zhouyongjian/wangshi/wmsdk_bundle-3.1.16/bin/wmsdk/libs/libfreertos.a(queue.o)
 .text          0x00000000        0x0 /home/zhouyongjian/wangshi/wmsdk_bundle-3.1.16/bin/wmsdk/libs/libfreertos.a(tasks.o)
 .data          0x00000000        0x0 /home/zhouyongjian/wangshi/wmsdk_bundle-3.1.16/bin/wmsdk/libs/libfreertos.a(tasks.o)
 .bss           0x00000000        0x0 /home/zhouyongjian/wangshi/wmsdk_bundle-3.1.16/bin/wmsdk/libs/libfreertos.a(tasks.o)
 .text.prvListTaskWithinSingleList
                0x00000000       0xac /home/zhouyongjian/wangshi/wmsdk_bundle-3.1.16/bin/wmsdk/libs/libfreertos.a(tasks.o)
 .text.vTaskDelayAbort
                0x00000000       0x60 /home/zhouyongjian/wangshi/wmsdk_bundle-3.1.16/bin/wmsdk/libs/libfreertos.a(tasks.o)
 .text.uxTaskPriorityGet
                0x00000000       0x28 /home/zhouyongjian/wangshi/wmsdk_bundle-3.1.16/bin/wmsdk/libs/libfreertos.a(tasks.o)
 .text.vTaskPrioritySet
                0x00000000       0xa8 /home/zhouyongjian/wangshi/wmsdk_bundle-3.1.16/bin/wmsdk/libs/libfreertos.a(tasks.o)
 .text.xTaskIsTaskSuspended
                0x00000000       0x28 /home/zhouyongjian/wangshi/wmsdk_bundle-3.1.16/bin/wmsdk/libs/libfreertos.a(tasks.o)
 .text.vTaskResume
                0x00000000       0x78 /home/zhouyongjian/wangshi/wmsdk_bundle-3.1.16/bin/wmsdk/libs/libfreertos.a(tasks.o)
 .text.xTaskResumeFromISR
                0x00000000       0x80 /home/zhouyongjian/wangshi/wmsdk_bundle-3.1.16/bin/wmsdk/libs/libfreertos.a(tasks.o)
 .text.vTaskEndScheduler
                0x00000000       0x18 /home/zhouyongjian/wangshi/wmsdk_bundle-3.1.16/bin/wmsdk/libs/libfreertos.a(tasks.o)
 .text.xTaskUpdateTickCount
                0x00000000       0x1c /home/zhouyongjian/wangshi/wmsdk_bundle-3.1.16/bin/wmsdk/libs/libfreertos.a(tasks.o)
 .text.xTaskGetUnblockTime
                0x00000000       0x20 /home/zhouyongjian/wangshi/wmsdk_bundle-3.1.16/bin/wmsdk/libs/libfreertos.a(tasks.o)
 .text.xTaskGetTotalTickCount
                0x00000000       0x28 /home/zhouyongjian/wangshi/wmsdk_bundle-3.1.16/bin/wmsdk/libs/libfreertos.a(tasks.o)
 .text.xTaskGetTickCountFromISR
                0x00000000       0x1c /home/zhouyongjian/wangshi/wmsdk_bundle-3.1.16/bin/wmsdk/libs/libfreertos.a(tasks.o)
 .text.uxTaskGetNumberOfTasks
                0x00000000        0xc /home/zhouyongjian/wangshi/wmsdk_bundle-3.1.16/bin/wmsdk/libs/libfreertos.a(tasks.o)
 .text.vTaskStartTrace
                0x00000000       0x38 /home/zhouyongjian/wangshi/wmsdk_bundle-3.1.16/bin/wmsdk/libs/libfreertos.a(tasks.o)
 .text.ulTaskEndTrace
                0x00000000       0x28 /home/zhouyongjian/wangshi/wmsdk_bundle-3.1.16/bin/wmsdk/libs/libfreertos.a(tasks.o)
 .text.vTaskDelayUntil
                0x00000000       0x60 /home/zhouyongjian/wangshi/wmsdk_bundle-3.1.16/bin/wmsdk/libs/libfreertos.a(tasks.o)
 .text.vTaskList
                0x00000000       0xb4 /home/zhouyongjian/wangshi/wmsdk_bundle-3.1.16/bin/wmsdk/libs/libfreertos.a(tasks.o)
 .text.vGetTaskNamesInList
                0x00000000       0x80 /home/zhouyongjian/wangshi/wmsdk_bundle-3.1.16/bin/wmsdk/libs/libfreertos.a(tasks.o)
 .text.uxTaskGetStackHighWaterMark
                0x00000000       0x28 /home/zhouyongjian/wangshi/wmsdk_bundle-3.1.16/bin/wmsdk/libs/libfreertos.a(tasks.o)
 .bss.pcStatusString
                0x00000000       0x34 /home/zhouyongjian/wangshi/wmsdk_bundle-3.1.16/bin/wmsdk/libs/libfreertos.a(tasks.o)
 .bss.pcTraceBufferStart
                0x00000000        0x4 /home/zhouyongjian/wangshi/wmsdk_bundle-3.1.16/bin/wmsdk/libs/libfreertos.a(tasks.o)
 .text          0x00000000        0x0 /home/zhouyongjian/wangshi/wmsdk_bundle-3.1.16/bin/wmsdk/libs/libfreertos.a(timers.o)
 .data          0x00000000        0x0 /home/zhouyongjian/wangshi/wmsdk_bundle-3.1.16/bin/wmsdk/libs/libfreertos.a(timers.o)
 .bss           0x00000000        0x0 /home/zhouyongjian/wangshi/wmsdk_bundle-3.1.16/bin/wmsdk/libs/libfreertos.a(timers.o)
 .text.xTimerCreate
                0x00000000       0x40 /home/zhouyongjian/wangshi/wmsdk_bundle-3.1.16/bin/wmsdk/libs/libfreertos.a(timers.o)
 .text.xTimerIsTimerActive
                0x00000000       0x18 /home/zhouyongjian/wangshi/wmsdk_bundle-3.1.16/bin/wmsdk/libs/libfreertos.a(timers.o)
 .text.pvTimerGetTimerID
                0x00000000        0x4 /home/zhouyongjian/wangshi/wmsdk_bundle-3.1.16/bin/wmsdk/libs/libfreertos.a(timers.o)
 .text          0x00000000        0x0 /home/zhouyongjian/wangshi/wmsdk_bundle-3.1.16/bin/wmsdk/libs/libfreertos.a(port.o)
 .data          0x00000000        0x0 /home/zhouyongjian/wangshi/wmsdk_bundle-3.1.16/bin/wmsdk/libs/libfreertos.a(port.o)
 .bss           0x00000000        0x0 /home/zhouyongjian/wangshi/wmsdk_bundle-3.1.16/bin/wmsdk/libs/libfreertos.a(port.o)
 .text.vPortEndScheduler
                0x00000000        0x4 /home/zhouyongjian/wangshi/wmsdk_bundle-3.1.16/bin/wmsdk/libs/libfreertos.a(port.o)
 .rodata.ulKernelPriority
                0x00000000        0x4 /home/zhouyongjian/wangshi/wmsdk_bundle-3.1.16/bin/wmsdk/libs/libfreertos.a(port.o)
 .text          0x00000000        0x0 /home/zhouyongjian/wangshi/wmsdk_bundle-3.1.16/bin/wmsdk/libs/libfreertos.a(heap_4.o)
 .data          0x00000000        0x0 /home/zhouyongjian/wangshi/wmsdk_bundle-3.1.16/bin/wmsdk/libs/libfreertos.a(heap_4.o)
 .bss           0x00000000        0x0 /home/zhouyongjian/wangshi/wmsdk_bundle-3.1.16/bin/wmsdk/libs/libfreertos.a(heap_4.o)
 .text.vPortBiggestFreeBlockSize
                0x00000000       0x20 /home/zhouyongjian/wangshi/wmsdk_bundle-3.1.16/bin/wmsdk/libs/libfreertos.a(heap_4.o)
 .text.getheapAllocInfo
                0x00000000       0x38 /home/zhouyongjian/wangshi/wmsdk_bundle-3.1.16/bin/wmsdk/libs/libfreertos.a(heap_4.o)
 .text.pvPortReAlloc
                0x00000000       0x98 /home/zhouyongjian/wangshi/wmsdk_bundle-3.1.16/bin/wmsdk/libs/libfreertos.a(heap_4.o)
 .text.xPortGetFreeHeapSize
                0x00000000        0xc /home/zhouyongjian/wangshi/wmsdk_bundle-3.1.16/bin/wmsdk/libs/libfreertos.a(heap_4.o)
 .text.vPortInitialiseBlocks
                0x00000000        0x4 /home/zhouyongjian/wangshi/wmsdk_bundle-3.1.16/bin/wmsdk/libs/libfreertos.a(heap_4.o)
 .text.vHeapSelfTest
                0x00000000       0x48 /home/zhouyongjian/wangshi/wmsdk_bundle-3.1.16/bin/wmsdk/libs/libfreertos.a(heap_4.o)
 .text          0x00000000        0x0 /home/zhouyongjian/wangshi/wmsdk_bundle-3.1.16/bin/wmsdk/libs/libfreertos.a(list.o)
 .data          0x00000000        0x0 /home/zhouyongjian/wangshi/wmsdk_bundle-3.1.16/bin/wmsdk/libs/libfreertos.a(list.o)
 .bss           0x00000000        0x0 /home/zhouyongjian/wangshi/wmsdk_bundle-3.1.16/bin/wmsdk/libs/libfreertos.a(list.o)
 .text          0x00000000        0x0 /home/zhouyongjian/wangshi/wmsdk_bundle-3.1.16/bin/wmsdk/libs/libmdev.a(mdev.o)
 .data          0x00000000        0x0 /home/zhouyongjian/wangshi/wmsdk_bundle-3.1.16/bin/wmsdk/libs/libmdev.a(mdev.o)
 .bss           0x00000000        0x0 /home/zhouyongjian/wangshi/wmsdk_bundle-3.1.16/bin/wmsdk/libs/libmdev.a(mdev.o)
 .text.mdev_deregister
                0x00000000       0x3c /home/zhouyongjian/wangshi/wmsdk_bundle-3.1.16/bin/wmsdk/libs/libmdev.a(mdev.o)
 .text          0x00000000        0x0 /home/zhouyongjian/wangshi/wmsdk_bundle-3.1.16/bin/wmsdk/libs/libos.a(os.o)
 .data          0x00000000        0x0 /home/zhouyongjian/wangshi/wmsdk_bundle-3.1.16/bin/wmsdk/libs/libos.a(os.o)
 .bss           0x00000000        0x0 /home/zhouyongjian/wangshi/wmsdk_bundle-3.1.16/bin/wmsdk/libs/libos.a(os.o)
 .text.os_semaphore_create
                0x00000000       0x28 /home/zhouyongjian/wangshi/wmsdk_bundle-3.1.16/bin/wmsdk/libs/libos.a(os.o)
 .text.os_semaphore_get
                0x00000000       0x22 /home/zhouyongjian/wangshi/wmsdk_bundle-3.1.16/bin/wmsdk/libs/libos.a(os.o)
 .text.os_mutex_put
                0x00000000       0x42 /home/zhouyongjian/wangshi/wmsdk_bundle-3.1.16/bin/wmsdk/libs/libos.a(os.o)
 .text.os_semaphore_put
                0x00000000       0x42 /home/zhouyongjian/wangshi/wmsdk_bundle-3.1.16/bin/wmsdk/libs/libos.a(os.o)
 .text.os_event_flags_remove_node.isra.2
                0x00000000       0x1e /home/zhouyongjian/wangshi/wmsdk_bundle-3.1.16/bin/wmsdk/libs/libos.a(os.o)
 .text.os_mutex_get.constprop.3
                0x00000000       0x24 /home/zhouyongjian/wangshi/wmsdk_bundle-3.1.16/bin/wmsdk/libs/libos.a(os.o)
 .text.os_thread_create
                0x00000000       0x28 /home/zhouyongjian/wangshi/wmsdk_bundle-3.1.16/bin/wmsdk/libs/libos.a(os.o)
 .text.os_timer_create
                0x00000000       0x46 /home/zhouyongjian/wangshi/wmsdk_bundle-3.1.16/bin/wmsdk/libs/libos.a(os.o)
 .text.vApplicationMallocFailedHook
                0x00000000       0x10 /home/zhouyongjian/wangshi/wmsdk_bundle-3.1.16/bin/wmsdk/libs/libos.a(os.o)
 .text.os_get_timestamp
                0x00000000       0x5c /home/zhouyongjian/wangshi/wmsdk_bundle-3.1.16/bin/wmsdk/libs/libos.a(os.o)
 .text.os_queue_create
                0x00000000       0x1e /home/zhouyongjian/wangshi/wmsdk_bundle-3.1.16/bin/wmsdk/libs/libos.a(os.o)
 .text.os_thread_stackmark
                0x00000000        0x2 /home/zhouyongjian/wangshi/wmsdk_bundle-3.1.16/bin/wmsdk/libs/libos.a(os.o)
 .text.os_dump_threadinfo
                0x00000000      0x11c /home/zhouyongjian/wangshi/wmsdk_bundle-3.1.16/bin/wmsdk/libs/libos.a(os.o)
 .text.os_event_flags_create
                0x00000000       0x30 /home/zhouyongjian/wangshi/wmsdk_bundle-3.1.16/bin/wmsdk/libs/libos.a(os.o)
 .text.os_event_flags_get
                0x00000000      0x170 /home/zhouyongjian/wangshi/wmsdk_bundle-3.1.16/bin/wmsdk/libs/libos.a(os.o)
 .text.os_event_flags_set
                0x00000000       0x6e /home/zhouyongjian/wangshi/wmsdk_bundle-3.1.16/bin/wmsdk/libs/libos.a(os.o)
 .text.os_event_flags_delete
                0x00000000       0x86 /home/zhouyongjian/wangshi/wmsdk_bundle-3.1.16/bin/wmsdk/libs/libos.a(os.o)
 .text._os_delay
                0x00000000       0x30 /home/zhouyongjian/wangshi/wmsdk_bundle-3.1.16/bin/wmsdk/libs/libos.a(os.o)
 .text.os_disable_all_interrupts
                0x00000000        0xa /home/zhouyongjian/wangshi/wmsdk_bundle-3.1.16/bin/wmsdk/libs/libos.a(os.o)
 .text.os_enable_all_interrupts
                0x00000000        0xa /home/zhouyongjian/wangshi/wmsdk_bundle-3.1.16/bin/wmsdk/libs/libos.a(os.o)
 .text.os_rwlock_create_with_cb
                0x00000000       0x2c /home/zhouyongjian/wangshi/wmsdk_bundle-3.1.16/bin/wmsdk/libs/libos.a(os.o)
 .text.os_rwlock_create
                0x00000000        0x6 /home/zhouyongjian/wangshi/wmsdk_bundle-3.1.16/bin/wmsdk/libs/libos.a(os.o)
 .text.os_rwlock_read_lock
                0x00000000       0x44 /home/zhouyongjian/wangshi/wmsdk_bundle-3.1.16/bin/wmsdk/libs/libos.a(os.o)
 .text.os_rwlock_read_unlock
                0x00000000       0x26 /home/zhouyongjian/wangshi/wmsdk_bundle-3.1.16/bin/wmsdk/libs/libos.a(os.o)
 .text.os_rwlock_write_lock
                0x00000000        0x6 /home/zhouyongjian/wangshi/wmsdk_bundle-3.1.16/bin/wmsdk/libs/libos.a(os.o)
 .text.os_rwlock_write_unlock
                0x00000000        0x6 /home/zhouyongjian/wangshi/wmsdk_bundle-3.1.16/bin/wmsdk/libs/libos.a(os.o)
 .text.os_rwlock_delete
                0x00000000       0x1c /home/zhouyongjian/wangshi/wmsdk_bundle-3.1.16/bin/wmsdk/libs/libos.a(os.o)
 .rodata.CSWTCH.59
                0x00000000       0x48 /home/zhouyongjian/wangshi/wmsdk_bundle-3.1.16/bin/wmsdk/libs/libos.a(os.o)
 .text          0x00000000        0x0 /home/zhouyongjian/wangshi/wmsdk_bundle-3.1.16/bin/wmsdk/libs/libpwrmgr.a(pwrmgr.o)
 .data          0x00000000        0x0 /home/zhouyongjian/wangshi/wmsdk_bundle-3.1.16/bin/wmsdk/libs/libpwrmgr.a(pwrmgr.o)
 .bss           0x00000000        0x0 /home/zhouyongjian/wangshi/wmsdk_bundle-3.1.16/bin/wmsdk/libs/libpwrmgr.a(pwrmgr.o)
 .text.print_cli_usage
                0x00000000       0x38 /home/zhouyongjian/wangshi/wmsdk_bundle-3.1.16/bin/wmsdk/libs/libpwrmgr.a(pwrmgr.o)
 .text.print_usage
                0x00000000       0x38 /home/zhouyongjian/wangshi/wmsdk_bundle-3.1.16/bin/wmsdk/libs/libpwrmgr.a(pwrmgr.o)
 .text.cmd_pm_mcu_state
                0x00000000       0xb8 /home/zhouyongjian/wangshi/wmsdk_bundle-3.1.16/bin/wmsdk/libs/libpwrmgr.a(pwrmgr.o)
 .text.cmd_pm_mcu_io_cfg
                0x00000000       0x68 /home/zhouyongjian/wangshi/wmsdk_bundle-3.1.16/bin/wmsdk/libs/libpwrmgr.a(pwrmgr.o)
 .text.cmd_pm_mcu_cfg
                0x00000000       0x4c /home/zhouyongjian/wangshi/wmsdk_bundle-3.1.16/bin/wmsdk/libs/libpwrmgr.a(pwrmgr.o)
 .text.os_mutex_put.constprop.6
                0x00000000       0x48 /home/zhouyongjian/wangshi/wmsdk_bundle-3.1.16/bin/wmsdk/libs/libpwrmgr.a(pwrmgr.o)
 .text.os_mutex_get.constprop.7
                0x00000000       0x28 /home/zhouyongjian/wangshi/wmsdk_bundle-3.1.16/bin/wmsdk/libs/libpwrmgr.a(pwrmgr.o)
 .text.wakelock_put_debug
                0x00000000        0x2 /home/zhouyongjian/wangshi/wmsdk_bundle-3.1.16/bin/wmsdk/libs/libpwrmgr.a(pwrmgr.o)
 .text.wakelock_get_debug
                0x00000000        0x2 /home/zhouyongjian/wangshi/wmsdk_bundle-3.1.16/bin/wmsdk/libs/libpwrmgr.a(pwrmgr.o)
 .text.pm_register_cb
                0x00000000       0x48 /home/zhouyongjian/wangshi/wmsdk_bundle-3.1.16/bin/wmsdk/libs/libpwrmgr.a(pwrmgr.o)
 .text.pm_change_event
                0x00000000       0x2c /home/zhouyongjian/wangshi/wmsdk_bundle-3.1.16/bin/wmsdk/libs/libpwrmgr.a(pwrmgr.o)
 .text.pm_deregister_cb
                0x00000000       0x30 /home/zhouyongjian/wangshi/wmsdk_bundle-3.1.16/bin/wmsdk/libs/libpwrmgr.a(pwrmgr.o)
 .text.pm_invoke_ps_callback
                0x00000000       0x28 /home/zhouyongjian/wangshi/wmsdk_bundle-3.1.16/bin/wmsdk/libs/libpwrmgr.a(pwrmgr.o)
 .text.wakelock_get
                0x00000000       0x50 /home/zhouyongjian/wangshi/wmsdk_bundle-3.1.16/bin/wmsdk/libs/libpwrmgr.a(pwrmgr.o)
 .text.wakelock_put
                0x00000000       0x30 /home/zhouyongjian/wangshi/wmsdk_bundle-3.1.16/bin/wmsdk/libs/libpwrmgr.a(pwrmgr.o)
 .text.wakelock_isheld
                0x00000000       0x18 /home/zhouyongjian/wangshi/wmsdk_bundle-3.1.16/bin/wmsdk/libs/libpwrmgr.a(pwrmgr.o)
 .text.pm_reboot_soc
                0x00000000        0xe /home/zhouyongjian/wangshi/wmsdk_bundle-3.1.16/bin/wmsdk/libs/libpwrmgr.a(pwrmgr.o)
 .text.cmd_pm_reboot
                0x00000000        0x4 /home/zhouyongjian/wangshi/wmsdk_bundle-3.1.16/bin/wmsdk/libs/libpwrmgr.a(pwrmgr.o)
 .text.pm_init  0x00000000       0x34 /home/zhouyongjian/wangshi/wmsdk_bundle-3.1.16/bin/wmsdk/libs/libpwrmgr.a(pwrmgr.o)
 .text.is_pm_init_done
                0x00000000       0x10 /home/zhouyongjian/wangshi/wmsdk_bundle-3.1.16/bin/wmsdk/libs/libpwrmgr.a(pwrmgr.o)
 .text.pm_cli_init
                0x00000000       0x14 /home/zhouyongjian/wangshi/wmsdk_bundle-3.1.16/bin/wmsdk/libs/libpwrmgr.a(pwrmgr.o)
 .text.pm_mcu_cli_init
                0x00000000       0x20 /home/zhouyongjian/wangshi/wmsdk_bundle-3.1.16/bin/wmsdk/libs/libpwrmgr.a(pwrmgr.o)
 .data.mcu_commands
                0x00000000       0x24 /home/zhouyongjian/wangshi/wmsdk_bundle-3.1.16/bin/wmsdk/libs/libpwrmgr.a(pwrmgr.o)
 .bss.init_done
                0x00000000        0x1 /home/zhouyongjian/wangshi/wmsdk_bundle-3.1.16/bin/wmsdk/libs/libpwrmgr.a(pwrmgr.o)
 .data.commands
                0x00000000        0xc /home/zhouyongjian/wangshi/wmsdk_bundle-3.1.16/bin/wmsdk/libs/libpwrmgr.a(pwrmgr.o)
 .bss.wakelock  0x00000000        0x4 /home/zhouyongjian/wangshi/wmsdk_bundle-3.1.16/bin/wmsdk/libs/libpwrmgr.a(pwrmgr.o)
 .bss.ps_cb_list
                0x00000000       0x78 /home/zhouyongjian/wangshi/wmsdk_bundle-3.1.16/bin/wmsdk/libs/libpwrmgr.a(pwrmgr.o)
 .rodata.str1.1
                0x00000000      0x45e /home/zhouyongjian/wangshi/wmsdk_bundle-3.1.16/bin/wmsdk/libs/libpwrmgr.a(pwrmgr.o)
 .debug_info    0x00000000     0x10d0 /home/zhouyongjian/wangshi/wmsdk_bundle-3.1.16/bin/wmsdk/libs/libpwrmgr.a(pwrmgr.o)
 .debug_abbrev  0x00000000      0x453 /home/zhouyongjian/wangshi/wmsdk_bundle-3.1.16/bin/wmsdk/libs/libpwrmgr.a(pwrmgr.o)
 .debug_loc     0x00000000      0x6f1 /home/zhouyongjian/wangshi/wmsdk_bundle-3.1.16/bin/wmsdk/libs/libpwrmgr.a(pwrmgr.o)
 .debug_aranges
                0x00000000       0xc8 /home/zhouyongjian/wangshi/wmsdk_bundle-3.1.16/bin/wmsdk/libs/libpwrmgr.a(pwrmgr.o)
 .debug_ranges  0x00000000       0xe8 /home/zhouyongjian/wangshi/wmsdk_bundle-3.1.16/bin/wmsdk/libs/libpwrmgr.a(pwrmgr.o)
 .debug_line    0x00000000      0x558 /home/zhouyongjian/wangshi/wmsdk_bundle-3.1.16/bin/wmsdk/libs/libpwrmgr.a(pwrmgr.o)
 .debug_str     0x00000000      0x874 /home/zhouyongjian/wangshi/wmsdk_bundle-3.1.16/bin/wmsdk/libs/libpwrmgr.a(pwrmgr.o)
 .comment       0x00000000       0x71 /home/zhouyongjian/wangshi/wmsdk_bundle-3.1.16/bin/wmsdk/libs/libpwrmgr.a(pwrmgr.o)
 .ARM.attributes
                0x00000000       0x33 /home/zhouyongjian/wangshi/wmsdk_bundle-3.1.16/bin/wmsdk/libs/libpwrmgr.a(pwrmgr.o)
 .debug_frame   0x00000000      0x224 /home/zhouyongjian/wangshi/wmsdk_bundle-3.1.16/bin/wmsdk/libs/libpwrmgr.a(pwrmgr.o)
 .text          0x00000000        0x0 /home/zhouyongjian/wangshi/wmsdk_bundle-3.1.16/bin/wmsdk/libs/libutil.a(boot_flags.o)
 .data          0x00000000        0x0 /home/zhouyongjian/wangshi/wmsdk_bundle-3.1.16/bin/wmsdk/libs/libutil.a(boot_flags.o)
 .bss           0x00000000        0x0 /home/zhouyongjian/wangshi/wmsdk_bundle-3.1.16/bin/wmsdk/libs/libutil.a(boot_flags.o)
 .text.boot_report_flags
                0x00000000       0xcc /home/zhouyongjian/wangshi/wmsdk_bundle-3.1.16/bin/wmsdk/libs/libutil.a(boot_flags.o)
 .rodata.str1.1
                0x00000000      0x18c /home/zhouyongjian/wangshi/wmsdk_bundle-3.1.16/bin/wmsdk/libs/libutil.a(boot_flags.o)
 .text          0x00000000        0x0 /home/zhouyongjian/wangshi/wmsdk_bundle-3.1.16/bin/wmsdk/libs/libutil.a(critical_error.o)
 .data          0x00000000        0x0 /home/zhouyongjian/wangshi/wmsdk_bundle-3.1.16/bin/wmsdk/libs/libutil.a(critical_error.o)
 .bss           0x00000000        0x0 /home/zhouyongjian/wangshi/wmsdk_bundle-3.1.16/bin/wmsdk/libs/libutil.a(critical_error.o)
 .text.critical_error_msg
                0x00000000       0x20 /home/zhouyongjian/wangshi/wmsdk_bundle-3.1.16/bin/wmsdk/libs/libutil.a(critical_error.o)
 .rodata.CSWTCH.2
                0x00000000       0x10 /home/zhouyongjian/wangshi/wmsdk_bundle-3.1.16/bin/wmsdk/libs/libutil.a(critical_error.o)
 .text          0x00000000        0x0 /home/zhouyongjian/wangshi/wmsdk_bundle-3.1.16/bin/wmsdk/libs/libwmstdio.a(wmstdio.o)
 .data          0x00000000        0x0 /home/zhouyongjian/wangshi/wmsdk_bundle-3.1.16/bin/wmsdk/libs/libwmstdio.a(wmstdio.o)
 .bss           0x00000000        0x0 /home/zhouyongjian/wangshi/wmsdk_bundle-3.1.16/bin/wmsdk/libs/libwmstdio.a(wmstdio.o)
 .text.wmstdio_putchar
                0x00000000       0x20 /home/zhouyongjian/wangshi/wmsdk_bundle-3.1.16/bin/wmsdk/libs/libwmstdio.a(wmstdio.o)
 .text.wmstdio_flush
                0x00000000       0x18 /home/zhouyongjian/wangshi/wmsdk_bundle-3.1.16/bin/wmsdk/libs/libwmstdio.a(wmstdio.o)
 .text.wmstdio_getchar
                0x00000000       0x18 /home/zhouyongjian/wangshi/wmsdk_bundle-3.1.16/bin/wmsdk/libs/libwmstdio.a(wmstdio.o)
 .text.wmstdio_getconsole_port
                0x00000000        0x4 /home/zhouyongjian/wangshi/wmsdk_bundle-3.1.16/bin/wmsdk/libs/libwmstdio.a(wmstdio.o)
 .text.wmstdio_init
                0x00000000       0x3c /home/zhouyongjian/wangshi/wmsdk_bundle-3.1.16/bin/wmsdk/libs/libwmstdio.a(wmstdio.o)
 .text.__console_wmprintf
                0x00000000       0x3c /home/zhouyongjian/wangshi/wmsdk_bundle-3.1.16/bin/wmsdk/libs/libwmstdio.a(wmstdio.o)
 .bss.init_done.13540
                0x00000000        0x1 /home/zhouyongjian/wangshi/wmsdk_bundle-3.1.16/bin/wmsdk/libs/libwmstdio.a(wmstdio.o)
 .text          0x00000000        0x0 /home/zhouyongjian/wangshi/wmsdk_bundle-3.1.16/bin/wmsdk/libs/libwmstdio.a(console.o)
 .data          0x00000000        0x0 /home/zhouyongjian/wangshi/wmsdk_bundle-3.1.16/bin/wmsdk/libs/libwmstdio.a(console.o)
 .bss           0x00000000        0x0 /home/zhouyongjian/wangshi/wmsdk_bundle-3.1.16/bin/wmsdk/libs/libwmstdio.a(console.o)
 .text.serial_console_printf
                0x00000000       0x24 /home/zhouyongjian/wangshi/wmsdk_bundle-3.1.16/bin/wmsdk/libs/libwmstdio.a(console.o)
 .text.serial_console_putchar
                0x00000000       0x14 /home/zhouyongjian/wangshi/wmsdk_bundle-3.1.16/bin/wmsdk/libs/libwmstdio.a(console.o)
 .text.serial_console_flush
                0x00000000       0x14 /home/zhouyongjian/wangshi/wmsdk_bundle-3.1.16/bin/wmsdk/libs/libwmstdio.a(console.o)
 .text.serial_console_getchar
                0x00000000       0x10 /home/zhouyongjian/wangshi/wmsdk_bundle-3.1.16/bin/wmsdk/libs/libwmstdio.a(console.o)
 .text.serial_console_init
                0x00000000       0x20 /home/zhouyongjian/wangshi/wmsdk_bundle-3.1.16/bin/wmsdk/libs/libwmstdio.a(console.o)
 .data.serial_console_funcs
                0x00000000       0x10 /home/zhouyongjian/wangshi/wmsdk_bundle-3.1.16/bin/wmsdk/libs/libwmstdio.a(console.o)
 .text          0x00000000        0x0 /home/zhouyongjian/wangshi/wmsdk_bundle-3.1.16/bin/wmsdk/libs/libwmtime.a(hwrtc.o)
 .data          0x00000000        0x0 /home/zhouyongjian/wangshi/wmsdk_bundle-3.1.16/bin/wmsdk/libs/libwmtime.a(hwrtc.o)
 .bss           0x00000000        0x0 /home/zhouyongjian/wangshi/wmsdk_bundle-3.1.16/bin/wmsdk/libs/libwmtime.a(hwrtc.o)
 .text.hwrtc_cb
                0x00000000       0x40 /home/zhouyongjian/wangshi/wmsdk_bundle-3.1.16/bin/wmsdk/libs/libwmtime.a(hwrtc.o)
 .text.hwrtc_time_update
                0x00000000       0x38 /home/zhouyongjian/wangshi/wmsdk_bundle-3.1.16/bin/wmsdk/libs/libwmtime.a(hwrtc.o)
 .text.hwrtc_init
                0x00000000       0x64 /home/zhouyongjian/wangshi/wmsdk_bundle-3.1.16/bin/wmsdk/libs/libwmtime.a(hwrtc.o)
 .text.hwrtc_time_set
                0x00000000       0x24 /home/zhouyongjian/wangshi/wmsdk_bundle-3.1.16/bin/wmsdk/libs/libwmtime.a(hwrtc.o)
 .text.hwrtc_time_get
                0x00000000       0x28 /home/zhouyongjian/wangshi/wmsdk_bundle-3.1.16/bin/wmsdk/libs/libwmtime.a(hwrtc.o)
 .bss.hwrtc_init_flag
                0x00000000        0x4 /home/zhouyongjian/wangshi/wmsdk_bundle-3.1.16/bin/wmsdk/libs/libwmtime.a(hwrtc.o)
 .data.tcalib   0x00000000        0x1 /home/zhouyongjian/wangshi/wmsdk_bundle-3.1.16/bin/wmsdk/libs/libwmtime.a(hwrtc.o)
 .bss.rtc_dev   0x00000000        0x4 /home/zhouyongjian/wangshi/wmsdk_bundle-3.1.16/bin/wmsdk/libs/libwmtime.a(hwrtc.o)
 .rodata.str1.1
                0x00000000        0x9 /home/zhouyongjian/wangshi/wmsdk_bundle-3.1.16/bin/wmsdk/libs/libwmtime.a(hwrtc.o)
 .nvram_uninit  0x00000000       0x10 /home/zhouyongjian/wangshi/wmsdk_bundle-3.1.16/bin/wmsdk/libs/libwmtime.a(hwrtc.o)
 .debug_info    0x00000000      0x361 /home/zhouyongjian/wangshi/wmsdk_bundle-3.1.16/bin/wmsdk/libs/libwmtime.a(hwrtc.o)
 .debug_abbrev  0x00000000      0x19f /home/zhouyongjian/wangshi/wmsdk_bundle-3.1.16/bin/wmsdk/libs/libwmtime.a(hwrtc.o)
 .debug_loc     0x00000000       0x2c /home/zhouyongjian/wangshi/wmsdk_bundle-3.1.16/bin/wmsdk/libs/libwmtime.a(hwrtc.o)
 .debug_aranges
                0x00000000       0x40 /home/zhouyongjian/wangshi/wmsdk_bundle-3.1.16/bin/wmsdk/libs/libwmtime.a(hwrtc.o)
 .debug_ranges  0x00000000       0x30 /home/zhouyongjian/wangshi/wmsdk_bundle-3.1.16/bin/wmsdk/libs/libwmtime.a(hwrtc.o)
 .debug_line    0x00000000      0x24d /home/zhouyongjian/wangshi/wmsdk_bundle-3.1.16/bin/wmsdk/libs/libwmtime.a(hwrtc.o)
 .debug_str     0x00000000      0x31b /home/zhouyongjian/wangshi/wmsdk_bundle-3.1.16/bin/wmsdk/libs/libwmtime.a(hwrtc.o)
 .comment       0x00000000       0x71 /home/zhouyongjian/wangshi/wmsdk_bundle-3.1.16/bin/wmsdk/libs/libwmtime.a(hwrtc.o)
 .ARM.attributes
                0x00000000       0x33 /home/zhouyongjian/wangshi/wmsdk_bundle-3.1.16/bin/wmsdk/libs/libwmtime.a(hwrtc.o)
 .debug_frame   0x00000000       0x98 /home/zhouyongjian/wangshi/wmsdk_bundle-3.1.16/bin/wmsdk/libs/libwmtime.a(hwrtc.o)
 .text          0x00000000        0x0 obj/board.o
 .data          0x00000000        0x0 obj/board.o
 .bss           0x00000000        0x0 obj/board.o
 .text.board_console_uart_id
                0x00000000        0x4 obj/board.o
 .text.board_main_osc
                0x00000000        0x6 obj/board.o
 .text.board_32k_xtal
                0x00000000        0x4 obj/board.o
 .text.board_32k_osc
                0x00000000        0x4 obj/board.o
 .text.board_rc32k_calib
                0x00000000        0x4 obj/board.o
 .text.board_sdio_pdn
                0x00000000        0x2 obj/board.o
 .text.board_sdio_pwr
                0x00000000        0x2 obj/board.o
 .text.board_sdio_reset
                0x00000000       0x12 obj/board.o
 .text.board_sdio_pdn_support
                0x00000000        0x4 obj/board.o
 .text.board_button_pressed
                0x00000000       0x24 obj/board.o
 .text.board_uart_pin_config
                0x00000000       0x3e obj/board.o
 .text.board_supports_5GHz
                0x00000000        0x4 obj/board.o
 .text.board_i2c_pin_config
                0x00000000       0x2a obj/board.o
 .text.board_usb_pin_config
                0x00000000        0x2 obj/board.o
 .text.board_ssp_pin_config
                0x00000000        0x2 obj/board.o
 .text.board_led_1
                0x00000000        0xa obj/board.o
 .text.board_led_2
                0x00000000        0xa obj/board.o
 .text.board_led_3
                0x00000000        0xc obj/board.o
 .text.board_led_4
                0x00000000        0xc obj/board.o
 .text.board_led_on
                0x00000000        0xe obj/board.o
 .text.board_led_off
                0x00000000        0xe obj/board.o
 .text.board_button_1
                0x00000000       0x66 obj/board.o
 .text.board_button_2
                0x00000000        0xe obj/board.o
 .text.board_button_3
                0x00000000        0xe obj/board.o
 .text.board_wifi_host_wakeup
                0x00000000        0x4 obj/board.o
 .text.board_wakeup0_functional
                0x00000000        0x4 obj/board.o
 .text.board_wakeup1_functional
                0x00000000        0x4 obj/board.o
 .text.led_on_off
                0x00000000       0x46 obj/board.o
 .text          0x00000000        0x0 obj/electric_measure.o
 .data          0x00000000        0x0 obj/electric_measure.o
 .bss           0x00000000        0x0 obj/electric_measure.o
 .text.Save_AllData_Flash
                0x00000000      0x104 obj/electric_measure.o
 .text          0x00000000        0x0 obj/C_HLW8012_debug.o
 .data          0x00000000        0x0 obj/C_HLW8012_debug.o
 .bss           0x00000000        0x0 obj/C_HLW8012_debug.o
 .text.HLW8012_Measure
                0x00000000       0x1a obj/C_HLW8012_debug.o
 .bss.U16_Cal_Times
                0x00000000        0x4 obj/C_HLW8012_debug.o
 .bss.U32_SaveTimes
                0x00000000        0x4 obj/C_HLW8012_debug.o
 .text          0x00000000        0x0 /home/zhouyongjian/wangshi/wmsdk_bundle-3.1.16/bin/wmsdk/libs/libc.a(atoi.o)
 .data          0x00000000        0x0 /home/zhouyongjian/wangshi/wmsdk_bundle-3.1.16/bin/wmsdk/libs/libc.a(atoi.o)
 .bss           0x00000000        0x0 /home/zhouyongjian/wangshi/wmsdk_bundle-3.1.16/bin/wmsdk/libs/libc.a(atoi.o)
 .text.atoi     0x00000000       0x10 /home/zhouyongjian/wangshi/wmsdk_bundle-3.1.16/bin/wmsdk/libs/libc.a(atoi.o)
 .debug_info    0x00000000      0x10b /home/zhouyongjian/wangshi/wmsdk_bundle-3.1.16/bin/wmsdk/libs/libc.a(atoi.o)
 .debug_abbrev  0x00000000       0xa5 /home/zhouyongjian/wangshi/wmsdk_bundle-3.1.16/bin/wmsdk/libs/libc.a(atoi.o)
 .debug_loc     0x00000000       0x21 /home/zhouyongjian/wangshi/wmsdk_bundle-3.1.16/bin/wmsdk/libs/libc.a(atoi.o)
 .debug_aranges
                0x00000000       0x20 /home/zhouyongjian/wangshi/wmsdk_bundle-3.1.16/bin/wmsdk/libs/libc.a(atoi.o)
 .debug_ranges  0x00000000       0x10 /home/zhouyongjian/wangshi/wmsdk_bundle-3.1.16/bin/wmsdk/libs/libc.a(atoi.o)
 .debug_line    0x00000000       0xa1 /home/zhouyongjian/wangshi/wmsdk_bundle-3.1.16/bin/wmsdk/libs/libc.a(atoi.o)
 .debug_str     0x00000000      0x1a2 /home/zhouyongjian/wangshi/wmsdk_bundle-3.1.16/bin/wmsdk/libs/libc.a(atoi.o)
 .comment       0x00000000       0x71 /home/zhouyongjian/wangshi/wmsdk_bundle-3.1.16/bin/wmsdk/libs/libc.a(atoi.o)
 .ARM.attributes
                0x00000000       0x33 /home/zhouyongjian/wangshi/wmsdk_bundle-3.1.16/bin/wmsdk/libs/libc.a(atoi.o)
 .debug_frame   0x00000000       0x28 /home/zhouyongjian/wangshi/wmsdk_bundle-3.1.16/bin/wmsdk/libs/libc.a(atoi.o)
 .text          0x00000000        0x0 /home/zhouyongjian/wangshi/wmsdk_bundle-3.1.16/bin/wmsdk/libs/libc.a(memcmp.o)
 .data          0x00000000        0x0 /home/zhouyongjian/wangshi/wmsdk_bundle-3.1.16/bin/wmsdk/libs/libc.a(memcmp.o)
 .bss           0x00000000        0x0 /home/zhouyongjian/wangshi/wmsdk_bundle-3.1.16/bin/wmsdk/libs/libc.a(memcmp.o)
 .text          0x00000000        0x0 /home/zhouyongjian/wangshi/wmsdk_bundle-3.1.16/bin/wmsdk/libs/libc.a(snprintf.o)
 .data          0x00000000        0x0 /home/zhouyongjian/wangshi/wmsdk_bundle-3.1.16/bin/wmsdk/libs/libc.a(snprintf.o)
 .bss           0x00000000        0x0 /home/zhouyongjian/wangshi/wmsdk_bundle-3.1.16/bin/wmsdk/libs/libc.a(snprintf.o)
 .text.snprintf
                0x00000000       0x1a /home/zhouyongjian/wangshi/wmsdk_bundle-3.1.16/bin/wmsdk/libs/libc.a(snprintf.o)
 .debug_info    0x00000000      0x129 /home/zhouyongjian/wangshi/wmsdk_bundle-3.1.16/bin/wmsdk/libs/libc.a(snprintf.o)
 .debug_abbrev  0x00000000       0xf8 /home/zhouyongjian/wangshi/wmsdk_bundle-3.1.16/bin/wmsdk/libs/libc.a(snprintf.o)
 .debug_loc     0x00000000       0x42 /home/zhouyongjian/wangshi/wmsdk_bundle-3.1.16/bin/wmsdk/libs/libc.a(snprintf.o)
 .debug_aranges
                0x00000000       0x20 /home/zhouyongjian/wangshi/wmsdk_bundle-3.1.16/bin/wmsdk/libs/libc.a(snprintf.o)
 .debug_ranges  0x00000000       0x10 /home/zhouyongjian/wangshi/wmsdk_bundle-3.1.16/bin/wmsdk/libs/libc.a(snprintf.o)
 .debug_line    0x00000000      0x11c /home/zhouyongjian/wangshi/wmsdk_bundle-3.1.16/bin/wmsdk/libs/libc.a(snprintf.o)
 .debug_str     0x00000000      0x169 /home/zhouyongjian/wangshi/wmsdk_bundle-3.1.16/bin/wmsdk/libs/libc.a(snprintf.o)
 .comment       0x00000000       0x71 /home/zhouyongjian/wangshi/wmsdk_bundle-3.1.16/bin/wmsdk/libs/libc.a(snprintf.o)
 .ARM.attributes
                0x00000000       0x33 /home/zhouyongjian/wangshi/wmsdk_bundle-3.1.16/bin/wmsdk/libs/libc.a(snprintf.o)
 .debug_frame   0x00000000       0x34 /home/zhouyongjian/wangshi/wmsdk_bundle-3.1.16/bin/wmsdk/libs/libc.a(snprintf.o)
 .text          0x00000000        0x0 /home/zhouyongjian/wangshi/wmsdk_bundle-3.1.16/bin/wmsdk/libs/libc.a(sprintf.o)
 .data          0x00000000        0x0 /home/zhouyongjian/wangshi/wmsdk_bundle-3.1.16/bin/wmsdk/libs/libc.a(sprintf.o)
 .bss           0x00000000        0x0 /home/zhouyongjian/wangshi/wmsdk_bundle-3.1.16/bin/wmsdk/libs/libc.a(sprintf.o)
 .text.sprintf  0x00000000       0x1e /home/zhouyongjian/wangshi/wmsdk_bundle-3.1.16/bin/wmsdk/libs/libc.a(sprintf.o)
 .debug_info    0x00000000      0x11b /home/zhouyongjian/wangshi/wmsdk_bundle-3.1.16/bin/wmsdk/libs/libc.a(sprintf.o)
 .debug_abbrev  0x00000000       0xe9 /home/zhouyongjian/wangshi/wmsdk_bundle-3.1.16/bin/wmsdk/libs/libc.a(sprintf.o)
 .debug_loc     0x00000000       0x21 /home/zhouyongjian/wangshi/wmsdk_bundle-3.1.16/bin/wmsdk/libs/libc.a(sprintf.o)
 .debug_aranges
                0x00000000       0x20 /home/zhouyongjian/wangshi/wmsdk_bundle-3.1.16/bin/wmsdk/libs/libc.a(sprintf.o)
 .debug_ranges  0x00000000       0x10 /home/zhouyongjian/wangshi/wmsdk_bundle-3.1.16/bin/wmsdk/libs/libc.a(sprintf.o)
 .debug_line    0x00000000      0x11d /home/zhouyongjian/wangshi/wmsdk_bundle-3.1.16/bin/wmsdk/libs/libc.a(sprintf.o)
 .debug_str     0x00000000      0x167 /home/zhouyongjian/wangshi/wmsdk_bundle-3.1.16/bin/wmsdk/libs/libc.a(sprintf.o)
 .comment       0x00000000       0x71 /home/zhouyongjian/wangshi/wmsdk_bundle-3.1.16/bin/wmsdk/libs/libc.a(sprintf.o)
 .ARM.attributes
                0x00000000       0x33 /home/zhouyongjian/wangshi/wmsdk_bundle-3.1.16/bin/wmsdk/libs/libc.a(sprintf.o)
 .debug_frame   0x00000000       0x34 /home/zhouyongjian/wangshi/wmsdk_bundle-3.1.16/bin/wmsdk/libs/libc.a(sprintf.o)
 .text          0x00000000        0x0 /home/zhouyongjian/wangshi/wmsdk_bundle-3.1.16/bin/wmsdk/libs/libc.a(sscanf.o)
 .data          0x00000000        0x0 /home/zhouyongjian/wangshi/wmsdk_bundle-3.1.16/bin/wmsdk/libs/libc.a(sscanf.o)
 .bss           0x00000000        0x0 /home/zhouyongjian/wangshi/wmsdk_bundle-3.1.16/bin/wmsdk/libs/libc.a(sscanf.o)
 .text.sscanf   0x00000000       0x1a /home/zhouyongjian/wangshi/wmsdk_bundle-3.1.16/bin/wmsdk/libs/libc.a(sscanf.o)
 .debug_info    0x00000000       0xff /home/zhouyongjian/wangshi/wmsdk_bundle-3.1.16/bin/wmsdk/libs/libc.a(sscanf.o)
 .debug_abbrev  0x00000000       0xe9 /home/zhouyongjian/wangshi/wmsdk_bundle-3.1.16/bin/wmsdk/libs/libc.a(sscanf.o)
 .debug_loc     0x00000000       0x21 /home/zhouyongjian/wangshi/wmsdk_bundle-3.1.16/bin/wmsdk/libs/libc.a(sscanf.o)
 .debug_aranges
                0x00000000       0x20 /home/zhouyongjian/wangshi/wmsdk_bundle-3.1.16/bin/wmsdk/libs/libc.a(sscanf.o)
 .debug_ranges  0x00000000       0x10 /home/zhouyongjian/wangshi/wmsdk_bundle-3.1.16/bin/wmsdk/libs/libc.a(sscanf.o)
 .debug_line    0x00000000      0x10e /home/zhouyongjian/wangshi/wmsdk_bundle-3.1.16/bin/wmsdk/libs/libc.a(sscanf.o)
 .debug_str     0x00000000      0x155 /home/zhouyongjian/wangshi/wmsdk_bundle-3.1.16/bin/wmsdk/libs/libc.a(sscanf.o)
 .comment       0x00000000       0x71 /home/zhouyongjian/wangshi/wmsdk_bundle-3.1.16/bin/wmsdk/libs/libc.a(sscanf.o)
 .ARM.attributes
                0x00000000       0x33 /home/zhouyongjian/wangshi/wmsdk_bundle-3.1.16/bin/wmsdk/libs/libc.a(sscanf.o)
 .debug_frame   0x00000000       0x34 /home/zhouyongjian/wangshi/wmsdk_bundle-3.1.16/bin/wmsdk/libs/libc.a(sscanf.o)
 .text          0x00000000        0x0 /home/zhouyongjian/wangshi/wmsdk_bundle-3.1.16/bin/wmsdk/libs/libc.a(vsnprintf.o)
 .data          0x00000000        0x0 /home/zhouyongjian/wangshi/wmsdk_bundle-3.1.16/bin/wmsdk/libs/libc.a(vsnprintf.o)
 .bss           0x00000000        0x0 /home/zhouyongjian/wangshi/wmsdk_bundle-3.1.16/bin/wmsdk/libs/libc.a(vsnprintf.o)
 .text          0x00000000        0x0 /home/zhouyongjian/wangshi/wmsdk_bundle-3.1.16/bin/wmsdk/libs/libc.a(vsscanf.o)
 .data          0x00000000        0x0 /home/zhouyongjian/wangshi/wmsdk_bundle-3.1.16/bin/wmsdk/libs/libc.a(vsscanf.o)
 .bss           0x00000000        0x0 /home/zhouyongjian/wangshi/wmsdk_bundle-3.1.16/bin/wmsdk/libs/libc.a(vsscanf.o)
 .text.set_bit  0x00000000       0x18 /home/zhouyongjian/wangshi/wmsdk_bundle-3.1.16/bin/wmsdk/libs/libc.a(vsscanf.o)
 .text.vsscanf  0x00000000      0x410 /home/zhouyongjian/wangshi/wmsdk_bundle-3.1.16/bin/wmsdk/libs/libc.a(vsscanf.o)
 .debug_info    0x00000000      0x6ae /home/zhouyongjian/wangshi/wmsdk_bundle-3.1.16/bin/wmsdk/libs/libc.a(vsscanf.o)
 .debug_abbrev  0x00000000      0x281 /home/zhouyongjian/wangshi/wmsdk_bundle-3.1.16/bin/wmsdk/libs/libc.a(vsscanf.o)
 .debug_loc     0x00000000      0xc42 /home/zhouyongjian/wangshi/wmsdk_bundle-3.1.16/bin/wmsdk/libs/libc.a(vsscanf.o)
 .debug_aranges
                0x00000000       0x28 /home/zhouyongjian/wangshi/wmsdk_bundle-3.1.16/bin/wmsdk/libs/libc.a(vsscanf.o)
 .debug_ranges  0x00000000       0x60 /home/zhouyongjian/wangshi/wmsdk_bundle-3.1.16/bin/wmsdk/libs/libc.a(vsscanf.o)
 .debug_line    0x00000000      0x2e6 /home/zhouyongjian/wangshi/wmsdk_bundle-3.1.16/bin/wmsdk/libs/libc.a(vsscanf.o)
 .debug_str     0x00000000      0x3fb /home/zhouyongjian/wangshi/wmsdk_bundle-3.1.16/bin/wmsdk/libs/libc.a(vsscanf.o)
 .comment       0x00000000       0x71 /home/zhouyongjian/wangshi/wmsdk_bundle-3.1.16/bin/wmsdk/libs/libc.a(vsscanf.o)
 .ARM.attributes
                0x00000000       0x33 /home/zhouyongjian/wangshi/wmsdk_bundle-3.1.16/bin/wmsdk/libs/libc.a(vsscanf.o)
 .debug_frame   0x00000000       0x48 /home/zhouyongjian/wangshi/wmsdk_bundle-3.1.16/bin/wmsdk/libs/libc.a(vsscanf.o)
 .text          0x00000000        0x0 /home/zhouyongjian/wangshi/wmsdk_bundle-3.1.16/bin/wmsdk/libs/libc.a(strcmp.o)
 .data          0x00000000        0x0 /home/zhouyongjian/wangshi/wmsdk_bundle-3.1.16/bin/wmsdk/libs/libc.a(strcmp.o)
 .bss           0x00000000        0x0 /home/zhouyongjian/wangshi/wmsdk_bundle-3.1.16/bin/wmsdk/libs/libc.a(strcmp.o)
 .text          0x00000000        0x0 /home/zhouyongjian/wangshi/wmsdk_bundle-3.1.16/bin/wmsdk/libs/libc.a(strncmp.o)
 .data          0x00000000        0x0 /home/zhouyongjian/wangshi/wmsdk_bundle-3.1.16/bin/wmsdk/libs/libc.a(strncmp.o)
 .bss           0x00000000        0x0 /home/zhouyongjian/wangshi/wmsdk_bundle-3.1.16/bin/wmsdk/libs/libc.a(strncmp.o)
 .text.strncmp  0x00000000       0x1e /home/zhouyongjian/wangshi/wmsdk_bundle-3.1.16/bin/wmsdk/libs/libc.a(strncmp.o)
 .debug_info    0x00000000       0xdb /home/zhouyongjian/wangshi/wmsdk_bundle-3.1.16/bin/wmsdk/libs/libc.a(strncmp.o)
 .debug_abbrev  0x00000000       0x90 /home/zhouyongjian/wangshi/wmsdk_bundle-3.1.16/bin/wmsdk/libs/libc.a(strncmp.o)
 .debug_loc     0x00000000      0x125 /home/zhouyongjian/wangshi/wmsdk_bundle-3.1.16/bin/wmsdk/libs/libc.a(strncmp.o)
 .debug_aranges
                0x00000000       0x20 /home/zhouyongjian/wangshi/wmsdk_bundle-3.1.16/bin/wmsdk/libs/libc.a(strncmp.o)
 .debug_ranges  0x00000000       0x10 /home/zhouyongjian/wangshi/wmsdk_bundle-3.1.16/bin/wmsdk/libs/libc.a(strncmp.o)
 .debug_line    0x00000000       0x99 /home/zhouyongjian/wangshi/wmsdk_bundle-3.1.16/bin/wmsdk/libs/libc.a(strncmp.o)
 .debug_str     0x00000000      0x137 /home/zhouyongjian/wangshi/wmsdk_bundle-3.1.16/bin/wmsdk/libs/libc.a(strncmp.o)
 .comment       0x00000000       0x71 /home/zhouyongjian/wangshi/wmsdk_bundle-3.1.16/bin/wmsdk/libs/libc.a(strncmp.o)
 .ARM.attributes
                0x00000000       0x33 /home/zhouyongjian/wangshi/wmsdk_bundle-3.1.16/bin/wmsdk/libs/libc.a(strncmp.o)
 .debug_frame   0x00000000       0x2c /home/zhouyongjian/wangshi/wmsdk_bundle-3.1.16/bin/wmsdk/libs/libc.a(strncmp.o)
 .text          0x00000000        0x0 /home/zhouyongjian/wangshi/wmsdk_bundle-3.1.16/bin/wmsdk/libs/libc.a(strncpy.o)
 .data          0x00000000        0x0 /home/zhouyongjian/wangshi/wmsdk_bundle-3.1.16/bin/wmsdk/libs/libc.a(strncpy.o)
 .bss           0x00000000        0x0 /home/zhouyongjian/wangshi/wmsdk_bundle-3.1.16/bin/wmsdk/libs/libc.a(strncpy.o)
 .text          0x00000000        0x0 /home/zhouyongjian/wangshi/wmsdk_bundle-3.1.16/bin/wmsdk/libs/libc.a(strcat.o)
 .data          0x00000000        0x0 /home/zhouyongjian/wangshi/wmsdk_bundle-3.1.16/bin/wmsdk/libs/libc.a(strcat.o)
 .bss           0x00000000        0x0 /home/zhouyongjian/wangshi/wmsdk_bundle-3.1.16/bin/wmsdk/libs/libc.a(strcat.o)
 .text.strcat   0x00000000       0x16 /home/zhouyongjian/wangshi/wmsdk_bundle-3.1.16/bin/wmsdk/libs/libc.a(strcat.o)
 .debug_info    0x00000000       0xdd /home/zhouyongjian/wangshi/wmsdk_bundle-3.1.16/bin/wmsdk/libs/libc.a(strcat.o)
 .debug_abbrev  0x00000000       0xb8 /home/zhouyongjian/wangshi/wmsdk_bundle-3.1.16/bin/wmsdk/libs/libc.a(strcat.o)
 .debug_loc     0x00000000       0x3c /home/zhouyongjian/wangshi/wmsdk_bundle-3.1.16/bin/wmsdk/libs/libc.a(strcat.o)
 .debug_aranges
                0x00000000       0x20 /home/zhouyongjian/wangshi/wmsdk_bundle-3.1.16/bin/wmsdk/libs/libc.a(strcat.o)
 .debug_ranges  0x00000000       0x10 /home/zhouyongjian/wangshi/wmsdk_bundle-3.1.16/bin/wmsdk/libs/libc.a(strcat.o)
 .debug_line    0x00000000       0x8a /home/zhouyongjian/wangshi/wmsdk_bundle-3.1.16/bin/wmsdk/libs/libc.a(strcat.o)
 .debug_str     0x00000000      0x12e /home/zhouyongjian/wangshi/wmsdk_bundle-3.1.16/bin/wmsdk/libs/libc.a(strcat.o)
 .comment       0x00000000       0x71 /home/zhouyongjian/wangshi/wmsdk_bundle-3.1.16/bin/wmsdk/libs/libc.a(strcat.o)
 .ARM.attributes
                0x00000000       0x33 /home/zhouyongjian/wangshi/wmsdk_bundle-3.1.16/bin/wmsdk/libs/libc.a(strcat.o)
 .debug_frame   0x00000000       0x2c /home/zhouyongjian/wangshi/wmsdk_bundle-3.1.16/bin/wmsdk/libs/libc.a(strcat.o)
 .text          0x00000000        0x0 /home/zhouyongjian/wangshi/wmsdk_bundle-3.1.16/bin/wmsdk/libs/libc.a(strlen.o)
 .data          0x00000000        0x0 /home/zhouyongjian/wangshi/wmsdk_bundle-3.1.16/bin/wmsdk/libs/libc.a(strlen.o)
 .bss           0x00000000        0x0 /home/zhouyongjian/wangshi/wmsdk_bundle-3.1.16/bin/wmsdk/libs/libc.a(strlen.o)
 .text          0x00000000        0x0 /home/zhouyongjian/wangshi/wmsdk_bundle-3.1.16/bin/wmsdk/libs/libc.a(strchr.o)
 .data          0x00000000        0x0 /home/zhouyongjian/wangshi/wmsdk_bundle-3.1.16/bin/wmsdk/libs/libc.a(strchr.o)
 .bss           0x00000000        0x0 /home/zhouyongjian/wangshi/wmsdk_bundle-3.1.16/bin/wmsdk/libs/libc.a(strchr.o)
 .text.strchr   0x00000000       0x1a /home/zhouyongjian/wangshi/wmsdk_bundle-3.1.16/bin/wmsdk/libs/libc.a(strchr.o)
 .debug_info    0x00000000       0x7e /home/zhouyongjian/wangshi/wmsdk_bundle-3.1.16/bin/wmsdk/libs/libc.a(strchr.o)
 .debug_abbrev  0x00000000       0x74 /home/zhouyongjian/wangshi/wmsdk_bundle-3.1.16/bin/wmsdk/libs/libc.a(strchr.o)
 .debug_loc     0x00000000       0x29 /home/zhouyongjian/wangshi/wmsdk_bundle-3.1.16/bin/wmsdk/libs/libc.a(strchr.o)
 .debug_aranges
                0x00000000       0x20 /home/zhouyongjian/wangshi/wmsdk_bundle-3.1.16/bin/wmsdk/libs/libc.a(strchr.o)
 .debug_ranges  0x00000000       0x10 /home/zhouyongjian/wangshi/wmsdk_bundle-3.1.16/bin/wmsdk/libs/libc.a(strchr.o)
 .debug_line    0x00000000       0x3e /home/zhouyongjian/wangshi/wmsdk_bundle-3.1.16/bin/wmsdk/libs/libc.a(strchr.o)
 .debug_str     0x00000000      0x120 /home/zhouyongjian/wangshi/wmsdk_bundle-3.1.16/bin/wmsdk/libs/libc.a(strchr.o)
 .comment       0x00000000       0x71 /home/zhouyongjian/wangshi/wmsdk_bundle-3.1.16/bin/wmsdk/libs/libc.a(strchr.o)
 .ARM.attributes
                0x00000000       0x33 /home/zhouyongjian/wangshi/wmsdk_bundle-3.1.16/bin/wmsdk/libs/libc.a(strchr.o)
 .debug_frame   0x00000000       0x28 /home/zhouyongjian/wangshi/wmsdk_bundle-3.1.16/bin/wmsdk/libs/libc.a(strchr.o)
 .text          0x00000000        0x0 /home/zhouyongjian/wangshi/wmsdk_bundle-3.1.16/bin/wmsdk/libs/libc.a(strstr.o)
 .data          0x00000000        0x0 /home/zhouyongjian/wangshi/wmsdk_bundle-3.1.16/bin/wmsdk/libs/libc.a(strstr.o)
 .bss           0x00000000        0x0 /home/zhouyongjian/wangshi/wmsdk_bundle-3.1.16/bin/wmsdk/libs/libc.a(strstr.o)
 .text.strstr   0x00000000       0x22 /home/zhouyongjian/wangshi/wmsdk_bundle-3.1.16/bin/wmsdk/libs/libc.a(strstr.o)
 .debug_info    0x00000000      0x111 /home/zhouyongjian/wangshi/wmsdk_bundle-3.1.16/bin/wmsdk/libs/libc.a(strstr.o)
 .debug_abbrev  0x00000000       0xc1 /home/zhouyongjian/wangshi/wmsdk_bundle-3.1.16/bin/wmsdk/libs/libc.a(strstr.o)
 .debug_loc     0x00000000       0x6e /home/zhouyongjian/wangshi/wmsdk_bundle-3.1.16/bin/wmsdk/libs/libc.a(strstr.o)
 .debug_aranges
                0x00000000       0x20 /home/zhouyongjian/wangshi/wmsdk_bundle-3.1.16/bin/wmsdk/libs/libc.a(strstr.o)
 .debug_ranges  0x00000000       0x10 /home/zhouyongjian/wangshi/wmsdk_bundle-3.1.16/bin/wmsdk/libs/libc.a(strstr.o)
 .debug_line    0x00000000       0x95 /home/zhouyongjian/wangshi/wmsdk_bundle-3.1.16/bin/wmsdk/libs/libc.a(strstr.o)
 .debug_str     0x00000000      0x145 /home/zhouyongjian/wangshi/wmsdk_bundle-3.1.16/bin/wmsdk/libs/libc.a(strstr.o)
 .comment       0x00000000       0x71 /home/zhouyongjian/wangshi/wmsdk_bundle-3.1.16/bin/wmsdk/libs/libc.a(strstr.o)
 .ARM.attributes
                0x00000000       0x33 /home/zhouyongjian/wangshi/wmsdk_bundle-3.1.16/bin/wmsdk/libs/libc.a(strstr.o)
 .debug_frame   0x00000000       0x2c /home/zhouyongjian/wangshi/wmsdk_bundle-3.1.16/bin/wmsdk/libs/libc.a(strstr.o)
 .text          0x00000000        0x0 /home/zhouyongjian/wangshi/wmsdk_bundle-3.1.16/bin/wmsdk/libs/libc.a(strtok.o)
 .data          0x00000000        0x0 /home/zhouyongjian/wangshi/wmsdk_bundle-3.1.16/bin/wmsdk/libs/libc.a(strtok.o)
 .bss           0x00000000        0x0 /home/zhouyongjian/wangshi/wmsdk_bundle-3.1.16/bin/wmsdk/libs/libc.a(strtok.o)
 .text.strtok   0x00000000        0xc /home/zhouyongjian/wangshi/wmsdk_bundle-3.1.16/bin/wmsdk/libs/libc.a(strtok.o)
 .bss.holder.3732
                0x00000000        0x4 /home/zhouyongjian/wangshi/wmsdk_bundle-3.1.16/bin/wmsdk/libs/libc.a(strtok.o)
 .debug_info    0x00000000       0xd9 /home/zhouyongjian/wangshi/wmsdk_bundle-3.1.16/bin/wmsdk/libs/libc.a(strtok.o)
 .debug_abbrev  0x00000000       0xb9 /home/zhouyongjian/wangshi/wmsdk_bundle-3.1.16/bin/wmsdk/libs/libc.a(strtok.o)
 .debug_loc     0x00000000       0x42 /home/zhouyongjian/wangshi/wmsdk_bundle-3.1.16/bin/wmsdk/libs/libc.a(strtok.o)
 .debug_aranges
                0x00000000       0x20 /home/zhouyongjian/wangshi/wmsdk_bundle-3.1.16/bin/wmsdk/libs/libc.a(strtok.o)
 .debug_ranges  0x00000000       0x10 /home/zhouyongjian/wangshi/wmsdk_bundle-3.1.16/bin/wmsdk/libs/libc.a(strtok.o)
 .debug_line    0x00000000       0x86 /home/zhouyongjian/wangshi/wmsdk_bundle-3.1.16/bin/wmsdk/libs/libc.a(strtok.o)
 .debug_str     0x00000000      0x136 /home/zhouyongjian/wangshi/wmsdk_bundle-3.1.16/bin/wmsdk/libs/libc.a(strtok.o)
 .comment       0x00000000       0x71 /home/zhouyongjian/wangshi/wmsdk_bundle-3.1.16/bin/wmsdk/libs/libc.a(strtok.o)
 .ARM.attributes
                0x00000000       0x33 /home/zhouyongjian/wangshi/wmsdk_bundle-3.1.16/bin/wmsdk/libs/libc.a(strtok.o)
 .debug_frame   0x00000000       0x20 /home/zhouyongjian/wangshi/wmsdk_bundle-3.1.16/bin/wmsdk/libs/libc.a(strtok.o)
 .text          0x00000000        0x0 /home/zhouyongjian/wangshi/wmsdk_bundle-3.1.16/bin/wmsdk/libs/libc.a(strtok_r.o)
 .data          0x00000000        0x0 /home/zhouyongjian/wangshi/wmsdk_bundle-3.1.16/bin/wmsdk/libs/libc.a(strtok_r.o)
 .bss           0x00000000        0x0 /home/zhouyongjian/wangshi/wmsdk_bundle-3.1.16/bin/wmsdk/libs/libc.a(strtok_r.o)
 .text.strtok_r
                0x00000000       0x1c /home/zhouyongjian/wangshi/wmsdk_bundle-3.1.16/bin/wmsdk/libs/libc.a(strtok_r.o)
 .debug_info    0x00000000       0xc3 /home/zhouyongjian/wangshi/wmsdk_bundle-3.1.16/bin/wmsdk/libs/libc.a(strtok_r.o)
 .debug_abbrev  0x00000000       0xa5 /home/zhouyongjian/wangshi/wmsdk_bundle-3.1.16/bin/wmsdk/libs/libc.a(strtok_r.o)
 .debug_loc     0x00000000       0x5a /home/zhouyongjian/wangshi/wmsdk_bundle-3.1.16/bin/wmsdk/libs/libc.a(strtok_r.o)
 .debug_aranges
                0x00000000       0x20 /home/zhouyongjian/wangshi/wmsdk_bundle-3.1.16/bin/wmsdk/libs/libc.a(strtok_r.o)
 .debug_ranges  0x00000000       0x10 /home/zhouyongjian/wangshi/wmsdk_bundle-3.1.16/bin/wmsdk/libs/libc.a(strtok_r.o)
 .debug_line    0x00000000       0x95 /home/zhouyongjian/wangshi/wmsdk_bundle-3.1.16/bin/wmsdk/libs/libc.a(strtok_r.o)
 .debug_str     0x00000000      0x138 /home/zhouyongjian/wangshi/wmsdk_bundle-3.1.16/bin/wmsdk/libs/libc.a(strtok_r.o)
 .comment       0x00000000       0x71 /home/zhouyongjian/wangshi/wmsdk_bundle-3.1.16/bin/wmsdk/libs/libc.a(strtok_r.o)
 .ARM.attributes
                0x00000000       0x33 /home/zhouyongjian/wangshi/wmsdk_bundle-3.1.16/bin/wmsdk/libs/libc.a(strtok_r.o)
 .debug_frame   0x00000000       0x2c /home/zhouyongjian/wangshi/wmsdk_bundle-3.1.16/bin/wmsdk/libs/libc.a(strtok_r.o)
 .text          0x00000000        0x0 /home/zhouyongjian/wangshi/wmsdk_bundle-3.1.16/bin/wmsdk/libs/libc.a(strntoumax.o)
 .data          0x00000000        0x0 /home/zhouyongjian/wangshi/wmsdk_bundle-3.1.16/bin/wmsdk/libs/libc.a(strntoumax.o)
 .bss           0x00000000        0x0 /home/zhouyongjian/wangshi/wmsdk_bundle-3.1.16/bin/wmsdk/libs/libc.a(strntoumax.o)
 .text.strntoumax
                0x00000000      0x104 /home/zhouyongjian/wangshi/wmsdk_bundle-3.1.16/bin/wmsdk/libs/libc.a(strntoumax.o)
 .debug_info    0x00000000      0x229 /home/zhouyongjian/wangshi/wmsdk_bundle-3.1.16/bin/wmsdk/libs/libc.a(strntoumax.o)
 .debug_abbrev  0x00000000      0x14a /home/zhouyongjian/wangshi/wmsdk_bundle-3.1.16/bin/wmsdk/libs/libc.a(strntoumax.o)
 .debug_loc     0x00000000      0x359 /home/zhouyongjian/wangshi/wmsdk_bundle-3.1.16/bin/wmsdk/libs/libc.a(strntoumax.o)
 .debug_aranges
                0x00000000       0x20 /home/zhouyongjian/wangshi/wmsdk_bundle-3.1.16/bin/wmsdk/libs/libc.a(strntoumax.o)
 .debug_ranges  0x00000000       0x10 /home/zhouyongjian/wangshi/wmsdk_bundle-3.1.16/bin/wmsdk/libs/libc.a(strntoumax.o)
 .debug_line    0x00000000      0x13e /home/zhouyongjian/wangshi/wmsdk_bundle-3.1.16/bin/wmsdk/libs/libc.a(strntoumax.o)
 .debug_str     0x00000000      0x250 /home/zhouyongjian/wangshi/wmsdk_bundle-3.1.16/bin/wmsdk/libs/libc.a(strntoumax.o)
 .comment       0x00000000       0x71 /home/zhouyongjian/wangshi/wmsdk_bundle-3.1.16/bin/wmsdk/libs/libc.a(strntoumax.o)
 .ARM.attributes
                0x00000000       0x33 /home/zhouyongjian/wangshi/wmsdk_bundle-3.1.16/bin/wmsdk/libs/libc.a(strntoumax.o)
 .debug_frame   0x00000000       0x30 /home/zhouyongjian/wangshi/wmsdk_bundle-3.1.16/bin/wmsdk/libs/libc.a(strntoumax.o)
 .text          0x00000000        0x0 /home/zhouyongjian/wangshi/wmsdk_bundle-3.1.16/bin/wmsdk/libs/libc.a(ctypes.o)
 .data          0x00000000        0x0 /home/zhouyongjian/wangshi/wmsdk_bundle-3.1.16/bin/wmsdk/libs/libc.a(ctypes.o)
 .bss           0x00000000        0x0 /home/zhouyongjian/wangshi/wmsdk_bundle-3.1.16/bin/wmsdk/libs/libc.a(ctypes.o)
 .rodata.__ctypes
                0x00000000      0x101 /home/zhouyongjian/wangshi/wmsdk_bundle-3.1.16/bin/wmsdk/libs/libc.a(ctypes.o)
 .debug_info    0x00000000       0x8e /home/zhouyongjian/wangshi/wmsdk_bundle-3.1.16/bin/wmsdk/libs/libc.a(ctypes.o)
 .debug_abbrev  0x00000000       0x5b /home/zhouyongjian/wangshi/wmsdk_bundle-3.1.16/bin/wmsdk/libs/libc.a(ctypes.o)
 .debug_aranges
                0x00000000       0x18 /home/zhouyongjian/wangshi/wmsdk_bundle-3.1.16/bin/wmsdk/libs/libc.a(ctypes.o)
 .debug_line    0x00000000       0x77 /home/zhouyongjian/wangshi/wmsdk_bundle-3.1.16/bin/wmsdk/libs/libc.a(ctypes.o)
 .debug_str     0x00000000      0x198 /home/zhouyongjian/wangshi/wmsdk_bundle-3.1.16/bin/wmsdk/libs/libc.a(ctypes.o)
 .comment       0x00000000       0x71 /home/zhouyongjian/wangshi/wmsdk_bundle-3.1.16/bin/wmsdk/libs/libc.a(ctypes.o)
 .ARM.attributes
                0x00000000       0x33 /home/zhouyongjian/wangshi/wmsdk_bundle-3.1.16/bin/wmsdk/libs/libc.a(ctypes.o)
 .text          0x00000000        0x0 /home/zhouyongjian/wangshi/wmsdk_bundle-3.1.16/bin/wmsdk/libs/libc.a(memmem.o)
 .data          0x00000000        0x0 /home/zhouyongjian/wangshi/wmsdk_bundle-3.1.16/bin/wmsdk/libs/libc.a(memmem.o)
 .bss           0x00000000        0x0 /home/zhouyongjian/wangshi/wmsdk_bundle-3.1.16/bin/wmsdk/libs/libc.a(memmem.o)
 .text.memmem   0x00000000       0x8e /home/zhouyongjian/wangshi/wmsdk_bundle-3.1.16/bin/wmsdk/libs/libc.a(memmem.o)
 .debug_info    0x00000000      0x129 /home/zhouyongjian/wangshi/wmsdk_bundle-3.1.16/bin/wmsdk/libs/libc.a(memmem.o)
 .debug_abbrev  0x00000000       0xcd /home/zhouyongjian/wangshi/wmsdk_bundle-3.1.16/bin/wmsdk/libs/libc.a(memmem.o)
 .debug_loc     0x00000000      0x1d5 /home/zhouyongjian/wangshi/wmsdk_bundle-3.1.16/bin/wmsdk/libs/libc.a(memmem.o)
 .debug_aranges
                0x00000000       0x20 /home/zhouyongjian/wangshi/wmsdk_bundle-3.1.16/bin/wmsdk/libs/libc.a(memmem.o)
 .debug_ranges  0x00000000       0x10 /home/zhouyongjian/wangshi/wmsdk_bundle-3.1.16/bin/wmsdk/libs/libc.a(memmem.o)
 .debug_line    0x00000000       0xb5 /home/zhouyongjian/wangshi/wmsdk_bundle-3.1.16/bin/wmsdk/libs/libc.a(memmem.o)
 .debug_str     0x00000000      0x147 /home/zhouyongjian/wangshi/wmsdk_bundle-3.1.16/bin/wmsdk/libs/libc.a(memmem.o)
 .comment       0x00000000       0x71 /home/zhouyongjian/wangshi/wmsdk_bundle-3.1.16/bin/wmsdk/libs/libc.a(memmem.o)
 .ARM.attributes
                0x00000000       0x33 /home/zhouyongjian/wangshi/wmsdk_bundle-3.1.16/bin/wmsdk/libs/libc.a(memmem.o)
 .debug_frame   0x00000000       0x38 /home/zhouyongjian/wangshi/wmsdk_bundle-3.1.16/bin/wmsdk/libs/libc.a(memmem.o)
 .text          0x00000000        0x0 /home/zhouyongjian/wangshi/wmsdk_bundle-3.1.16/bin/wmsdk/libs/libc.a(strcpy.o)
 .data          0x00000000        0x0 /home/zhouyongjian/wangshi/wmsdk_bundle-3.1.16/bin/wmsdk/libs/libc.a(strcpy.o)
 .bss           0x00000000        0x0 /home/zhouyongjian/wangshi/wmsdk_bundle-3.1.16/bin/wmsdk/libs/libc.a(strcpy.o)
 .text.strcpy   0x00000000        0xe /home/zhouyongjian/wangshi/wmsdk_bundle-3.1.16/bin/wmsdk/libs/libc.a(strcpy.o)
 .debug_info    0x00000000       0xa8 /home/zhouyongjian/wangshi/wmsdk_bundle-3.1.16/bin/wmsdk/libs/libc.a(strcpy.o)
 .debug_abbrev  0x00000000       0x74 /home/zhouyongjian/wangshi/wmsdk_bundle-3.1.16/bin/wmsdk/libs/libc.a(strcpy.o)
 .debug_loc     0x00000000       0x8c /home/zhouyongjian/wangshi/wmsdk_bundle-3.1.16/bin/wmsdk/libs/libc.a(strcpy.o)
 .debug_aranges
                0x00000000       0x20 /home/zhouyongjian/wangshi/wmsdk_bundle-3.1.16/bin/wmsdk/libs/libc.a(strcpy.o)
 .debug_ranges  0x00000000       0x10 /home/zhouyongjian/wangshi/wmsdk_bundle-3.1.16/bin/wmsdk/libs/libc.a(strcpy.o)
 .debug_line    0x00000000       0x44 /home/zhouyongjian/wangshi/wmsdk_bundle-3.1.16/bin/wmsdk/libs/libc.a(strcpy.o)
 .debug_str     0x00000000      0x120 /home/zhouyongjian/wangshi/wmsdk_bundle-3.1.16/bin/wmsdk/libs/libc.a(strcpy.o)
 .comment       0x00000000       0x71 /home/zhouyongjian/wangshi/wmsdk_bundle-3.1.16/bin/wmsdk/libs/libc.a(strcpy.o)
 .ARM.attributes
                0x00000000       0x33 /home/zhouyongjian/wangshi/wmsdk_bundle-3.1.16/bin/wmsdk/libs/libc.a(strcpy.o)
 .debug_frame   0x00000000       0x20 /home/zhouyongjian/wangshi/wmsdk_bundle-3.1.16/bin/wmsdk/libs/libc.a(strcpy.o)
 .text          0x00000000        0x0 /home/zhouyongjian/wangshi/wmsdk_bundle-3.1.16/bin/wmsdk/libs/libc.a(strsep.o)
 .data          0x00000000        0x0 /home/zhouyongjian/wangshi/wmsdk_bundle-3.1.16/bin/wmsdk/libs/libc.a(strsep.o)
 .bss           0x00000000        0x0 /home/zhouyongjian/wangshi/wmsdk_bundle-3.1.16/bin/wmsdk/libs/libc.a(strsep.o)
 .text.strsep   0x00000000       0x1c /home/zhouyongjian/wangshi/wmsdk_bundle-3.1.16/bin/wmsdk/libs/libc.a(strsep.o)
 .debug_info    0x00000000       0xcf /home/zhouyongjian/wangshi/wmsdk_bundle-3.1.16/bin/wmsdk/libs/libc.a(strsep.o)
 .debug_abbrev  0x00000000       0xb4 /home/zhouyongjian/wangshi/wmsdk_bundle-3.1.16/bin/wmsdk/libs/libc.a(strsep.o)
 .debug_loc     0x00000000       0x6a /home/zhouyongjian/wangshi/wmsdk_bundle-3.1.16/bin/wmsdk/libs/libc.a(strsep.o)
 .debug_aranges
                0x00000000       0x20 /home/zhouyongjian/wangshi/wmsdk_bundle-3.1.16/bin/wmsdk/libs/libc.a(strsep.o)
 .debug_ranges  0x00000000       0x10 /home/zhouyongjian/wangshi/wmsdk_bundle-3.1.16/bin/wmsdk/libs/libc.a(strsep.o)
 .debug_line    0x00000000       0x8d /home/zhouyongjian/wangshi/wmsdk_bundle-3.1.16/bin/wmsdk/libs/libc.a(strsep.o)
 .debug_str     0x00000000      0x136 /home/zhouyongjian/wangshi/wmsdk_bundle-3.1.16/bin/wmsdk/libs/libc.a(strsep.o)
 .comment       0x00000000       0x71 /home/zhouyongjian/wangshi/wmsdk_bundle-3.1.16/bin/wmsdk/libs/libc.a(strsep.o)
 .ARM.attributes
                0x00000000       0x33 /home/zhouyongjian/wangshi/wmsdk_bundle-3.1.16/bin/wmsdk/libs/libc.a(strsep.o)
 .debug_frame   0x00000000       0x2c /home/zhouyongjian/wangshi/wmsdk_bundle-3.1.16/bin/wmsdk/libs/libc.a(strsep.o)
 .text          0x00000000        0x0 /home/zhouyongjian/wangshi/wmsdk_bundle-3.1.16/bin/wmsdk/libs/libc.a(strpbrk.o)
 .data          0x00000000        0x0 /home/zhouyongjian/wangshi/wmsdk_bundle-3.1.16/bin/wmsdk/libs/libc.a(strpbrk.o)
 .bss           0x00000000        0x0 /home/zhouyongjian/wangshi/wmsdk_bundle-3.1.16/bin/wmsdk/libs/libc.a(strpbrk.o)
 .text.strpbrk  0x00000000       0x18 /home/zhouyongjian/wangshi/wmsdk_bundle-3.1.16/bin/wmsdk/libs/libc.a(strpbrk.o)
 .debug_info    0x00000000       0xd0 /home/zhouyongjian/wangshi/wmsdk_bundle-3.1.16/bin/wmsdk/libs/libc.a(strpbrk.o)
 .debug_abbrev  0x00000000       0xc1 /home/zhouyongjian/wangshi/wmsdk_bundle-3.1.16/bin/wmsdk/libs/libc.a(strpbrk.o)
 .debug_loc     0x00000000       0x3f /home/zhouyongjian/wangshi/wmsdk_bundle-3.1.16/bin/wmsdk/libs/libc.a(strpbrk.o)
 .debug_aranges
                0x00000000       0x20 /home/zhouyongjian/wangshi/wmsdk_bundle-3.1.16/bin/wmsdk/libs/libc.a(strpbrk.o)
 .debug_ranges  0x00000000       0x10 /home/zhouyongjian/wangshi/wmsdk_bundle-3.1.16/bin/wmsdk/libs/libc.a(strpbrk.o)
 .debug_line    0x00000000       0x9c /home/zhouyongjian/wangshi/wmsdk_bundle-3.1.16/bin/wmsdk/libs/libc.a(strpbrk.o)
 .debug_str     0x00000000      0x13a /home/zhouyongjian/wangshi/wmsdk_bundle-3.1.16/bin/wmsdk/libs/libc.a(strpbrk.o)
 .comment       0x00000000       0x71 /home/zhouyongjian/wangshi/wmsdk_bundle-3.1.16/bin/wmsdk/libs/libc.a(strpbrk.o)
 .ARM.attributes
                0x00000000       0x33 /home/zhouyongjian/wangshi/wmsdk_bundle-3.1.16/bin/wmsdk/libs/libc.a(strpbrk.o)
 .debug_frame   0x00000000       0x28 /home/zhouyongjian/wangshi/wmsdk_bundle-3.1.16/bin/wmsdk/libs/libc.a(strpbrk.o)
 .text          0x00000000        0x0 /home/zhouyongjian/wangshi/wmsdk_bundle-3.1.16/bin/wmsdk/libs/libc.a(strxspn.o)
 .data          0x00000000        0x0 /home/zhouyongjian/wangshi/wmsdk_bundle-3.1.16/bin/wmsdk/libs/libc.a(strxspn.o)
 .bss           0x00000000        0x0 /home/zhouyongjian/wangshi/wmsdk_bundle-3.1.16/bin/wmsdk/libs/libc.a(strxspn.o)
 .text.__strxspn
                0x00000000       0x3e /home/zhouyongjian/wangshi/wmsdk_bundle-3.1.16/bin/wmsdk/libs/libc.a(strxspn.o)
 .debug_info    0x00000000      0x130 /home/zhouyongjian/wangshi/wmsdk_bundle-3.1.16/bin/wmsdk/libs/libc.a(strxspn.o)
 .debug_abbrev  0x00000000       0xeb /home/zhouyongjian/wangshi/wmsdk_bundle-3.1.16/bin/wmsdk/libs/libc.a(strxspn.o)
 .debug_loc     0x00000000       0xdd /home/zhouyongjian/wangshi/wmsdk_bundle-3.1.16/bin/wmsdk/libs/libc.a(strxspn.o)
 .debug_aranges
                0x00000000       0x20 /home/zhouyongjian/wangshi/wmsdk_bundle-3.1.16/bin/wmsdk/libs/libc.a(strxspn.o)
 .debug_ranges  0x00000000       0x10 /home/zhouyongjian/wangshi/wmsdk_bundle-3.1.16/bin/wmsdk/libs/libc.a(strxspn.o)
 .debug_line    0x00000000       0xab /home/zhouyongjian/wangshi/wmsdk_bundle-3.1.16/bin/wmsdk/libs/libc.a(strxspn.o)
 .debug_str     0x00000000      0x1a7 /home/zhouyongjian/wangshi/wmsdk_bundle-3.1.16/bin/wmsdk/libs/libc.a(strxspn.o)
 .comment       0x00000000       0x71 /home/zhouyongjian/wangshi/wmsdk_bundle-3.1.16/bin/wmsdk/libs/libc.a(strxspn.o)
 .ARM.attributes
                0x00000000       0x33 /home/zhouyongjian/wangshi/wmsdk_bundle-3.1.16/bin/wmsdk/libs/libc.a(strxspn.o)
 .debug_frame   0x00000000       0x30 /home/zhouyongjian/wangshi/wmsdk_bundle-3.1.16/bin/wmsdk/libs/libc.a(strxspn.o)
 .text          0x00000000        0x0 /home/zhouyongjian/wangshi/wmsdk_bundle-3.1.16/bin/wmsdk/libs/libcli.a(cli.o)
 .data          0x00000000        0x0 /home/zhouyongjian/wangshi/wmsdk_bundle-3.1.16/bin/wmsdk/libs/libcli.a(cli.o)
 .bss           0x00000000        0x0 /home/zhouyongjian/wangshi/wmsdk_bundle-3.1.16/bin/wmsdk/libs/libcli.a(cli.o)
 .text.help_command
                0x00000000       0x4c /home/zhouyongjian/wangshi/wmsdk_bundle-3.1.16/bin/wmsdk/libs/libcli.a(cli.o)
 .text.get_system_conf
                0x00000000       0xa8 /home/zhouyongjian/wangshi/wmsdk_bundle-3.1.16/bin/wmsdk/libs/libcli.a(cli.o)
 .text.echo_cmd_handler
                0x00000000       0x74 /home/zhouyongjian/wangshi/wmsdk_bundle-3.1.16/bin/wmsdk/libs/libcli.a(cli.o)
 .text.os_mutex_put.constprop.7
                0x00000000       0x48 /home/zhouyongjian/wangshi/wmsdk_bundle-3.1.16/bin/wmsdk/libs/libcli.a(cli.o)
 .text.os_mutex_get.constprop.8
                0x00000000       0x28 /home/zhouyongjian/wangshi/wmsdk_bundle-3.1.16/bin/wmsdk/libs/libcli.a(cli.o)
 .text.cli_main
                0x00000000      0x220 /home/zhouyongjian/wangshi/wmsdk_bundle-3.1.16/bin/wmsdk/libs/libcli.a(cli.o)
 .text.cli_install_UART_Tick
                0x00000000       0x40 /home/zhouyongjian/wangshi/wmsdk_bundle-3.1.16/bin/wmsdk/libs/libcli.a(cli.o)
 .text.cli_remove_UART_Tick
                0x00000000       0x2c /home/zhouyongjian/wangshi/wmsdk_bundle-3.1.16/bin/wmsdk/libs/libcli.a(cli.o)
 .text.cli_start
                0x00000000       0x8c /home/zhouyongjian/wangshi/wmsdk_bundle-3.1.16/bin/wmsdk/libs/libcli.a(cli.o)
 .text.cli_get_cmd_buffer
                0x00000000       0x1a /home/zhouyongjian/wangshi/wmsdk_bundle-3.1.16/bin/wmsdk/libs/libcli.a(cli.o)
 .text.cli_submit_cmd_buffer
                0x00000000       0x64 /home/zhouyongjian/wangshi/wmsdk_bundle-3.1.16/bin/wmsdk/libs/libcli.a(cli.o)
 .text.console_tick
                0x00000000      0x1a4 /home/zhouyongjian/wangshi/wmsdk_bundle-3.1.16/bin/wmsdk/libs/libcli.a(cli.o)
 .text.cli_stop
                0x00000000       0xa0 /home/zhouyongjian/wangshi/wmsdk_bundle-3.1.16/bin/wmsdk/libs/libcli.a(cli.o)
 .text.cli_register_command
                0x00000000       0x44 /home/zhouyongjian/wangshi/wmsdk_bundle-3.1.16/bin/wmsdk/libs/libcli.a(cli.o)
 .text.cli_unregister_command
                0x00000000       0x5c /home/zhouyongjian/wangshi/wmsdk_bundle-3.1.16/bin/wmsdk/libs/libcli.a(cli.o)
 .text.cli_register_commands
                0x00000000       0x24 /home/zhouyongjian/wangshi/wmsdk_bundle-3.1.16/bin/wmsdk/libs/libcli.a(cli.o)
 .text.cli_unregister_commands
                0x00000000       0x24 /home/zhouyongjian/wangshi/wmsdk_bundle-3.1.16/bin/wmsdk/libs/libcli.a(cli.o)
 .text.cli_init
                0x00000000       0x54 /home/zhouyongjian/wangshi/wmsdk_bundle-3.1.16/bin/wmsdk/libs/libcli.a(cli.o)
 .rodata.queue_data
                0x00000000        0x4 /home/zhouyongjian/wangshi/wmsdk_bundle-3.1.16/bin/wmsdk/libs/libcli.a(cli.o)
 .bss.cli_mutex
                0x00000000        0x4 /home/zhouyongjian/wangshi/wmsdk_bundle-3.1.16/bin/wmsdk/libs/libcli.a(cli.o)
 .bss.cli       0x00000000      0x1b0 /home/zhouyongjian/wangshi/wmsdk_bundle-3.1.16/bin/wmsdk/libs/libcli.a(cli.o)
 .bss.cli_main_thread
                0x00000000        0x4 /home/zhouyongjian/wangshi/wmsdk_bundle-3.1.16/bin/wmsdk/libs/libcli.a(cli.o)
 .rodata.str1.1
                0x00000000      0x306 /home/zhouyongjian/wangshi/wmsdk_bundle-3.1.16/bin/wmsdk/libs/libcli.a(cli.o)
 .bss.argv.13613
                0x00000000       0x40 /home/zhouyongjian/wangshi/wmsdk_bundle-3.1.16/bin/wmsdk/libs/libcli.a(cli.o)
 .data.cli_stack
                0x00000000        0x4 /home/zhouyongjian/wangshi/wmsdk_bundle-3.1.16/bin/wmsdk/libs/libcli.a(cli.o)
 .data.built_ins
                0x00000000       0x24 /home/zhouyongjian/wangshi/wmsdk_bundle-3.1.16/bin/wmsdk/libs/libcli.a(cli.o)
 .debug_info    0x00000000     0x19cd /home/zhouyongjian/wangshi/wmsdk_bundle-3.1.16/bin/wmsdk/libs/libcli.a(cli.o)
 .debug_abbrev  0x00000000      0x499 /home/zhouyongjian/wangshi/wmsdk_bundle-3.1.16/bin/wmsdk/libs/libcli.a(cli.o)
 .debug_loc     0x00000000      0xa66 /home/zhouyongjian/wangshi/wmsdk_bundle-3.1.16/bin/wmsdk/libs/libcli.a(cli.o)
 .debug_aranges
                0x00000000       0xa8 /home/zhouyongjian/wangshi/wmsdk_bundle-3.1.16/bin/wmsdk/libs/libcli.a(cli.o)
 .debug_ranges  0x00000000      0x198 /home/zhouyongjian/wangshi/wmsdk_bundle-3.1.16/bin/wmsdk/libs/libcli.a(cli.o)
 .debug_line    0x00000000      0x65f /home/zhouyongjian/wangshi/wmsdk_bundle-3.1.16/bin/wmsdk/libs/libcli.a(cli.o)
 .debug_str     0x00000000      0xa51 /home/zhouyongjian/wangshi/wmsdk_bundle-3.1.16/bin/wmsdk/libs/libcli.a(cli.o)
 .comment       0x00000000       0x71 /home/zhouyongjian/wangshi/wmsdk_bundle-3.1.16/bin/wmsdk/libs/libcli.a(cli.o)
 .ARM.attributes
                0x00000000       0x33 /home/zhouyongjian/wangshi/wmsdk_bundle-3.1.16/bin/wmsdk/libs/libcli.a(cli.o)
 .debug_frame   0x00000000      0x1fc /home/zhouyongjian/wangshi/wmsdk_bundle-3.1.16/bin/wmsdk/libs/libcli.a(cli.o)
 .text          0x00000000        0x0 /home/zhouyongjian/wangshi/wmsdk_bundle-3.1.16/bin/wmsdk/libs/libcli.a(cli_mem_simple.o)
 .data          0x00000000        0x0 /home/zhouyongjian/wangshi/wmsdk_bundle-3.1.16/bin/wmsdk/libs/libcli.a(cli_mem_simple.o)
 .bss           0x00000000        0x0 /home/zhouyongjian/wangshi/wmsdk_bundle-3.1.16/bin/wmsdk/libs/libcli.a(cli_mem_simple.o)
 .text.cli_mem_cleanup
                0x00000000        0x4 /home/zhouyongjian/wangshi/wmsdk_bundle-3.1.16/bin/wmsdk/libs/libcli.a(cli_mem_simple.o)
 .text.cli_mem_init
                0x00000000        0x4 /home/zhouyongjian/wangshi/wmsdk_bundle-3.1.16/bin/wmsdk/libs/libcli.a(cli_mem_simple.o)
 .text.cli_mem_malloc
                0x00000000       0x30 /home/zhouyongjian/wangshi/wmsdk_bundle-3.1.16/bin/wmsdk/libs/libcli.a(cli_mem_simple.o)
 .text.cli_mem_free
                0x00000000       0x30 /home/zhouyongjian/wangshi/wmsdk_bundle-3.1.16/bin/wmsdk/libs/libcli.a(cli_mem_simple.o)
 .bss.alloc     0x00000000        0x2 /home/zhouyongjian/wangshi/wmsdk_bundle-3.1.16/bin/wmsdk/libs/libcli.a(cli_mem_simple.o)
 .bss.buff1     0x00000000      0x100 /home/zhouyongjian/wangshi/wmsdk_bundle-3.1.16/bin/wmsdk/libs/libcli.a(cli_mem_simple.o)
 .bss.buff2     0x00000000      0x100 /home/zhouyongjian/wangshi/wmsdk_bundle-3.1.16/bin/wmsdk/libs/libcli.a(cli_mem_simple.o)
 .debug_info    0x00000000      0x11f /home/zhouyongjian/wangshi/wmsdk_bundle-3.1.16/bin/wmsdk/libs/libcli.a(cli_mem_simple.o)
 .debug_abbrev  0x00000000       0xa2 /home/zhouyongjian/wangshi/wmsdk_bundle-3.1.16/bin/wmsdk/libs/libcli.a(cli_mem_simple.o)
 .debug_loc     0x00000000       0x74 /home/zhouyongjian/wangshi/wmsdk_bundle-3.1.16/bin/wmsdk/libs/libcli.a(cli_mem_simple.o)
 .debug_aranges
                0x00000000       0x38 /home/zhouyongjian/wangshi/wmsdk_bundle-3.1.16/bin/wmsdk/libs/libcli.a(cli_mem_simple.o)
 .debug_ranges  0x00000000       0x28 /home/zhouyongjian/wangshi/wmsdk_bundle-3.1.16/bin/wmsdk/libs/libcli.a(cli_mem_simple.o)
 .debug_line    0x00000000       0x82 /home/zhouyongjian/wangshi/wmsdk_bundle-3.1.16/bin/wmsdk/libs/libcli.a(cli_mem_simple.o)
 .debug_str     0x00000000      0x181 /home/zhouyongjian/wangshi/wmsdk_bundle-3.1.16/bin/wmsdk/libs/libcli.a(cli_mem_simple.o)
 .comment       0x00000000       0x71 /home/zhouyongjian/wangshi/wmsdk_bundle-3.1.16/bin/wmsdk/libs/libcli.a(cli_mem_simple.o)
 .ARM.attributes
                0x00000000       0x33 /home/zhouyongjian/wangshi/wmsdk_bundle-3.1.16/bin/wmsdk/libs/libcli.a(cli_mem_simple.o)
 .debug_frame   0x00000000       0x50 /home/zhouyongjian/wangshi/wmsdk_bundle-3.1.16/bin/wmsdk/libs/libcli.a(cli_mem_simple.o)
 .text          0x00000000        0x0 /home/zhouyongjian/wangshi/wmsdk_bundle-3.1.16/bin/wmsdk/libs/libdrv.a(mw300_gpio.o)
 .data          0x00000000        0x0 /home/zhouyongjian/wangshi/wmsdk_bundle-3.1.16/bin/wmsdk/libs/libdrv.a(mw300_gpio.o)
 .bss           0x00000000        0x0 /home/zhouyongjian/wangshi/wmsdk_bundle-3.1.16/bin/wmsdk/libs/libdrv.a(mw300_gpio.o)
 .text.GPIO_SetPortPinDir
                0x00000000       0x10 /home/zhouyongjian/wangshi/wmsdk_bundle-3.1.16/bin/wmsdk/libs/libdrv.a(mw300_gpio.o)
 .text.GPIO_WritePortOutput
                0x00000000       0x20 /home/zhouyongjian/wangshi/wmsdk_bundle-3.1.16/bin/wmsdk/libs/libdrv.a(mw300_gpio.o)
 .text.GPIO_ReadPortLevel
                0x00000000       0x14 /home/zhouyongjian/wangshi/wmsdk_bundle-3.1.16/bin/wmsdk/libs/libdrv.a(mw300_gpio.o)
 .text.GPIO_ReadPinLevel
                0x00000000       0x20 /home/zhouyongjian/wangshi/wmsdk_bundle-3.1.16/bin/wmsdk/libs/libdrv.a(mw300_gpio.o)
 .text.GPIO_IRQHandler
                0x00000000       0x5c /home/zhouyongjian/wangshi/wmsdk_bundle-3.1.16/bin/wmsdk/libs/libdrv.a(mw300_gpio.o)
 .text          0x00000000        0x0 /home/zhouyongjian/wangshi/wmsdk_bundle-3.1.16/bin/wmsdk/libs/libdrv.a(mw300_uart.o)
 .data          0x00000000        0x0 /home/zhouyongjian/wangshi/wmsdk_bundle-3.1.16/bin/wmsdk/libs/libdrv.a(mw300_uart.o)
 .bss           0x00000000        0x0 /home/zhouyongjian/wangshi/wmsdk_bundle-3.1.16/bin/wmsdk/libs/libdrv.a(mw300_uart.o)
 .text.UART_Calculate_Dividers
                0x00000000       0x54 /home/zhouyongjian/wangshi/wmsdk_bundle-3.1.16/bin/wmsdk/libs/libdrv.a(mw300_uart.o)
 .text.UART_Init
                0x00000000      0x1e8 /home/zhouyongjian/wangshi/wmsdk_bundle-3.1.16/bin/wmsdk/libs/libdrv.a(mw300_uart.o)
 .text.UART_FifoConfig
                0x00000000       0x84 /home/zhouyongjian/wangshi/wmsdk_bundle-3.1.16/bin/wmsdk/libs/libdrv.a(mw300_uart.o)
 .text.UART_IrConfig
                0x00000000       0x40 /home/zhouyongjian/wangshi/wmsdk_bundle-3.1.16/bin/wmsdk/libs/libdrv.a(mw300_uart.o)
 .text.UART_BaudConfig
                0x00000000       0x2c /home/zhouyongjian/wangshi/wmsdk_bundle-3.1.16/bin/wmsdk/libs/libdrv.a(mw300_uart.o)
 .text.UART_Enable
                0x00000000       0x14 /home/zhouyongjian/wangshi/wmsdk_bundle-3.1.16/bin/wmsdk/libs/libdrv.a(mw300_uart.o)
 .text.UART_Disable
                0x00000000       0x14 /home/zhouyongjian/wangshi/wmsdk_bundle-3.1.16/bin/wmsdk/libs/libdrv.a(mw300_uart.o)
 .text.UART_SetBreakCmd
                0x00000000       0x1c /home/zhouyongjian/wangshi/wmsdk_bundle-3.1.16/bin/wmsdk/libs/libdrv.a(mw300_uart.o)
 .text.UART_SetLoopBackMode
                0x00000000       0x1c /home/zhouyongjian/wangshi/wmsdk_bundle-3.1.16/bin/wmsdk/libs/libdrv.a(mw300_uart.o)
 .text.UART_SetOut2Signal
                0x00000000       0x1c /home/zhouyongjian/wangshi/wmsdk_bundle-3.1.16/bin/wmsdk/libs/libdrv.a(mw300_uart.o)
 .text.UART_SetOut1Signal
                0x00000000       0x1c /home/zhouyongjian/wangshi/wmsdk_bundle-3.1.16/bin/wmsdk/libs/libdrv.a(mw300_uart.o)
 .text.UART_SetDTRSignal
                0x00000000       0x1c /home/zhouyongjian/wangshi/wmsdk_bundle-3.1.16/bin/wmsdk/libs/libdrv.a(mw300_uart.o)
 .text.UART_RTS_Assert
                0x00000000       0x14 /home/zhouyongjian/wangshi/wmsdk_bundle-3.1.16/bin/wmsdk/libs/libdrv.a(mw300_uart.o)
 .text.UART_RTS_Deassert
                0x00000000       0x14 /home/zhouyongjian/wangshi/wmsdk_bundle-3.1.16/bin/wmsdk/libs/libdrv.a(mw300_uart.o)
 .text.UART_SetAutoBaudDL
                0x00000000       0x34 /home/zhouyongjian/wangshi/wmsdk_bundle-3.1.16/bin/wmsdk/libs/libdrv.a(mw300_uart.o)
 .text.UART_ReceiveData
                0x00000000       0x10 /home/zhouyongjian/wangshi/wmsdk_bundle-3.1.16/bin/wmsdk/libs/libdrv.a(mw300_uart.o)
 .text.UART_SendData
                0x00000000       0x10 /home/zhouyongjian/wangshi/wmsdk_bundle-3.1.16/bin/wmsdk/libs/libdrv.a(mw300_uart.o)
 .text.UART_Receive9bits
                0x00000000       0x3c /home/zhouyongjian/wangshi/wmsdk_bundle-3.1.16/bin/wmsdk/libs/libdrv.a(mw300_uart.o)
 .text.UART_Send9bits
                0x00000000       0x44 /home/zhouyongjian/wangshi/wmsdk_bundle-3.1.16/bin/wmsdk/libs/libdrv.a(mw300_uart.o)
 .text.UART_SetStopBits
                0x00000000       0x14 /home/zhouyongjian/wangshi/wmsdk_bundle-3.1.16/bin/wmsdk/libs/libdrv.a(mw300_uart.o)
 .text.UART_GetAutoBaudCount
                0x00000000       0x10 /home/zhouyongjian/wangshi/wmsdk_bundle-3.1.16/bin/wmsdk/libs/libdrv.a(mw300_uart.o)
 .text.UART_GetLineStatus
                0x00000000       0x60 /home/zhouyongjian/wangshi/wmsdk_bundle-3.1.16/bin/wmsdk/libs/libdrv.a(mw300_uart.o)
 .text.UART_GetModemStatus
                0x00000000       0x60 /home/zhouyongjian/wangshi/wmsdk_bundle-3.1.16/bin/wmsdk/libs/libdrv.a(mw300_uart.o)
 .text.UART_GetRxFIFOLevel
                0x00000000       0x14 /home/zhouyongjian/wangshi/wmsdk_bundle-3.1.16/bin/wmsdk/libs/libdrv.a(mw300_uart.o)
 .text.UART_IntMask
                0x00000000       0xec /home/zhouyongjian/wangshi/wmsdk_bundle-3.1.16/bin/wmsdk/libs/libdrv.a(mw300_uart.o)
 .text.UART_DmaCmd
                0x00000000       0x14 /home/zhouyongjian/wangshi/wmsdk_bundle-3.1.16/bin/wmsdk/libs/libdrv.a(mw300_uart.o)
 .text          0x00000000        0x0 /home/zhouyongjian/wangshi/wmsdk_bundle-3.1.16/bin/wmsdk/libs/libdrv.a(mdev_gpio.o)
 .data          0x00000000        0x0 /home/zhouyongjian/wangshi/wmsdk_bundle-3.1.16/bin/wmsdk/libs/libdrv.a(mdev_gpio.o)
 .bss           0x00000000        0x0 /home/zhouyongjian/wangshi/wmsdk_bundle-3.1.16/bin/wmsdk/libs/libdrv.a(mdev_gpio.o)
 .text.gpio_drv_get_io_domain
                0x00000000       0x36 /home/zhouyongjian/wangshi/wmsdk_bundle-3.1.16/bin/wmsdk/libs/libdrv.a(mdev_gpio.o)
 .text.gpio_drv_read
                0x00000000       0x34 /home/zhouyongjian/wangshi/wmsdk_bundle-3.1.16/bin/wmsdk/libs/libdrv.a(mdev_gpio.o)
 .text.gpio_drv_close
                0x00000000        0x4 /home/zhouyongjian/wangshi/wmsdk_bundle-3.1.16/bin/wmsdk/libs/libdrv.a(mdev_gpio.o)
 .text          0x00000000        0x0 /home/zhouyongjian/wangshi/wmsdk_bundle-3.1.16/bin/wmsdk/libs/libdrv.a(mdev_uart.o)
 .data          0x00000000        0x0 /home/zhouyongjian/wangshi/wmsdk_bundle-3.1.16/bin/wmsdk/libs/libdrv.a(mdev_uart.o)
 .bss           0x00000000        0x0 /home/zhouyongjian/wangshi/wmsdk_bundle-3.1.16/bin/wmsdk/libs/libdrv.a(mdev_uart.o)
 .text.uart_ps_cb
                0x00000000       0xb8 /home/zhouyongjian/wangshi/wmsdk_bundle-3.1.16/bin/wmsdk/libs/libdrv.a(mdev_uart.o)
 .text.os_mutex_put
                0x00000000       0x42 /home/zhouyongjian/wangshi/wmsdk_bundle-3.1.16/bin/wmsdk/libs/libdrv.a(mdev_uart.o)
 .text.os_semaphore_create
                0x00000000       0x28 /home/zhouyongjian/wangshi/wmsdk_bundle-3.1.16/bin/wmsdk/libs/libdrv.a(mdev_uart.o)
 .text.get_free_rx_buf_size.isra.3
                0x00000000       0x14 /home/zhouyongjian/wangshi/wmsdk_bundle-3.1.16/bin/wmsdk/libs/libdrv.a(mdev_uart.o)
 .text.os_semaphore_get.constprop.8
                0x00000000       0x24 /home/zhouyongjian/wangshi/wmsdk_bundle-3.1.16/bin/wmsdk/libs/libdrv.a(mdev_uart.o)
 .text.uart_dma_rd_cb
                0x00000000       0x84 /home/zhouyongjian/wangshi/wmsdk_bundle-3.1.16/bin/wmsdk/libs/libdrv.a(mdev_uart.o)
 .text.uart2dma_rd_cb
                0x00000000        0x6 /home/zhouyongjian/wangshi/wmsdk_bundle-3.1.16/bin/wmsdk/libs/libdrv.a(mdev_uart.o)
 .text.uart1dma_rd_cb
                0x00000000        0x6 /home/zhouyongjian/wangshi/wmsdk_bundle-3.1.16/bin/wmsdk/libs/libdrv.a(mdev_uart.o)
 .text.uart0dma_rd_cb
                0x00000000        0x6 /home/zhouyongjian/wangshi/wmsdk_bundle-3.1.16/bin/wmsdk/libs/libdrv.a(mdev_uart.o)
 .text.uart_drv_rx_buf_reset
                0x00000000       0x20 /home/zhouyongjian/wangshi/wmsdk_bundle-3.1.16/bin/wmsdk/libs/libdrv.a(mdev_uart.o)
 .text.uart_drv_xfer_mode
                0x00000000       0x4c /home/zhouyongjian/wangshi/wmsdk_bundle-3.1.16/bin/wmsdk/libs/libdrv.a(mdev_uart.o)
 .text.uart_drv_open
                0x00000000      0x368 /home/zhouyongjian/wangshi/wmsdk_bundle-3.1.16/bin/wmsdk/libs/libdrv.a(mdev_uart.o)
 .text.uart_drv_tx_flush
                0x00000000       0x18 /home/zhouyongjian/wangshi/wmsdk_bundle-3.1.16/bin/wmsdk/libs/libdrv.a(mdev_uart.o)
 .text.uart_drv_write
                0x00000000      0x180 /home/zhouyongjian/wangshi/wmsdk_bundle-3.1.16/bin/wmsdk/libs/libdrv.a(mdev_uart.o)
 .text.read_rx_buf
                0x00000000       0x46 /home/zhouyongjian/wangshi/wmsdk_bundle-3.1.16/bin/wmsdk/libs/libdrv.a(mdev_uart.o)
 .text.uart_drv_read
                0x00000000       0x78 /home/zhouyongjian/wangshi/wmsdk_bundle-3.1.16/bin/wmsdk/libs/libdrv.a(mdev_uart.o)
 .text.write_rx_buf
                0x00000000       0x44 /home/zhouyongjian/wangshi/wmsdk_bundle-3.1.16/bin/wmsdk/libs/libdrv.a(mdev_uart.o)
 .text.uart_9bit_cb
                0x00000000       0x40 /home/zhouyongjian/wangshi/wmsdk_bundle-3.1.16/bin/wmsdk/libs/libdrv.a(mdev_uart.o)
 .text.uart2_9bit_cb
                0x00000000        0x6 /home/zhouyongjian/wangshi/wmsdk_bundle-3.1.16/bin/wmsdk/libs/libdrv.a(mdev_uart.o)
 .text.uart1_9bit_cb
                0x00000000        0x6 /home/zhouyongjian/wangshi/wmsdk_bundle-3.1.16/bin/wmsdk/libs/libdrv.a(mdev_uart.o)
 .text.uart0_9bit_cb
                0x00000000        0x6 /home/zhouyongjian/wangshi/wmsdk_bundle-3.1.16/bin/wmsdk/libs/libdrv.a(mdev_uart.o)
 .text.uart_8bit_cb
                0x00000000       0x70 /home/zhouyongjian/wangshi/wmsdk_bundle-3.1.16/bin/wmsdk/libs/libdrv.a(mdev_uart.o)
 .text.uart2_8bit_cb
                0x00000000        0x6 /home/zhouyongjian/wangshi/wmsdk_bundle-3.1.16/bin/wmsdk/libs/libdrv.a(mdev_uart.o)
 .text.uart1_8bit_cb
                0x00000000        0x6 /home/zhouyongjian/wangshi/wmsdk_bundle-3.1.16/bin/wmsdk/libs/libdrv.a(mdev_uart.o)
 .text.uart0_8bit_cb
                0x00000000        0x6 /home/zhouyongjian/wangshi/wmsdk_bundle-3.1.16/bin/wmsdk/libs/libdrv.a(mdev_uart.o)
 .text.uart_drv_close
                0x00000000       0x8c /home/zhouyongjian/wangshi/wmsdk_bundle-3.1.16/bin/wmsdk/libs/libdrv.a(mdev_uart.o)
 .text.uart_drv_init
                0x00000000      0x10c /home/zhouyongjian/wangshi/wmsdk_bundle-3.1.16/bin/wmsdk/libs/libdrv.a(mdev_uart.o)
 .text.uart_drv_rxbuf_size
                0x00000000       0x58 /home/zhouyongjian/wangshi/wmsdk_bundle-3.1.16/bin/wmsdk/libs/libdrv.a(mdev_uart.o)
 .text.uart_drv_dma_rd_blk_size
                0x00000000       0x60 /home/zhouyongjian/wangshi/wmsdk_bundle-3.1.16/bin/wmsdk/libs/libdrv.a(mdev_uart.o)
 .text.uart_drv_set_opts
                0x00000000       0x74 /home/zhouyongjian/wangshi/wmsdk_bundle-3.1.16/bin/wmsdk/libs/libdrv.a(mdev_uart.o)
 .text.uart_drv_blocking_read
                0x00000000       0x4c /home/zhouyongjian/wangshi/wmsdk_bundle-3.1.16/bin/wmsdk/libs/libdrv.a(mdev_uart.o)
 .text.uart_drv_deinit
                0x00000000       0x4c /home/zhouyongjian/wangshi/wmsdk_bundle-3.1.16/bin/wmsdk/libs/libdrv.a(mdev_uart.o)
 .bss.uart_block_read_sem
                0x00000000        0xc /home/zhouyongjian/wangshi/wmsdk_bundle-3.1.16/bin/wmsdk/libs/libdrv.a(mdev_uart.o)
 .rodata.mdev_uart_name
                0x00000000        0xc /home/zhouyongjian/wangshi/wmsdk_bundle-3.1.16/bin/wmsdk/libs/libdrv.a(mdev_uart.o)
 .bss.uart_block_dma_wr_sem
                0x00000000        0xc /home/zhouyongjian/wangshi/wmsdk_bundle-3.1.16/bin/wmsdk/libs/libdrv.a(mdev_uart.o)
 .bss.read_dma  0x00000000       0x3c /home/zhouyongjian/wangshi/wmsdk_bundle-3.1.16/bin/wmsdk/libs/libdrv.a(mdev_uart.o)
 .bss.uart_8bit_cb_p
                0x00000000        0xc /home/zhouyongjian/wangshi/wmsdk_bundle-3.1.16/bin/wmsdk/libs/libdrv.a(mdev_uart.o)
 .bss.uart_mutex
                0x00000000        0xc /home/zhouyongjian/wangshi/wmsdk_bundle-3.1.16/bin/wmsdk/libs/libdrv.a(mdev_uart.o)
 .rodata.str1.1
                0x00000000      0x36d /home/zhouyongjian/wangshi/wmsdk_bundle-3.1.16/bin/wmsdk/libs/libdrv.a(mdev_uart.o)
 .bss.uart_9bit_cb_p
                0x00000000        0xc /home/zhouyongjian/wangshi/wmsdk_bundle-3.1.16/bin/wmsdk/libs/libdrv.a(mdev_uart.o)
 .bss.uart_dma_rd_cb_p
                0x00000000        0xc /home/zhouyongjian/wangshi/wmsdk_bundle-3.1.16/bin/wmsdk/libs/libdrv.a(mdev_uart.o)
 .rodata.__func__.13723
                0x00000000       0x13 /home/zhouyongjian/wangshi/wmsdk_bundle-3.1.16/bin/wmsdk/libs/libdrv.a(mdev_uart.o)
 .bss.mdev_uart
                0x00000000       0x3c /home/zhouyongjian/wangshi/wmsdk_bundle-3.1.16/bin/wmsdk/libs/libdrv.a(mdev_uart.o)
 .bss.uartdev_data
                0x00000000       0x78 /home/zhouyongjian/wangshi/wmsdk_bundle-3.1.16/bin/wmsdk/libs/libdrv.a(mdev_uart.o)
 .text          0x00000000        0x0 /home/zhouyongjian/wangshi/wmsdk_bundle-3.1.16/bin/wmsdk/libs/libdrv.a(mdev_dma.o)
 .data          0x00000000        0x0 /home/zhouyongjian/wangshi/wmsdk_bundle-3.1.16/bin/wmsdk/libs/libdrv.a(mdev_dma.o)
 .bss           0x00000000        0x0 /home/zhouyongjian/wangshi/wmsdk_bundle-3.1.16/bin/wmsdk/libs/libdrv.a(mdev_dma.o)
 .text.os_semaphore_get
                0x00000000       0x22 /home/zhouyongjian/wangshi/wmsdk_bundle-3.1.16/bin/wmsdk/libs/libdrv.a(mdev_dma.o)
 .text.os_mutex_put
                0x00000000       0x42 /home/zhouyongjian/wangshi/wmsdk_bundle-3.1.16/bin/wmsdk/libs/libdrv.a(mdev_dma.o)
 .text.os_mutex_get.constprop.4
                0x00000000       0x24 /home/zhouyongjian/wangshi/wmsdk_bundle-3.1.16/bin/wmsdk/libs/libdrv.a(mdev_dma.o)
 .text.dma_drv_set_cb
                0x00000000       0x58 /home/zhouyongjian/wangshi/wmsdk_bundle-3.1.16/bin/wmsdk/libs/libdrv.a(mdev_dma.o)
 .text.dma_drv_init
                0x00000000       0x5c /home/zhouyongjian/wangshi/wmsdk_bundle-3.1.16/bin/wmsdk/libs/libdrv.a(mdev_dma.o)
 .text.dma_drv_open
                0x00000000       0xac /home/zhouyongjian/wangshi/wmsdk_bundle-3.1.16/bin/wmsdk/libs/libdrv.a(mdev_dma.o)
 .text.dma_drv_transfer
                0x00000000       0x44 /home/zhouyongjian/wangshi/wmsdk_bundle-3.1.16/bin/wmsdk/libs/libdrv.a(mdev_dma.o)
 .text.dma_drv_wait_for_transfer_complete
                0x00000000       0x38 /home/zhouyongjian/wangshi/wmsdk_bundle-3.1.16/bin/wmsdk/libs/libdrv.a(mdev_dma.o)
 .text.dma_drv_close
                0x00000000       0x64 /home/zhouyongjian/wangshi/wmsdk_bundle-3.1.16/bin/wmsdk/libs/libdrv.a(mdev_dma.o)
 .text.dma_drv_deinit
                0x00000000       0x30 /home/zhouyongjian/wangshi/wmsdk_bundle-3.1.16/bin/wmsdk/libs/libdrv.a(mdev_dma.o)
 .rodata.str1.1
                0x00000000       0x42 /home/zhouyongjian/wangshi/wmsdk_bundle-3.1.16/bin/wmsdk/libs/libdrv.a(mdev_dma.o)
 .bss.dma_init_done
                0x00000000        0x1 /home/zhouyongjian/wangshi/wmsdk_bundle-3.1.16/bin/wmsdk/libs/libdrv.a(mdev_dma.o)
 .text          0x00000000        0x0 /home/zhouyongjian/wangshi/wmsdk_bundle-3.1.16/bin/wmsdk/libs/libdrv.a(mw300_dma.o)
 .data          0x00000000        0x0 /home/zhouyongjian/wangshi/wmsdk_bundle-3.1.16/bin/wmsdk/libs/libdrv.a(mw300_dma.o)
 .bss           0x00000000        0x0 /home/zhouyongjian/wangshi/wmsdk_bundle-3.1.16/bin/wmsdk/libs/libdrv.a(mw300_dma.o)
 .text.DMA_ChannelInit
                0x00000000       0x6a /home/zhouyongjian/wangshi/wmsdk_bundle-3.1.16/bin/wmsdk/libs/libdrv.a(mw300_dma.o)
 .text.DMA_Enable
                0x00000000       0x16 /home/zhouyongjian/wangshi/wmsdk_bundle-3.1.16/bin/wmsdk/libs/libdrv.a(mw300_dma.o)
 .text.DMA_Disable
                0x00000000       0x16 /home/zhouyongjian/wangshi/wmsdk_bundle-3.1.16/bin/wmsdk/libs/libdrv.a(mw300_dma.o)
 .text.DMA_Stop
                0x00000000       0x16 /home/zhouyongjian/wangshi/wmsdk_bundle-3.1.16/bin/wmsdk/libs/libdrv.a(mw300_dma.o)
 .text.DMA_SetPeripheralType
                0x00000000       0x16 /home/zhouyongjian/wangshi/wmsdk_bundle-3.1.16/bin/wmsdk/libs/libdrv.a(mw300_dma.o)
 .text.DMA_SetAckDelayCycle
                0x00000000       0x12 /home/zhouyongjian/wangshi/wmsdk_bundle-3.1.16/bin/wmsdk/libs/libdrv.a(mw300_dma.o)
 .text.DMA_GetChannelEnableStatus
                0x00000000       0x10 /home/zhouyongjian/wangshi/wmsdk_bundle-3.1.16/bin/wmsdk/libs/libdrv.a(mw300_dma.o)
 .text.DMA_GetChannelIntStatus
                0x00000000       0x3e /home/zhouyongjian/wangshi/wmsdk_bundle-3.1.16/bin/wmsdk/libs/libdrv.a(mw300_dma.o)
 .text.DMA_IntMask
                0x00000000       0x9a /home/zhouyongjian/wangshi/wmsdk_bundle-3.1.16/bin/wmsdk/libs/libdrv.a(mw300_dma.o)
 .text.DMA_IntClr
                0x00000000       0x40 /home/zhouyongjian/wangshi/wmsdk_bundle-3.1.16/bin/wmsdk/libs/libdrv.a(mw300_dma.o)
 .debug_info    0x00000000     0x21b4 /home/zhouyongjian/wangshi/wmsdk_bundle-3.1.16/bin/wmsdk/libs/libdrv.a(mw300_dma.o)
 .debug_abbrev  0x00000000      0x237 /home/zhouyongjian/wangshi/wmsdk_bundle-3.1.16/bin/wmsdk/libs/libdrv.a(mw300_dma.o)
 .debug_loc     0x00000000      0x209 /home/zhouyongjian/wangshi/wmsdk_bundle-3.1.16/bin/wmsdk/libs/libdrv.a(mw300_dma.o)
 .debug_aranges
                0x00000000       0x68 /home/zhouyongjian/wangshi/wmsdk_bundle-3.1.16/bin/wmsdk/libs/libdrv.a(mw300_dma.o)
 .debug_ranges  0x00000000       0x58 /home/zhouyongjian/wangshi/wmsdk_bundle-3.1.16/bin/wmsdk/libs/libdrv.a(mw300_dma.o)
 .debug_line    0x00000000      0x25e /home/zhouyongjian/wangshi/wmsdk_bundle-3.1.16/bin/wmsdk/libs/libdrv.a(mw300_dma.o)
 .debug_str     0x00000000     0x2055 /home/zhouyongjian/wangshi/wmsdk_bundle-3.1.16/bin/wmsdk/libs/libdrv.a(mw300_dma.o)
 .comment       0x00000000       0x71 /home/zhouyongjian/wangshi/wmsdk_bundle-3.1.16/bin/wmsdk/libs/libdrv.a(mw300_dma.o)
 .ARM.attributes
                0x00000000       0x33 /home/zhouyongjian/wangshi/wmsdk_bundle-3.1.16/bin/wmsdk/libs/libdrv.a(mw300_dma.o)
 .debug_frame   0x00000000       0xbc /home/zhouyongjian/wangshi/wmsdk_bundle-3.1.16/bin/wmsdk/libs/libdrv.a(mw300_dma.o)
 .text          0x00000000        0x0 /home/zhouyongjian/wangshi/wmsdk_bundle-3.1.16/bin/wmsdk/libs/libutil.a(flash.o)
 .data          0x00000000        0x0 /home/zhouyongjian/wangshi/wmsdk_bundle-3.1.16/bin/wmsdk/libs/libutil.a(flash.o)
 .bss           0x00000000        0x0 /home/zhouyongjian/wangshi/wmsdk_bundle-3.1.16/bin/wmsdk/libs/libutil.a(flash.o)
 .text.flash_drv_get_id
                0x00000000       0x12 /home/zhouyongjian/wangshi/wmsdk_bundle-3.1.16/bin/wmsdk/libs/libutil.a(flash.o)
 .text.flash_drv_eraseall
                0x00000000       0x10 /home/zhouyongjian/wangshi/wmsdk_bundle-3.1.16/bin/wmsdk/libs/libutil.a(flash.o)
 .text.flash_drv_erase
                0x00000000       0x10 /home/zhouyongjian/wangshi/wmsdk_bundle-3.1.16/bin/wmsdk/libs/libutil.a(flash.o)
 .text.flash_drv_write
                0x00000000       0x16 /home/zhouyongjian/wangshi/wmsdk_bundle-3.1.16/bin/wmsdk/libs/libutil.a(flash.o)
 .text          0x00000000        0x0 /home/zhouyongjian/wangshi/wmsdk_bundle-3.1.16/bin/wmsdk/libs/libc.a(strcasecmp.o)
 .data          0x00000000        0x0 /home/zhouyongjian/wangshi/wmsdk_bundle-3.1.16/bin/wmsdk/libs/libc.a(strcasecmp.o)
 .bss           0x00000000        0x0 /home/zhouyongjian/wangshi/wmsdk_bundle-3.1.16/bin/wmsdk/libs/libc.a(strcasecmp.o)
 .text.strcasecmp
                0x00000000       0x3c /home/zhouyongjian/wangshi/wmsdk_bundle-3.1.16/bin/wmsdk/libs/libc.a(strcasecmp.o)
 .debug_info    0x00000000      0x201 /home/zhouyongjian/wangshi/wmsdk_bundle-3.1.16/bin/wmsdk/libs/libc.a(strcasecmp.o)
 .debug_abbrev  0x00000000      0x10c /home/zhouyongjian/wangshi/wmsdk_bundle-3.1.16/bin/wmsdk/libs/libc.a(strcasecmp.o)
 .debug_loc     0x00000000      0x137 /home/zhouyongjian/wangshi/wmsdk_bundle-3.1.16/bin/wmsdk/libs/libc.a(strcasecmp.o)
 .debug_aranges
                0x00000000       0x20 /home/zhouyongjian/wangshi/wmsdk_bundle-3.1.16/bin/wmsdk/libs/libc.a(strcasecmp.o)
 .debug_ranges  0x00000000       0x88 /home/zhouyongjian/wangshi/wmsdk_bundle-3.1.16/bin/wmsdk/libs/libc.a(strcasecmp.o)
 .debug_line    0x00000000       0xb5 /home/zhouyongjian/wangshi/wmsdk_bundle-3.1.16/bin/wmsdk/libs/libc.a(strcasecmp.o)
 .debug_str     0x00000000      0x1d8 /home/zhouyongjian/wangshi/wmsdk_bundle-3.1.16/bin/wmsdk/libs/libc.a(strcasecmp.o)
 .comment       0x00000000       0x71 /home/zhouyongjian/wangshi/wmsdk_bundle-3.1.16/bin/wmsdk/libs/libc.a(strcasecmp.o)
 .ARM.attributes
                0x00000000       0x33 /home/zhouyongjian/wangshi/wmsdk_bundle-3.1.16/bin/wmsdk/libs/libc.a(strcasecmp.o)
 .debug_frame   0x00000000       0x2c /home/zhouyongjian/wangshi/wmsdk_bundle-3.1.16/bin/wmsdk/libs/libc.a(strcasecmp.o)
 .text          0x00000000        0x0 /home/zhouyongjian/wangshi/wmsdk_bundle-3.1.16/bin/wmsdk/libs/libdrv.a(mdev_iflash.o)
 .data          0x00000000        0x0 /home/zhouyongjian/wangshi/wmsdk_bundle-3.1.16/bin/wmsdk/libs/libdrv.a(mdev_iflash.o)
 .bss           0x00000000        0x0 /home/zhouyongjian/wangshi/wmsdk_bundle-3.1.16/bin/wmsdk/libs/libdrv.a(mdev_iflash.o)
 .text.iflash_drv_get_id
                0x00000000        0xe /home/zhouyongjian/wangshi/wmsdk_bundle-3.1.16/bin/wmsdk/libs/libdrv.a(mdev_iflash.o)
 .text.iflash_drv_erase
                0x00000000       0x40 /home/zhouyongjian/wangshi/wmsdk_bundle-3.1.16/bin/wmsdk/libs/libdrv.a(mdev_iflash.o)
 .text.iflash_drv_eraseall
                0x00000000       0x34 /home/zhouyongjian/wangshi/wmsdk_bundle-3.1.16/bin/wmsdk/libs/libdrv.a(mdev_iflash.o)
 .text.iflash_drv_write
                0x00000000       0x58 /home/zhouyongjian/wangshi/wmsdk_bundle-3.1.16/bin/wmsdk/libs/libdrv.a(mdev_iflash.o)
 .text          0x00000000        0x0 /home/zhouyongjian/wangshi/wmsdk_bundle-3.1.16/bin/wmsdk/libs/libdrv.a(mw300_flash.o)
 .data          0x00000000        0x0 /home/zhouyongjian/wangshi/wmsdk_bundle-3.1.16/bin/wmsdk/libs/libdrv.a(mw300_flash.o)
 .bss           0x00000000        0x0 /home/zhouyongjian/wangshi/wmsdk_bundle-3.1.16/bin/wmsdk/libs/libdrv.a(mw300_flash.o)
 .text.FLASH_ResetFastReadDual
                0x00000000       0x4c /home/zhouyongjian/wangshi/wmsdk_bundle-3.1.16/bin/wmsdk/libs/libdrv.a(mw300_flash.o)
 .text.FLASH_SelectInterface
                0x00000000       0x10 /home/zhouyongjian/wangshi/wmsdk_bundle-3.1.16/bin/wmsdk/libs/libdrv.a(mw300_flash.o)
 .text.FLASH_SetProtectionMode
                0x00000000       0x60 /home/zhouyongjian/wangshi/wmsdk_bundle-3.1.16/bin/wmsdk/libs/libdrv.a(mw300_flash.o)
 .text.FLASH_WordRead
                0x00000000       0x18 /home/zhouyongjian/wangshi/wmsdk_bundle-3.1.16/bin/wmsdk/libs/libdrv.a(mw300_flash.o)
 .text.FLASH_IsSectorBlank
                0x00000000       0x40 /home/zhouyongjian/wangshi/wmsdk_bundle-3.1.16/bin/wmsdk/libs/libdrv.a(mw300_flash.o)
 .text.FLASH_IsBlank
                0x00000000       0x2c /home/zhouyongjian/wangshi/wmsdk_bundle-3.1.16/bin/wmsdk/libs/libdrv.a(mw300_flash.o)
 .text.FLASH_ByteRead
                0x00000000       0x1a /home/zhouyongjian/wangshi/wmsdk_bundle-3.1.16/bin/wmsdk/libs/libdrv.a(mw300_flash.o)
 .text.FLASH_WordWrite
                0x00000000       0x16 /home/zhouyongjian/wangshi/wmsdk_bundle-3.1.16/bin/wmsdk/libs/libdrv.a(mw300_flash.o)
 .text.FLASH_ByteWrite
                0x00000000       0x16 /home/zhouyongjian/wangshi/wmsdk_bundle-3.1.16/bin/wmsdk/libs/libdrv.a(mw300_flash.o)
 .text          0x00000000        0x0 /home/zhouyongjian/wangshi/wmsdk_bundle-3.1.16/bin/wmsdk/libs/libdrv.a(mw300_qspi.o)
 .data          0x00000000        0x0 /home/zhouyongjian/wangshi/wmsdk_bundle-3.1.16/bin/wmsdk/libs/libdrv.a(mw300_qspi.o)
 .bss           0x00000000        0x0 /home/zhouyongjian/wangshi/wmsdk_bundle-3.1.16/bin/wmsdk/libs/libdrv.a(mw300_qspi.o)
 .text.QSPI_Reset
                0x00000000       0x18 /home/zhouyongjian/wangshi/wmsdk_bundle-3.1.16/bin/wmsdk/libs/libdrv.a(mw300_qspi.o)
 .text.QSPI_Init
                0x00000000       0x54 /home/zhouyongjian/wangshi/wmsdk_bundle-3.1.16/bin/wmsdk/libs/libdrv.a(mw300_qspi.o)
 .text.QSPI_IntMask
                0x00000000       0xfc /home/zhouyongjian/wangshi/wmsdk_bundle-3.1.16/bin/wmsdk/libs/libdrv.a(mw300_qspi.o)
 .text.QSPI_IntClr
                0x00000000        0xc /home/zhouyongjian/wangshi/wmsdk_bundle-3.1.16/bin/wmsdk/libs/libdrv.a(mw300_qspi.o)
 .text.QSPI_SetInstrCnt
                0x00000000       0x10 /home/zhouyongjian/wangshi/wmsdk_bundle-3.1.16/bin/wmsdk/libs/libdrv.a(mw300_qspi.o)
 .text.QSPI_WriteWord
                0x00000000       0x10 /home/zhouyongjian/wangshi/wmsdk_bundle-3.1.16/bin/wmsdk/libs/libdrv.a(mw300_qspi.o)
 .text.QSPI_ReadWord
                0x00000000       0x10 /home/zhouyongjian/wangshi/wmsdk_bundle-3.1.16/bin/wmsdk/libs/libdrv.a(mw300_qspi.o)
 .text.QSPI_GetStatus
                0x00000000       0x74 /home/zhouyongjian/wangshi/wmsdk_bundle-3.1.16/bin/wmsdk/libs/libdrv.a(mw300_qspi.o)
 .text.QSPI_GetIntStatus
                0x00000000       0xa8 /home/zhouyongjian/wangshi/wmsdk_bundle-3.1.16/bin/wmsdk/libs/libdrv.a(mw300_qspi.o)
 .text.QSPI_IsTransferCompleted
                0x00000000       0x14 /home/zhouyongjian/wangshi/wmsdk_bundle-3.1.16/bin/wmsdk/libs/libdrv.a(mw300_qspi.o)
 .text.QSPI_DmaCmd
                0x00000000       0x3c /home/zhouyongjian/wangshi/wmsdk_bundle-3.1.16/bin/wmsdk/libs/libdrv.a(mw300_qspi.o)
 .data          0x00000000        0x0 /home/zhouyongjian/Intelligent_AC_Infrared/gcc-arm-none-eabi-4_8-2014q2/bin/../lib/gcc/arm-none-eabi/4.8.4/armv7e-m/libgcc.a(_arm_addsubdf3.o)
 .bss           0x00000000        0x0 /home/zhouyongjian/Intelligent_AC_Infrared/gcc-arm-none-eabi-4_8-2014q2/bin/../lib/gcc/arm-none-eabi/4.8.4/armv7e-m/libgcc.a(_arm_addsubdf3.o)
 .data          0x00000000        0x0 /home/zhouyongjian/Intelligent_AC_Infrared/gcc-arm-none-eabi-4_8-2014q2/bin/../lib/gcc/arm-none-eabi/4.8.4/armv7e-m/libgcc.a(_arm_muldivdf3.o)
 .bss           0x00000000        0x0 /home/zhouyongjian/Intelligent_AC_Infrared/gcc-arm-none-eabi-4_8-2014q2/bin/../lib/gcc/arm-none-eabi/4.8.4/armv7e-m/libgcc.a(_arm_muldivdf3.o)
 .data          0x00000000        0x0 /home/zhouyongjian/Intelligent_AC_Infrared/gcc-arm-none-eabi-4_8-2014q2/bin/../lib/gcc/arm-none-eabi/4.8.4/armv7e-m/libgcc.a(_arm_fixdfsi.o)
 .bss           0x00000000        0x0 /home/zhouyongjian/Intelligent_AC_Infrared/gcc-arm-none-eabi-4_8-2014q2/bin/../lib/gcc/arm-none-eabi/4.8.4/armv7e-m/libgcc.a(_arm_fixdfsi.o)
 .data          0x00000000        0x0 /home/zhouyongjian/Intelligent_AC_Infrared/gcc-arm-none-eabi-4_8-2014q2/bin/../lib/gcc/arm-none-eabi/4.8.4/armv7e-m/libgcc.a(_aeabi_uldivmod.o)
 .bss           0x00000000        0x0 /home/zhouyongjian/Intelligent_AC_Infrared/gcc-arm-none-eabi-4_8-2014q2/bin/../lib/gcc/arm-none-eabi/4.8.4/armv7e-m/libgcc.a(_aeabi_uldivmod.o)
 .data          0x00000000        0x0 /home/zhouyongjian/Intelligent_AC_Infrared/gcc-arm-none-eabi-4_8-2014q2/bin/../lib/gcc/arm-none-eabi/4.8.4/armv7e-m/libgcc.a(bpabi.o)
 .bss           0x00000000        0x0 /home/zhouyongjian/Intelligent_AC_Infrared/gcc-arm-none-eabi-4_8-2014q2/bin/../lib/gcc/arm-none-eabi/4.8.4/armv7e-m/libgcc.a(bpabi.o)
 .data          0x00000000        0x0 /home/zhouyongjian/Intelligent_AC_Infrared/gcc-arm-none-eabi-4_8-2014q2/bin/../lib/gcc/arm-none-eabi/4.8.4/armv7e-m/libgcc.a(_dvmd_tls.o)
 .bss           0x00000000        0x0 /home/zhouyongjian/Intelligent_AC_Infrared/gcc-arm-none-eabi-4_8-2014q2/bin/../lib/gcc/arm-none-eabi/4.8.4/armv7e-m/libgcc.a(_dvmd_tls.o)
 .data          0x00000000        0x0 /home/zhouyongjian/Intelligent_AC_Infrared/gcc-arm-none-eabi-4_8-2014q2/bin/../lib/gcc/arm-none-eabi/4.8.4/armv7e-m/libgcc.a(_divdi3.o)
 .bss           0x00000000        0x0 /home/zhouyongjian/Intelligent_AC_Infrared/gcc-arm-none-eabi-4_8-2014q2/bin/../lib/gcc/arm-none-eabi/4.8.4/armv7e-m/libgcc.a(_divdi3.o)
 .ARM.extab     0x00000000        0x0 /home/zhouyongjian/Intelligent_AC_Infrared/gcc-arm-none-eabi-4_8-2014q2/bin/../lib/gcc/arm-none-eabi/4.8.4/armv7e-m/libgcc.a(_divdi3.o)
 .ARM.exidx     0x00000000        0x8 /home/zhouyongjian/Intelligent_AC_Infrared/gcc-arm-none-eabi-4_8-2014q2/bin/../lib/gcc/arm-none-eabi/4.8.4/armv7e-m/libgcc.a(_divdi3.o)
 .data          0x00000000        0x0 /home/zhouyongjian/Intelligent_AC_Infrared/gcc-arm-none-eabi-4_8-2014q2/bin/../lib/gcc/arm-none-eabi/4.8.4/armv7e-m/libgcc.a(_udivdi3.o)
 .bss           0x00000000        0x0 /home/zhouyongjian/Intelligent_AC_Infrared/gcc-arm-none-eabi-4_8-2014q2/bin/../lib/gcc/arm-none-eabi/4.8.4/armv7e-m/libgcc.a(_udivdi3.o)
 .ARM.extab     0x00000000        0x0 /home/zhouyongjian/Intelligent_AC_Infrared/gcc-arm-none-eabi-4_8-2014q2/bin/../lib/gcc/arm-none-eabi/4.8.4/armv7e-m/libgcc.a(_udivdi3.o)
 .ARM.exidx     0x00000000        0x8 /home/zhouyongjian/Intelligent_AC_Infrared/gcc-arm-none-eabi-4_8-2014q2/bin/../lib/gcc/arm-none-eabi/4.8.4/armv7e-m/libgcc.a(_udivdi3.o)
 .data          0x00000000        0x0 /home/zhouyongjian/Intelligent_AC_Infrared/gcc-arm-none-eabi-4_8-2014q2/bin/../lib/gcc/arm-none-eabi/4.8.4/../../../../arm-none-eabi/lib/armv7e-m/libg.a(lib_a-memcpy.o)
 .bss           0x00000000        0x0 /home/zhouyongjian/Intelligent_AC_Infrared/gcc-arm-none-eabi-4_8-2014q2/bin/../lib/gcc/arm-none-eabi/4.8.4/../../../../arm-none-eabi/lib/armv7e-m/libg.a(lib_a-memcpy.o)
 .text          0x00000000        0x0 /home/zhouyongjian/Intelligent_AC_Infrared/gcc-arm-none-eabi-4_8-2014q2/bin/../lib/gcc/arm-none-eabi/4.8.4/../../../../arm-none-eabi/lib/armv7e-m/libg.a(lib_a-memmove.o)
 .data          0x00000000        0x0 /home/zhouyongjian/Intelligent_AC_Infrared/gcc-arm-none-eabi-4_8-2014q2/bin/../lib/gcc/arm-none-eabi/4.8.4/../../../../arm-none-eabi/lib/armv7e-m/libg.a(lib_a-memmove.o)
 .bss           0x00000000        0x0 /home/zhouyongjian/Intelligent_AC_Infrared/gcc-arm-none-eabi-4_8-2014q2/bin/../lib/gcc/arm-none-eabi/4.8.4/../../../../arm-none-eabi/lib/armv7e-m/libg.a(lib_a-memmove.o)
 .text.memmove  0x00000000       0xc0 /home/zhouyongjian/Intelligent_AC_Infrared/gcc-arm-none-eabi-4_8-2014q2/bin/../lib/gcc/arm-none-eabi/4.8.4/../../../../arm-none-eabi/lib/armv7e-m/libg.a(lib_a-memmove.o)
 .ARM.attributes
                0x00000000       0x2e /home/zhouyongjian/Intelligent_AC_Infrared/gcc-arm-none-eabi-4_8-2014q2/bin/../lib/gcc/arm-none-eabi/4.8.4/../../../../arm-none-eabi/lib/armv7e-m/libg.a(lib_a-memmove.o)
 .debug_frame   0x00000000       0x2c /home/zhouyongjian/Intelligent_AC_Infrared/gcc-arm-none-eabi-4_8-2014q2/bin/../lib/gcc/arm-none-eabi/4.8.4/../../../../arm-none-eabi/lib/armv7e-m/libg.a(lib_a-memmove.o)
 .text          0x00000000        0x0 /home/zhouyongjian/Intelligent_AC_Infrared/gcc-arm-none-eabi-4_8-2014q2/bin/../lib/gcc/arm-none-eabi/4.8.4/../../../../arm-none-eabi/lib/armv7e-m/libg.a(lib_a-memset.o)
 .data          0x00000000        0x0 /home/zhouyongjian/Intelligent_AC_Infrared/gcc-arm-none-eabi-4_8-2014q2/bin/../lib/gcc/arm-none-eabi/4.8.4/../../../../arm-none-eabi/lib/armv7e-m/libg.a(lib_a-memset.o)
 .bss           0x00000000        0x0 /home/zhouyongjian/Intelligent_AC_Infrared/gcc-arm-none-eabi-4_8-2014q2/bin/../lib/gcc/arm-none-eabi/4.8.4/../../../../arm-none-eabi/lib/armv7e-m/libg.a(lib_a-memset.o)

Memory Configuration

Name             Origin             Length             Attributes
SRAM0            0x00100000         0x00060000         xrw
SRAM1            0x20000000         0x00020000         xrw
NVRAM            0x480c0000         0x00001000         rw
FLASHC           0x20020000         0x00008000         rw
*default*        0x00000000         0xffffffff

Linker script and memory map

                0x00000040                _rom_data = 0x40
START GROUP
LOAD /home/zhouyongjian/wangshi/wmsdk_bundle-3.1.16/bin/wmsdk/libs/libaca.a
LOAD /home/zhouyongjian/wangshi/wmsdk_bundle-3.1.16/bin/wmsdk/libs/libaescrypto.a
LOAD /home/zhouyongjian/wangshi/wmsdk_bundle-3.1.16/bin/wmsdk/libs/libapp_framework.a
LOAD /home/zhouyongjian/wangshi/wmsdk_bundle-3.1.16/bin/wmsdk/libs/libbn.a
LOAD /home/zhouyongjian/wangshi/wmsdk_bundle-3.1.16/bin/wmsdk/libs/libbtdriver.a
LOAD /home/zhouyongjian/wangshi/wmsdk_bundle-3.1.16/bin/wmsdk/libs/libc.a
LOAD /home/zhouyongjian/wangshi/wmsdk_bundle-3.1.16/bin/wmsdk/libs/libcacheprof.a
LOAD /home/zhouyongjian/wangshi/wmsdk_bundle-3.1.16/bin/wmsdk/libs/libchacha-20.a
LOAD /home/zhouyongjian/wangshi/wmsdk_bundle-3.1.16/bin/wmsdk/libs/libcli.a
LOAD /home/zhouyongjian/wangshi/wmsdk_bundle-3.1.16/bin/wmsdk/libs/libctaocrypt.a
LOAD /home/zhouyongjian/wangshi/wmsdk_bundle-3.1.16/bin/wmsdk/libs/libcurve25519.a
LOAD /home/zhouyongjian/wangshi/wmsdk_bundle-3.1.16/bin/wmsdk/libs/libcyassl.a
LOAD /home/zhouyongjian/wangshi/wmsdk_bundle-3.1.16/bin/wmsdk/libs/libdhcpd.a
LOAD /home/zhouyongjian/wangshi/wmsdk_bundle-3.1.16/bin/wmsdk/libs/libdiagnostics.a
LOAD /home/zhouyongjian/wangshi/wmsdk_bundle-3.1.16/bin/wmsdk/libs/libdrv.a
LOAD /home/zhouyongjian/wangshi/wmsdk_bundle-3.1.16/bin/wmsdk/libs/libed25519.a
LOAD /home/zhouyongjian/wangshi/wmsdk_bundle-3.1.16/bin/wmsdk/libs/libezxml.a
LOAD /home/zhouyongjian/wangshi/wmsdk_bundle-3.1.16/bin/wmsdk/libs/libfreertos.a
LOAD /home/zhouyongjian/wangshi/wmsdk_bundle-3.1.16/bin/wmsdk/libs/libftfs.a
LOAD /home/zhouyongjian/wangshi/wmsdk_bundle-3.1.16/bin/wmsdk/libs/libhealthmon.a
LOAD /home/zhouyongjian/wangshi/wmsdk_bundle-3.1.16/bin/wmsdk/libs/libhkdf-sha512.a
LOAD /home/zhouyongjian/wangshi/wmsdk_bundle-3.1.16/bin/wmsdk/libs/libhttpclient.a
LOAD /home/zhouyongjian/wangshi/wmsdk_bundle-3.1.16/bin/wmsdk/libs/libhttpd.a
LOAD /home/zhouyongjian/wangshi/wmsdk_bundle-3.1.16/bin/wmsdk/libs/libjson.a
LOAD /home/zhouyongjian/wangshi/wmsdk_bundle-3.1.16/bin/wmsdk/libs/libjson_generator.a
LOAD /home/zhouyongjian/wangshi/wmsdk_bundle-3.1.16/bin/wmsdk/libs/libled_indicator.a
LOAD /home/zhouyongjian/wangshi/wmsdk_bundle-3.1.16/bin/wmsdk/libs/liblwip.a
LOAD /home/zhouyongjian/wangshi/wmsdk_bundle-3.1.16/bin/wmsdk/libs/libmdev.a
LOAD /home/zhouyongjian/wangshi/wmsdk_bundle-3.1.16/bin/wmsdk/libs/libmdns.a
LOAD /home/zhouyongjian/wangshi/wmsdk_bundle-3.1.16/bin/wmsdk/libs/libnet.a
LOAD /home/zhouyongjian/wangshi/wmsdk_bundle-3.1.16/bin/wmsdk/libs/libnwutils.a
LOAD /home/zhouyongjian/wangshi/wmsdk_bundle-3.1.16/bin/wmsdk/libs/libos.a
LOAD /home/zhouyongjian/wangshi/wmsdk_bundle-3.1.16/bin/wmsdk/libs/liboverlays.a
LOAD /home/zhouyongjian/wangshi/wmsdk_bundle-3.1.16/bin/wmsdk/libs/libpart.a
LOAD /home/zhouyongjian/wangshi/wmsdk_bundle-3.1.16/bin/wmsdk/libs/libpoly1305.a
LOAD /home/zhouyongjian/wangshi/wmsdk_bundle-3.1.16/bin/wmsdk/libs/libprovisioning.a
LOAD /home/zhouyongjian/wangshi/wmsdk_bundle-3.1.16/bin/wmsdk/libs/libpsm.a
LOAD /home/zhouyongjian/wangshi/wmsdk_bundle-3.1.16/bin/wmsdk/libs/libpush_button.a
LOAD /home/zhouyongjian/wangshi/wmsdk_bundle-3.1.16/bin/wmsdk/libs/libpwrmgr.a
LOAD /home/zhouyongjian/wangshi/wmsdk_bundle-3.1.16/bin/wmsdk/libs/librfget.a
LOAD /home/zhouyongjian/wangshi/wmsdk_bundle-3.1.16/bin/wmsdk/libs/libsrp6a.a
LOAD /home/zhouyongjian/wangshi/wmsdk_bundle-3.1.16/bin/wmsdk/libs/libsysinfo.a
LOAD /home/zhouyongjian/wangshi/wmsdk_bundle-3.1.16/bin/wmsdk/libs/libtelnetd.a
LOAD /home/zhouyongjian/wangshi/wmsdk_bundle-3.1.16/bin/wmsdk/libs/libtls.a
LOAD /home/zhouyongjian/wangshi/wmsdk_bundle-3.1.16/bin/wmsdk/libs/libttcp.a
LOAD /home/zhouyongjian/wangshi/wmsdk_bundle-3.1.16/bin/wmsdk/libs/libutil.a
LOAD /home/zhouyongjian/wangshi/wmsdk_bundle-3.1.16/bin/wmsdk/libs/libwebsocket.a
LOAD /home/zhouyongjian/wangshi/wmsdk_bundle-3.1.16/bin/wmsdk/libs/libwifidriver.a
LOAD /home/zhouyongjian/wangshi/wmsdk_bundle-3.1.16/bin/wmsdk/libs/libwlcmgr.a
LOAD /home/zhouyongjian/wangshi/wmsdk_bundle-3.1.16/bin/wmsdk/libs/libwmcrypto.a
LOAD /home/zhouyongjian/wangshi/wmsdk_bundle-3.1.16/bin/wmsdk/libs/libwmstdio.a
LOAD /home/zhouyongjian/wangshi/wmsdk_bundle-3.1.16/bin/wmsdk/libs/libwmtime.a
LOAD /home/zhouyongjian/wangshi/wmsdk_bundle-3.1.16/bin/wmsdk/libs/libwps.a
LOAD /home/zhouyongjian/wangshi/wmsdk_bundle-3.1.16/bin/wmsdk/libs/libxively.a
LOAD /home/zhouyongjian/wangshi/wmsdk_bundle-3.1.16/bin/wmsdk/libs/libxz.a
LOAD obj/board.o
LOAD obj/electric_measure.o
LOAD obj/C_HLW8012_debug.o
END GROUP
START GROUP
LOAD /home/zhouyongjian/Intelligent_AC_Infrared/gcc-arm-none-eabi-4_8-2014q2/bin/../lib/gcc/arm-none-eabi/4.8.4/armv7e-m/libgcc.a
LOAD /home/zhouyongjian/Intelligent_AC_Infrared/gcc-arm-none-eabi-4_8-2014q2/bin/../lib/gcc/arm-none-eabi/4.8.4/../../../../arm-none-eabi/lib/armv7e-m/libg.a
LOAD /home/zhouyongjian/Intelligent_AC_Infrared/gcc-arm-none-eabi-4_8-2014q2/bin/../lib/gcc/arm-none-eabi/4.8.4/../../../../arm-none-eabi/lib/armv7e-m/libc.a
END GROUP
                0x20020000                _estack = 0x20020000
                0x00012000                _heap_size = 0x12000
                0x00000800                _min_stack_size = 0x800
                0x1f000000                _flashc_mem_start = 0x1f000000
                0x00001000                _keystore_size = 0x1000
                0x0015f000                _e_sram0 = ((ORIGIN (SRAM0) + 0x60000) - _keystore_size)

.text           0x00100000     0x68a8
                0x00100000                . = ALIGN (0x100)
 *(.isr_vector)
 .isr_vector    0x00100000      0x13c /home/zhouyongjian/wangshi/wmsdk_bundle-3.1.16/bin/wmsdk/libs/libdrv.a(mdev_startup.o)
                0x00100000                __vector_table
                0x0010013c                . = ALIGN (0x4)
 *(.text.Reset_IRQHandler)
 .text.Reset_IRQHandler
                0x0010013c        0xc /home/zhouyongjian/wangshi/wmsdk_bundle-3.1.16/bin/wmsdk/libs/libdrv.a(mdev_startup.o)
                0x0010013c                Reset_IRQHandler
 *(.text .text.* .gnu.linkonce.t.*)
 .text.Default_IRQHandler
                0x00100148       0x12 /home/zhouyongjian/wangshi/wmsdk_bundle-3.1.16/bin/wmsdk/libs/libdrv.a(mdev_startup.o)
                0x00100148                ExtPin24_IRQHandler
                0x00100148                ExtPin11_IRQHandler
                0x00100148                ExtPin8_IRQHandler
                0x00100148                I2C0_IRQHandler
                0x00100148                ExtPin4_IRQHandler
                0x00100148                ExtPin20_IRQHandler
                0x00100148                ExtPin13_IRQHandler
                0x00100148                BRNDET_IRQHandler
                0x00100148                SDIO_IRQHandler
                0x00100148                I2C1_IRQHandler
                0x00100148                ExtPin5_IRQHandler
                0x00100148                ExtPin27_IRQHandler
                0x00100148                ACOMPWKUP_IRQHandler
                0x00100148                ExtPin9_IRQHandler
                0x00100148                ExtPin17_IRQHandler
                0x00100148                ADC0_IRQHandler
                0x00100148                BusFault_IRQHandler
                0x00100148                SSP0_IRQHandler
                0x00100148                ExtPin21_IRQHandler
                0x00100148                ExtPin14_IRQHandler
                0x00100148                ExtPin23_IRQHandler
                0x00100148                ACOMP_IRQHandler
                0x00100148                ExtPin12_IRQHandler
                0x00100148                ExtPin16_IRQHandler
                0x00100148                ExtPin3_IRQHandler
                0x00100148                SSP1_IRQHandler
                0x00100148                ULPCOMP_IRQHandler
                0x00100148                UsageFault_IRQHandler
                0x00100148                USB_IRQHandler
                0x00100148                ExtPin19_IRQHandler
                0x00100148                WDT_IRQHandler
                0x00100148                DebugMonitor_IRQHandler
                0x00100148                PLL_IRQHandler
                0x00100148                Default_IRQHandler
                0x00100148                MemManage_IRQHandler
                0x00100148                SSP2_IRQHandler
                0x00100148                DAC_IRQHandler
                0x00100148                ExtPin26_IRQHandler
                0x00100148                AES_IRQHandler
                0x00100148                ExtPin6_IRQHandler
                0x00100148                CRC_IRQHandler
                0x00100148                ExtPin25_IRQHandler
                0x00100148                NMI_IRQHandler
                0x00100148                ExtPin18_IRQHandler
                0x00100148                ExtPin22_IRQHandler
                0x00100148                ExtPin10_IRQHandler
                0x00100148                ExtPin7_IRQHandler
                0x00100148                ExtPin15_IRQHandler
 .text.HardFault_IRQHandler
                0x0010015a        0xc /home/zhouyongjian/wangshi/wmsdk_bundle-3.1.16/bin/wmsdk/libs/libdrv.a(mdev_startup.o)
                0x0010015a                HardFault_IRQHandler
 *fill*         0x00100166        0x2 
 .text.Setup_RC32M
                0x00100168       0xa0 /home/zhouyongjian/wangshi/wmsdk_bundle-3.1.16/bin/wmsdk/libs/libdrv.a(mdev_startup.o)
 .text.CLK_Init
                0x00100208      0x1fc /home/zhouyongjian/wangshi/wmsdk_bundle-3.1.16/bin/wmsdk/libs/libdrv.a(mdev_startup.o)
                0x00100208                CLK_Init
 .text.Reset_IRQHandler_C
                0x00100404       0xc8 /home/zhouyongjian/wangshi/wmsdk_bundle-3.1.16/bin/wmsdk/libs/libdrv.a(mdev_startup.o)
                0x00100404                Reset_IRQHandler_C
 .text.Default_IRQHandler_C
                0x001004cc       0xa4 /home/zhouyongjian/wangshi/wmsdk_bundle-3.1.16/bin/wmsdk/libs/libdrv.a(mdev_startup.o)
                0x001004cc                Default_IRQHandler_C
 .text.HardFault_IRQHandler_C
                0x00100570       0xf8 /home/zhouyongjian/wangshi/wmsdk_bundle-3.1.16/bin/wmsdk/libs/libdrv.a(mdev_startup.o)
                0x00100570                HardFault_IRQHandler_C
 .text.CLK_SystemClkSrc
                0x00100668       0x98 /home/zhouyongjian/wangshi/wmsdk_bundle-3.1.16/bin/wmsdk/libs/libdrv.a(mw300_clock.o)
                0x00100668                CLK_SystemClkSrc
 .text.CLK_GetSystemClk
                0x00100700       0x80 /home/zhouyongjian/wangshi/wmsdk_bundle-3.1.16/bin/wmsdk/libs/libdrv.a(mw300_clock.o)
                0x00100700                CLK_GetSystemClk
 .text.CLK_GPTInternalClkSrc
                0x00100780      0x1a8 /home/zhouyongjian/wangshi/wmsdk_bundle-3.1.16/bin/wmsdk/libs/libdrv.a(mw300_clock.o)
                0x00100780                CLK_GPTInternalClkSrc
 .text.CLK_SfllEnable
                0x00100928       0x50 /home/zhouyongjian/wangshi/wmsdk_bundle-3.1.16/bin/wmsdk/libs/libdrv.a(mw300_clock.o)
                0x00100928                CLK_SfllEnable
 .text.CLK_SfllDisable
                0x00100978       0x10 /home/zhouyongjian/wangshi/wmsdk_bundle-3.1.16/bin/wmsdk/libs/libdrv.a(mw300_clock.o)
                0x00100978                CLK_SfllDisable
 .text.CLK_ModuleClkEnable
                0x00100988      0x188 /home/zhouyongjian/wangshi/wmsdk_bundle-3.1.16/bin/wmsdk/libs/libdrv.a(mw300_clock.o)
                0x00100988                CLK_ModuleClkEnable
 .text.CLK_ModuleClkDivider
                0x00100b10      0x180 /home/zhouyongjian/wangshi/wmsdk_bundle-3.1.16/bin/wmsdk/libs/libdrv.a(mw300_clock.o)
                0x00100b10                CLK_ModuleClkDivider
 .text.CLK_RefClkEnable
                0x00100c90       0x38 /home/zhouyongjian/wangshi/wmsdk_bundle-3.1.16/bin/wmsdk/libs/libdrv.a(mw300_clock.o)
                0x00100c90                CLK_RefClkEnable
 .text.CLK_RC32MCalibration
                0x00100cc8       0xd4 /home/zhouyongjian/wangshi/wmsdk_bundle-3.1.16/bin/wmsdk/libs/libdrv.a(mw300_clock.o)
                0x00100cc8                CLK_RC32MCalibration
 .text.CLK_GetClkStatus
                0x00100d9c       0x70 /home/zhouyongjian/wangshi/wmsdk_bundle-3.1.16/bin/wmsdk/libs/libdrv.a(mw300_clock.o)
                0x00100d9c                CLK_GetClkStatus
 .text.RC32M_IRQHandler
                0x00100e0c       0x54 /home/zhouyongjian/wangshi/wmsdk_bundle-3.1.16/bin/wmsdk/libs/libdrv.a(mw300_clock.o)
                0x00100e0c                RC32M_IRQHandler
 .text.install_int_callback
                0x00100e60       0x10 /home/zhouyongjian/wangshi/wmsdk_bundle-3.1.16/bin/wmsdk/libs/libdrv.a(mw300_driver.o)
                0x00100e60                install_int_callback
 .text.PMU_ConfigWakeupPin
                0x00100e70       0x28 /home/zhouyongjian/wangshi/wmsdk_bundle-3.1.16/bin/wmsdk/libs/libdrv.a(mw300_pmu.o)
                0x00100e70                PMU_ConfigWakeupPin
 .text.PMU_GetLastResetCause
                0x00100e98       0x10 /home/zhouyongjian/wangshi/wmsdk_bundle-3.1.16/bin/wmsdk/libs/libdrv.a(mw300_pmu.o)
                0x00100e98                PMU_GetLastResetCause
 .text.PMU_ClrLastResetCause
                0x00100ea8       0x48 /home/zhouyongjian/wangshi/wmsdk_bundle-3.1.16/bin/wmsdk/libs/libdrv.a(mw300_pmu.o)
                0x00100ea8                PMU_ClrLastResetCause
 .text.PMU_PowerOnVDDIO
                0x00100ef0       0x90 /home/zhouyongjian/wangshi/wmsdk_bundle-3.1.16/bin/wmsdk/libs/libdrv.a(mw300_pmu.o)
                0x00100ef0                PMU_PowerOnVDDIO
 .text.PMU_VbatBrndetCmd
                0x00100f80       0x1c /home/zhouyongjian/wangshi/wmsdk_bundle-3.1.16/bin/wmsdk/libs/libdrv.a(mw300_pmu.o)
                0x00100f80                PMU_VbatBrndetCmd
 .text.PMU_VbatBrndetRstCmd
                0x00100f9c       0x18 /home/zhouyongjian/wangshi/wmsdk_bundle-3.1.16/bin/wmsdk/libs/libdrv.a(mw300_pmu.o)
                0x00100f9c                PMU_VbatBrndetRstCmd
 .text.PMU_PowerOnWLAN
                0x00100fb4       0x14 /home/zhouyongjian/wangshi/wmsdk_bundle-3.1.16/bin/wmsdk/libs/libdrv.a(mw300_pmu.o)
                0x00100fb4                PMU_PowerOnWLAN
 .text.ExtPin0_IRQHandler
                0x00100fc8       0x3c /home/zhouyongjian/wangshi/wmsdk_bundle-3.1.16/bin/wmsdk/libs/libdrv.a(mw300_pmu.o)
                0x00100fc8                ExtPin0_IRQHandler
 .text.ExtPin1_IRQHandler
                0x00101004       0x3c /home/zhouyongjian/wangshi/wmsdk_bundle-3.1.16/bin/wmsdk/libs/libdrv.a(mw300_pmu.o)
                0x00101004                ExtPin1_IRQHandler
 .text.WIFIWKUP_IRQHandler
                0x00101040       0x40 /home/zhouyongjian/wangshi/wmsdk_bundle-3.1.16/bin/wmsdk/libs/libdrv.a(mw300_pmu.o)
                0x00101040                WIFIWKUP_IRQHandler
 .text.GPIO_PinMuxFun
                0x00101080       0x40 /home/zhouyongjian/wangshi/wmsdk_bundle-3.1.16/bin/wmsdk/libs/libdrv.a(mw300_pinmux.o)
                0x00101080                GPIO_PinMuxFun
 .text.RTC_IRQHandler
                0x001010c0       0x44 /home/zhouyongjian/wangshi/wmsdk_bundle-3.1.16/bin/wmsdk/libs/libdrv.a(mw300_rtc.o)
                0x001010c0                RTC_IRQHandler
 .text.gpt_drv_open
                0x00101104       0x68 /home/zhouyongjian/wangshi/wmsdk_bundle-3.1.16/bin/wmsdk/libs/libdrv.a(mdev_gpt.o)
                0x00101104                gpt_drv_open
 .text.gpt_drv_set
                0x0010116c       0x1e /home/zhouyongjian/wangshi/wmsdk_bundle-3.1.16/bin/wmsdk/libs/libdrv.a(mdev_gpt.o)
                0x0010116c                gpt_drv_set
 .text.gpt_drv_setcb
                0x0010118a        0xe /home/zhouyongjian/wangshi/wmsdk_bundle-3.1.16/bin/wmsdk/libs/libdrv.a(mdev_gpt.o)
                0x0010118a                gpt_drv_setcb
 .text.gpt_drv_start
                0x00101198       0x64 /home/zhouyongjian/wangshi/wmsdk_bundle-3.1.16/bin/wmsdk/libs/libdrv.a(mdev_gpt.o)
                0x00101198                gpt_drv_start
 .text.gpt_drv_init
                0x001011fc       0x94 /home/zhouyongjian/wangshi/wmsdk_bundle-3.1.16/bin/wmsdk/libs/libdrv.a(mdev_gpt.o)
                0x001011fc                gpt_drv_init
 .text.GPT_IRQHandler
                0x00101290       0xe0 /home/zhouyongjian/wangshi/wmsdk_bundle-3.1.16/bin/wmsdk/libs/libdrv.a(mw300_gpt.o)
 .text.GPT_Init
                0x00101370       0x44 /home/zhouyongjian/wangshi/wmsdk_bundle-3.1.16/bin/wmsdk/libs/libdrv.a(mw300_gpt.o)
                0x00101370                GPT_Init
 .text.GPT_CounterReset
                0x001013b4       0x38 /home/zhouyongjian/wangshi/wmsdk_bundle-3.1.16/bin/wmsdk/libs/libdrv.a(mw300_gpt.o)
                0x001013b4                GPT_CounterReset
 .text.GPT_Start
                0x001013ec       0x14 /home/zhouyongjian/wangshi/wmsdk_bundle-3.1.16/bin/wmsdk/libs/libdrv.a(mw300_gpt.o)
                0x001013ec                GPT_Start
 .text.GPT_IntMask
                0x00101400       0x84 /home/zhouyongjian/wangshi/wmsdk_bundle-3.1.16/bin/wmsdk/libs/libdrv.a(mw300_gpt.o)
                0x00101400                GPT_IntMask
 .text.GPT0_IRQHandler
                0x00101484        0x8 /home/zhouyongjian/wangshi/wmsdk_bundle-3.1.16/bin/wmsdk/libs/libdrv.a(mw300_gpt.o)
                0x00101484                GPT0_IRQHandler
 .text.GPT1_IRQHandler
                0x0010148c        0x8 /home/zhouyongjian/wangshi/wmsdk_bundle-3.1.16/bin/wmsdk/libs/libdrv.a(mw300_gpt.o)
                0x0010148c                GPT1_IRQHandler
 .text.GPT2_IRQHandler
                0x00101494        0x8 /home/zhouyongjian/wangshi/wmsdk_bundle-3.1.16/bin/wmsdk/libs/libdrv.a(mw300_gpt.o)
                0x00101494                GPT2_IRQHandler
 .text.GPT3_IRQHandler
                0x0010149c        0x8 /home/zhouyongjian/wangshi/wmsdk_bundle-3.1.16/bin/wmsdk/libs/libdrv.a(mw300_gpt.o)
                0x0010149c                GPT3_IRQHandler
 .text.prvCopyDataToQueue
                0x001014a4       0x6c /home/zhouyongjian/wangshi/wmsdk_bundle-3.1.16/bin/wmsdk/libs/libfreertos.a(queue.o)
 .text.prvCopyDataFromQueue
                0x00101510       0x28 /home/zhouyongjian/wangshi/wmsdk_bundle-3.1.16/bin/wmsdk/libs/libfreertos.a(queue.o)
 .text.prvUnlockQueue
                0x00101538       0x90 /home/zhouyongjian/wangshi/wmsdk_bundle-3.1.16/bin/wmsdk/libs/libfreertos.a(queue.o)
 .text.xQueueCreate
                0x001015c8       0x70 /home/zhouyongjian/wangshi/wmsdk_bundle-3.1.16/bin/wmsdk/libs/libfreertos.a(queue.o)
                0x001015c8                xQueueCreate
 .text.xQueueGenericSend
                0x00101638       0xe0 /home/zhouyongjian/wangshi/wmsdk_bundle-3.1.16/bin/wmsdk/libs/libfreertos.a(queue.o)
                0x00101638                xQueueGenericSend
 .text.xQueueCreateMutex
                0x00101718       0x44 /home/zhouyongjian/wangshi/wmsdk_bundle-3.1.16/bin/wmsdk/libs/libfreertos.a(queue.o)
                0x00101718                xQueueCreateMutex
 .text.xQueueGenericSendFromISR
                0x0010175c       0x54 /home/zhouyongjian/wangshi/wmsdk_bundle-3.1.16/bin/wmsdk/libs/libfreertos.a(queue.o)
                0x0010175c                xQueueGenericSendFromISR
 .text.xQueueGenericReceive
                0x001017b0      0x118 /home/zhouyongjian/wangshi/wmsdk_bundle-3.1.16/bin/wmsdk/libs/libfreertos.a(queue.o)
                0x001017b0                xQueueGenericReceive
 .text.vQueueWaitForMessageRestricted
                0x001018c8       0x3c /home/zhouyongjian/wangshi/wmsdk_bundle-3.1.16/bin/wmsdk/libs/libfreertos.a(queue.o)
                0x001018c8                vQueueWaitForMessageRestricted
 .text.prvAddCurrentTaskToDelayedList
                0x00101904       0x50 /home/zhouyongjian/wangshi/wmsdk_bundle-3.1.16/bin/wmsdk/libs/libfreertos.a(tasks.o)
 .text.xTaskGenericCreate
                0x00101954      0x1c4 /home/zhouyongjian/wangshi/wmsdk_bundle-3.1.16/bin/wmsdk/libs/libfreertos.a(tasks.o)
                0x00101954                xTaskGenericCreate
 .text.vTaskDelete
                0x00101b18       0x90 /home/zhouyongjian/wangshi/wmsdk_bundle-3.1.16/bin/wmsdk/libs/libfreertos.a(tasks.o)
                0x00101b18                vTaskDelete
 .text.vTaskStartScheduler
                0x00101ba8       0x58 /home/zhouyongjian/wangshi/wmsdk_bundle-3.1.16/bin/wmsdk/libs/libfreertos.a(tasks.o)
                0x00101ba8                vTaskStartScheduler
 .text.vTaskSuspendAll
                0x00101c00       0x10 /home/zhouyongjian/wangshi/wmsdk_bundle-3.1.16/bin/wmsdk/libs/libfreertos.a(tasks.o)
                0x00101c00                vTaskSuspendAll
 .text.xTaskGetTickCount
                0x00101c10       0x18 /home/zhouyongjian/wangshi/wmsdk_bundle-3.1.16/bin/wmsdk/libs/libfreertos.a(tasks.o)
                0x00101c10                xTaskGetTickCount
 .text.vTaskIncrementTick
                0x00101c28      0x120 /home/zhouyongjian/wangshi/wmsdk_bundle-3.1.16/bin/wmsdk/libs/libfreertos.a(tasks.o)
                0x00101c28                vTaskIncrementTick
 .text.xTaskResumeAll
                0x00101d48       0xd4 /home/zhouyongjian/wangshi/wmsdk_bundle-3.1.16/bin/wmsdk/libs/libfreertos.a(tasks.o)
                0x00101d48                xTaskResumeAll
 .text.vTaskDelay
                0x00101e1c       0x50 /home/zhouyongjian/wangshi/wmsdk_bundle-3.1.16/bin/wmsdk/libs/libfreertos.a(tasks.o)
                0x00101e1c                vTaskDelay
 .text.prvIdleTask
                0x00101e6c       0x98 /home/zhouyongjian/wangshi/wmsdk_bundle-3.1.16/bin/wmsdk/libs/libfreertos.a(tasks.o)
 .text.vTaskSwitchContext
                0x00101f04      0x104 /home/zhouyongjian/wangshi/wmsdk_bundle-3.1.16/bin/wmsdk/libs/libfreertos.a(tasks.o)
                0x00101f04                vTaskSwitchContext
 .text.vTaskSuspend
                0x00102008       0x74 /home/zhouyongjian/wangshi/wmsdk_bundle-3.1.16/bin/wmsdk/libs/libfreertos.a(tasks.o)
                0x00102008                vTaskSuspend
 .text.vTaskPlaceOnEventList
                0x0010207c       0x44 /home/zhouyongjian/wangshi/wmsdk_bundle-3.1.16/bin/wmsdk/libs/libfreertos.a(tasks.o)
                0x0010207c                vTaskPlaceOnEventList
 .text.vTaskPlaceOnEventListRestricted
                0x001020c0       0x2c /home/zhouyongjian/wangshi/wmsdk_bundle-3.1.16/bin/wmsdk/libs/libfreertos.a(tasks.o)
                0x001020c0                vTaskPlaceOnEventListRestricted
 .text.xTaskRemoveFromEventList
                0x001020ec       0x6c /home/zhouyongjian/wangshi/wmsdk_bundle-3.1.16/bin/wmsdk/libs/libfreertos.a(tasks.o)
                0x001020ec                xTaskRemoveFromEventList
 .text.vTaskSetTimeOutState
                0x00102158       0x18 /home/zhouyongjian/wangshi/wmsdk_bundle-3.1.16/bin/wmsdk/libs/libfreertos.a(tasks.o)
                0x00102158                vTaskSetTimeOutState
 .text.xTaskCheckForTimeOut
                0x00102170       0x74 /home/zhouyongjian/wangshi/wmsdk_bundle-3.1.16/bin/wmsdk/libs/libfreertos.a(tasks.o)
                0x00102170                xTaskCheckForTimeOut
 .text.vTaskMissedYield
                0x001021e4        0xc /home/zhouyongjian/wangshi/wmsdk_bundle-3.1.16/bin/wmsdk/libs/libfreertos.a(tasks.o)
                0x001021e4                vTaskMissedYield
 .text.xTaskGetCurrentTaskHandle
                0x001021f0        0xc /home/zhouyongjian/wangshi/wmsdk_bundle-3.1.16/bin/wmsdk/libs/libfreertos.a(tasks.o)
                0x001021f0                xTaskGetCurrentTaskHandle
 .text.xTaskGetSchedulerState
                0x001021fc       0x1c /home/zhouyongjian/wangshi/wmsdk_bundle-3.1.16/bin/wmsdk/libs/libfreertos.a(tasks.o)
                0x001021fc                xTaskGetSchedulerState
 .text.vTaskPriorityInherit
                0x00102218       0x68 /home/zhouyongjian/wangshi/wmsdk_bundle-3.1.16/bin/wmsdk/libs/libfreertos.a(tasks.o)
                0x00102218                vTaskPriorityInherit
 .text.vTaskPriorityDisinherit
                0x00102280       0x48 /home/zhouyongjian/wangshi/wmsdk_bundle-3.1.16/bin/wmsdk/libs/libfreertos.a(tasks.o)
                0x00102280                vTaskPriorityDisinherit
 .text.get_current_taskname
                0x001022c8        0xc /home/zhouyongjian/wangshi/wmsdk_bundle-3.1.16/bin/wmsdk/libs/libfreertos.a(tasks.o)
                0x001022c8                get_current_taskname
 .text.prvCheckForValidListAndQueue
                0x001022d4       0x54 /home/zhouyongjian/wangshi/wmsdk_bundle-3.1.16/bin/wmsdk/libs/libfreertos.a(timers.o)
 .text.prvInsertTimerInActiveList
                0x00102328       0x44 /home/zhouyongjian/wangshi/wmsdk_bundle-3.1.16/bin/wmsdk/libs/libfreertos.a(timers.o)
 .text.xTimerCreateTimerTask
                0x0010236c       0x38 /home/zhouyongjian/wangshi/wmsdk_bundle-3.1.16/bin/wmsdk/libs/libfreertos.a(timers.o)
                0x0010236c                xTimerCreateTimerTask
 .text.xTimerGenericCommand
                0x001023a4       0x50 /home/zhouyongjian/wangshi/wmsdk_bundle-3.1.16/bin/wmsdk/libs/libfreertos.a(timers.o)
                0x001023a4                xTimerGenericCommand
 .text.prvSwitchTimerLists.isra.1
                0x001023f4       0x7c /home/zhouyongjian/wangshi/wmsdk_bundle-3.1.16/bin/wmsdk/libs/libfreertos.a(timers.o)
 .text.prvTimerTask
                0x00102470      0x158 /home/zhouyongjian/wangshi/wmsdk_bundle-3.1.16/bin/wmsdk/libs/libfreertos.a(timers.o)
 .text.pxPortInitialiseStack
                0x001025c8       0x20 /home/zhouyongjian/wangshi/wmsdk_bundle-3.1.16/bin/wmsdk/libs/libfreertos.a(port.o)
                0x001025c8                pxPortInitialiseStack
 .text.SVC_IRQHandler
                0x001025e8       0x20 /home/zhouyongjian/wangshi/wmsdk_bundle-3.1.16/bin/wmsdk/libs/libfreertos.a(port.o)
                0x001025e8                SVC_IRQHandler
 .text.vPortStartFirstTask
                0x00102608       0x14 /home/zhouyongjian/wangshi/wmsdk_bundle-3.1.16/bin/wmsdk/libs/libfreertos.a(port.o)
                0x00102608                vPortStartFirstTask
 .text.xPortStartScheduler
                0x0010261c       0x50 /home/zhouyongjian/wangshi/wmsdk_bundle-3.1.16/bin/wmsdk/libs/libfreertos.a(port.o)
                0x0010261c                xPortStartScheduler
 .text.vPortYieldFromISR
                0x0010266c       0x14 /home/zhouyongjian/wangshi/wmsdk_bundle-3.1.16/bin/wmsdk/libs/libfreertos.a(port.o)
                0x0010266c                vPortYieldFromISR
 .text.vPortEnterCritical
                0x00102680       0x18 /home/zhouyongjian/wangshi/wmsdk_bundle-3.1.16/bin/wmsdk/libs/libfreertos.a(port.o)
                0x00102680                vPortEnterCritical
 .text.vPortExitCritical
                0x00102698       0x18 /home/zhouyongjian/wangshi/wmsdk_bundle-3.1.16/bin/wmsdk/libs/libfreertos.a(port.o)
                0x00102698                vPortExitCritical
 .text.PendSV_IRQHandler
                0x001026b0       0x3c /home/zhouyongjian/wangshi/wmsdk_bundle-3.1.16/bin/wmsdk/libs/libfreertos.a(port.o)
                0x001026b0                PendSV_IRQHandler
 .text.SysTick_IRQHandler
                0x001026ec       0x24 /home/zhouyongjian/wangshi/wmsdk_bundle-3.1.16/bin/wmsdk/libs/libfreertos.a(port.o)
                0x001026ec                SysTick_IRQHandler
 .text.prvInsertBlockIntoFreeList
                0x00102710       0xa0 /home/zhouyongjian/wangshi/wmsdk_bundle-3.1.16/bin/wmsdk/libs/libfreertos.a(heap_4.o)
 .text.prvHeapInit
                0x001027b0       0x98 /home/zhouyongjian/wangshi/wmsdk_bundle-3.1.16/bin/wmsdk/libs/libfreertos.a(heap_4.o)
                0x001027b0                prvHeapInit
 .text.pvPortMalloc
                0x00102848       0xe8 /home/zhouyongjian/wangshi/wmsdk_bundle-3.1.16/bin/wmsdk/libs/libfreertos.a(heap_4.o)
                0x00102848                pvPortMalloc
 .text.vPortFree
                0x00102930       0x5c /home/zhouyongjian/wangshi/wmsdk_bundle-3.1.16/bin/wmsdk/libs/libfreertos.a(heap_4.o)
                0x00102930                vPortFree
 .text.vListInitialise
                0x0010298c       0x18 /home/zhouyongjian/wangshi/wmsdk_bundle-3.1.16/bin/wmsdk/libs/libfreertos.a(list.o)
                0x0010298c                vListInitialise
 .text.vListInitialiseItem
                0x001029a4        0x8 /home/zhouyongjian/wangshi/wmsdk_bundle-3.1.16/bin/wmsdk/libs/libfreertos.a(list.o)
                0x001029a4                vListInitialiseItem
 .text.vListInsertEnd
                0x001029ac       0x1c /home/zhouyongjian/wangshi/wmsdk_bundle-3.1.16/bin/wmsdk/libs/libfreertos.a(list.o)
                0x001029ac                vListInsertEnd
 .text.vListInsert
                0x001029c8       0x3c /home/zhouyongjian/wangshi/wmsdk_bundle-3.1.16/bin/wmsdk/libs/libfreertos.a(list.o)
                0x001029c8                vListInsert
 .text.vListRemove
                0x00102a04       0x28 /home/zhouyongjian/wangshi/wmsdk_bundle-3.1.16/bin/wmsdk/libs/libfreertos.a(list.o)
                0x00102a04                vListRemove
 .text.mdev_register
                0x00102a2c       0x50 /home/zhouyongjian/wangshi/wmsdk_bundle-3.1.16/bin/wmsdk/libs/libmdev.a(mdev.o)
                0x00102a2c                mdev_register
 .text.mdev_get_handle
                0x00102a7c       0x28 /home/zhouyongjian/wangshi/wmsdk_bundle-3.1.16/bin/wmsdk/libs/libmdev.a(mdev.o)
                0x00102a7c                mdev_get_handle
 .text.app_start
                0x00102aa4       0x34 /home/zhouyongjian/wangshi/wmsdk_bundle-3.1.16/bin/wmsdk/libs/libos.a(os.o)
                0x00102aa4                app_start
 .text.os_init  0x00102ad8       0x34 /home/zhouyongjian/wangshi/wmsdk_bundle-3.1.16/bin/wmsdk/libs/libos.a(os.o)
                0x00102ad8                os_init
 .text.vApplicationStackOverflowHook
                0x00102b0c       0x10 /home/zhouyongjian/wangshi/wmsdk_bundle-3.1.16/bin/wmsdk/libs/libos.a(os.o)
                0x00102b0c                vApplicationStackOverflowHook
 .text.vApplicationTickHook
                0x00102b1c       0x18 /home/zhouyongjian/wangshi/wmsdk_bundle-3.1.16/bin/wmsdk/libs/libos.a(os.o)
                0x00102b1c                vApplicationTickHook
 .text.vApplicationIdleHook
                0x00102b34       0x18 /home/zhouyongjian/wangshi/wmsdk_bundle-3.1.16/bin/wmsdk/libs/libos.a(os.o)
                0x00102b34                vApplicationIdleHook
 .text.boot_init
                0x00102b4c       0x38 /home/zhouyongjian/wangshi/wmsdk_bundle-3.1.16/bin/wmsdk/libs/libutil.a(boot_flags.o)
                0x00102b4c                boot_init
 .text.critical_error
                0x00102b84       0x28 /home/zhouyongjian/wangshi/wmsdk_bundle-3.1.16/bin/wmsdk/libs/libutil.a(critical_error.o)
                0x00102b84                critical_error
 .text.os_mutex_put.constprop.1
                0x00102bac       0x48 /home/zhouyongjian/wangshi/wmsdk_bundle-3.1.16/bin/wmsdk/libs/libwmstdio.a(wmstdio.o)
 .text.os_mutex_get.constprop.2
                0x00102bf4       0x28 /home/zhouyongjian/wangshi/wmsdk_bundle-3.1.16/bin/wmsdk/libs/libwmstdio.a(wmstdio.o)
 .text.wmprintf
                0x00102c1c       0x44 /home/zhouyongjian/wangshi/wmsdk_bundle-3.1.16/bin/wmsdk/libs/libwmstdio.a(wmstdio.o)
                0x00102c1c                wmprintf
 .text.ll_printf
                0x00102c60       0x34 /home/zhouyongjian/wangshi/wmsdk_bundle-3.1.16/bin/wmsdk/libs/libwmstdio.a(wmstdio.o)
                0x00102c60                ll_printf
 .text.serial_console_get_portid
                0x00102c94       0x18 /home/zhouyongjian/wangshi/wmsdk_bundle-3.1.16/bin/wmsdk/libs/libwmstdio.a(console.o)
                0x00102c94                serial_console_get_portid
 .text.board_main_xtal
                0x00102cac        0x8 obj/board.o
                0x00102cac                board_main_xtal
 .text.board_cpu_freq
                0x00102cb4        0x8 obj/board.o
                0x00102cb4                board_cpu_freq
 .text.board_gpio_power_on
                0x00102cbc       0x16 obj/board.o
                0x00102cbc                board_gpio_power_on
 *fill*         0x00102cd2        0x2 
 .text.Timing_cb
                0x00102cd4       0x88 obj/electric_measure.o
                0x00102cd4                Timing_cb
 .text.InitGPIO
                0x00102d5c       0x54 obj/electric_measure.o
                0x00102d5c                InitGPIO
 .text.Load_CalData_Flash
                0x00102db0      0x10c obj/electric_measure.o
                0x00102db0                Load_CalData_Flash
 .text.MsTimer  0x00102ebc       0x44 obj/electric_measure.o
                0x00102ebc                MsTimer
 .text.startup.main
                0x00102f00       0xc0 obj/electric_measure.o
                0x00102f00                main
 .text.Init_Rom
                0x00102fc0      0x11c obj/C_HLW8012_debug.o
                0x00102fc0                Init_Rom
 .text.PC5_EXTI_Interrupt
                0x001030dc       0xd4 obj/C_HLW8012_debug.o
                0x001030dc                PC5_EXTI_Interrupt
 .text.PD2_EXTI_Interrupt
                0x001031b0      0x130 obj/C_HLW8012_debug.o
                0x001031b0                PD2_EXTI_Interrupt
 .text.TIM1_UPD_Interrupt
                0x001032e0      0x194 obj/C_HLW8012_debug.o
                0x001032e0                TIM1_UPD_Interrupt
 .text.HLW8012_Measure_P
                0x00103474       0x68 obj/C_HLW8012_debug.o
                0x00103474                HLW8012_Measure_P
 .text.HLW8012_Measure_V
                0x001034dc       0x80 obj/C_HLW8012_debug.o
                0x001034dc                HLW8012_Measure_V
 .text.HLW8012_Measure_I
                0x0010355c       0x98 obj/C_HLW8012_debug.o
                0x0010355c                HLW8012_Measure_I
 .text.HLW8012_Measure_COS
                0x001035f4       0x44 obj/C_HLW8012_debug.o
                0x001035f4                HLW8012_Measure_COS
 .text.HLW8012_Measure_E
                0x00103638       0x18 obj/C_HLW8012_debug.o
                0x00103638                HLW8012_Measure_E
 .text.memcmp   0x00103650       0x1c /home/zhouyongjian/wangshi/wmsdk_bundle-3.1.16/bin/wmsdk/libs/libc.a(memcmp.o)
                0x00103650                memcmp
 .text.vsnprintf
                0x0010366c      0x640 /home/zhouyongjian/wangshi/wmsdk_bundle-3.1.16/bin/wmsdk/libs/libc.a(vsnprintf.o)
                0x0010366c                vsnprintf
 .text.strcmp   0x00103cac       0x16 /home/zhouyongjian/wangshi/wmsdk_bundle-3.1.16/bin/wmsdk/libs/libc.a(strcmp.o)
                0x00103cac                strcmp
 .text.strncpy  0x00103cc2       0x22 /home/zhouyongjian/wangshi/wmsdk_bundle-3.1.16/bin/wmsdk/libs/libc.a(strncpy.o)
                0x00103cc2                strncpy
 .text.strlen   0x00103ce4       0x10 /home/zhouyongjian/wangshi/wmsdk_bundle-3.1.16/bin/wmsdk/libs/libc.a(strlen.o)
                0x00103ce4                strlen
 .text.GPIO_SetPinDir
                0x00103cf4       0x28 /home/zhouyongjian/wangshi/wmsdk_bundle-3.1.16/bin/wmsdk/libs/libdrv.a(mw300_gpio.o)
                0x00103cf4                GPIO_SetPinDir
 .text.GPIO_WritePinOutput
                0x00103d1c       0x28 /home/zhouyongjian/wangshi/wmsdk_bundle-3.1.16/bin/wmsdk/libs/libdrv.a(mw300_gpio.o)
                0x00103d1c                GPIO_WritePinOutput
 .text.GPIO_IntConfig
                0x00103d44       0x7c /home/zhouyongjian/wangshi/wmsdk_bundle-3.1.16/bin/wmsdk/libs/libdrv.a(mw300_gpio.o)
                0x00103d44                GPIO_IntConfig
 .text.GPIO_IntMask
                0x00103dc0       0x30 /home/zhouyongjian/wangshi/wmsdk_bundle-3.1.16/bin/wmsdk/libs/libdrv.a(mw300_gpio.o)
                0x00103dc0                GPIO_IntMask
 .text.GPIO_GetIntStatus
                0x00103df0       0x24 /home/zhouyongjian/wangshi/wmsdk_bundle-3.1.16/bin/wmsdk/libs/libdrv.a(mw300_gpio.o)
                0x00103df0                GPIO_GetIntStatus
 .text.GPIO_IntClr
                0x00103e14       0x1c /home/zhouyongjian/wangshi/wmsdk_bundle-3.1.16/bin/wmsdk/libs/libdrv.a(mw300_gpio.o)
                0x00103e14                GPIO_IntClr
 .text.UART_IntHandler
                0x00103e30       0x78 /home/zhouyongjian/wangshi/wmsdk_bundle-3.1.16/bin/wmsdk/libs/libdrv.a(mw300_uart.o)
                0x00103e30                UART_IntHandler
 .text.UART_WriteLine
                0x00103ea8       0x20 /home/zhouyongjian/wangshi/wmsdk_bundle-3.1.16/bin/wmsdk/libs/libdrv.a(mw300_uart.o)
                0x00103ea8                UART_WriteLine
 .text.UART0_IRQHandler
                0x00103ec8        0x8 /home/zhouyongjian/wangshi/wmsdk_bundle-3.1.16/bin/wmsdk/libs/libdrv.a(mw300_uart.o)
                0x00103ec8                UART0_IRQHandler
 .text.UART1_IRQHandler
                0x00103ed0        0x8 /home/zhouyongjian/wangshi/wmsdk_bundle-3.1.16/bin/wmsdk/libs/libdrv.a(mw300_uart.o)
                0x00103ed0                UART1_IRQHandler
 .text.UART2_IRQHandler
                0x00103ed8        0x8 /home/zhouyongjian/wangshi/wmsdk_bundle-3.1.16/bin/wmsdk/libs/libdrv.a(mw300_uart.o)
                0x00103ed8                UART2_IRQHandler
 .text.os_mutex_put.constprop.1
                0x00103ee0       0x48 /home/zhouyongjian/wangshi/wmsdk_bundle-3.1.16/bin/wmsdk/libs/libdrv.a(mdev_gpio.o)
 .text.os_mutex_get.constprop.2
                0x00103f28       0x28 /home/zhouyongjian/wangshi/wmsdk_bundle-3.1.16/bin/wmsdk/libs/libdrv.a(mdev_gpio.o)
 .text.gpio_drv_write
                0x00103f50       0x34 /home/zhouyongjian/wangshi/wmsdk_bundle-3.1.16/bin/wmsdk/libs/libdrv.a(mdev_gpio.o)
                0x00103f50                gpio_drv_write
 .text.gpio_drv_setdir
                0x00103f84       0x34 /home/zhouyongjian/wangshi/wmsdk_bundle-3.1.16/bin/wmsdk/libs/libdrv.a(mdev_gpio.o)
                0x00103f84                gpio_drv_setdir
 .text.GPIO_IRQHandler
                0x00103fb8       0x60 /home/zhouyongjian/wangshi/wmsdk_bundle-3.1.16/bin/wmsdk/libs/libdrv.a(mdev_gpio.o)
                0x00103fb8                GPIO_IRQHandler
 .text.gpio_drv_set_cb
                0x00104018       0x8c /home/zhouyongjian/wangshi/wmsdk_bundle-3.1.16/bin/wmsdk/libs/libdrv.a(mdev_gpio.o)
                0x00104018                gpio_drv_set_cb
 .text.gpio_drv_open
                0x001040a4       0x24 /home/zhouyongjian/wangshi/wmsdk_bundle-3.1.16/bin/wmsdk/libs/libdrv.a(mdev_gpio.o)
                0x001040a4                gpio_drv_open
 .text.gpio_drv_init
                0x001040c8       0x3c /home/zhouyongjian/wangshi/wmsdk_bundle-3.1.16/bin/wmsdk/libs/libdrv.a(mdev_gpio.o)
                0x001040c8                gpio_drv_init
 .text.uart_drv_get_portid
                0x00104104        0x4 /home/zhouyongjian/wangshi/wmsdk_bundle-3.1.16/bin/wmsdk/libs/libdrv.a(mdev_uart.o)
                0x00104104                uart_drv_get_portid
 .text.os_semaphore_put
                0x00104108       0x42 /home/zhouyongjian/wangshi/wmsdk_bundle-3.1.16/bin/wmsdk/libs/libdrv.a(mdev_dma.o)
 *fill*         0x0010414a        0x2 
 .text.DMA_IRQHandler
                0x0010414c       0x90 /home/zhouyongjian/wangshi/wmsdk_bundle-3.1.16/bin/wmsdk/libs/libdrv.a(mdev_dma.o)
                0x0010414c                DMA_IRQHandler
 .text.flash_drv_read
                0x001041dc       0x16 /home/zhouyongjian/wangshi/wmsdk_bundle-3.1.16/bin/wmsdk/libs/libutil.a(flash.o)
                0x001041dc                flash_drv_read
 .text.flash_drv_close
                0x001041f2       0x10 /home/zhouyongjian/wangshi/wmsdk_bundle-3.1.16/bin/wmsdk/libs/libutil.a(flash.o)
                0x001041f2                flash_drv_close
 *fill*         0x00104202        0x2 
 .text.flash_drv_open
                0x00104204       0x14 /home/zhouyongjian/wangshi/wmsdk_bundle-3.1.16/bin/wmsdk/libs/libutil.a(flash.o)
                0x00104204                flash_drv_open
 .text.flash_drv_init
                0x00104218        0x4 /home/zhouyongjian/wangshi/wmsdk_bundle-3.1.16/bin/wmsdk/libs/libutil.a(flash.o)
                0x00104218                flash_drv_init
 .text.os_mutex_put.constprop.1
                0x0010421c       0x48 /home/zhouyongjian/wangshi/wmsdk_bundle-3.1.16/bin/wmsdk/libs/libdrv.a(mdev_iflash.o)
 .text.os_mutex_get.constprop.2
                0x00104264       0x28 /home/zhouyongjian/wangshi/wmsdk_bundle-3.1.16/bin/wmsdk/libs/libdrv.a(mdev_iflash.o)
 .text.iflash_drv_open
                0x0010428c        0x4 /home/zhouyongjian/wangshi/wmsdk_bundle-3.1.16/bin/wmsdk/libs/libdrv.a(mdev_iflash.o)
                0x0010428c                iflash_drv_open
 .text.iflash_drv_close
                0x00104290        0x4 /home/zhouyongjian/wangshi/wmsdk_bundle-3.1.16/bin/wmsdk/libs/libdrv.a(mdev_iflash.o)
                0x00104290                iflash_drv_close
 .text.iflash_drv_read
                0x00104294       0x7c /home/zhouyongjian/wangshi/wmsdk_bundle-3.1.16/bin/wmsdk/libs/libdrv.a(mdev_iflash.o)
                0x00104294                iflash_drv_read
 .text.iflash_drv_init
                0x00104310       0xe4 /home/zhouyongjian/wangshi/wmsdk_bundle-3.1.16/bin/wmsdk/libs/libdrv.a(mdev_iflash.o)
                0x00104310                iflash_drv_init
 .text.FLASH_SetWriteEnableBit
                0x001043f4       0x34 /home/zhouyongjian/wangshi/wmsdk_bundle-3.1.16/bin/wmsdk/libs/libdrv.a(mw300_flash.o)
                0x001043f4                FLASH_SetWriteEnableBit
 .text.FLASH_WriteEnableVSR
                0x00104428       0x2c /home/zhouyongjian/wangshi/wmsdk_bundle-3.1.16/bin/wmsdk/libs/libdrv.a(mw300_flash.o)
                0x00104428                FLASH_WriteEnableVSR
 .text.FLASH_ResetFastReadQuad
                0x00104454       0x4c /home/zhouyongjian/wangshi/wmsdk_bundle-3.1.16/bin/wmsdk/libs/libdrv.a(mw300_flash.o)
                0x00104454                FLASH_ResetFastReadQuad
 .text.FLASH_GetStatus
                0x001044a0       0x58 /home/zhouyongjian/wangshi/wmsdk_bundle-3.1.16/bin/wmsdk/libs/libdrv.a(mw300_flash.o)
                0x001044a0                FLASH_GetStatus
 .text.FLASH_GetBusyStatus
                0x001044f8       0x4c /home/zhouyongjian/wangshi/wmsdk_bundle-3.1.16/bin/wmsdk/libs/libdrv.a(mw300_flash.o)
                0x001044f8                FLASH_GetBusyStatus
 .text.FLASH_WriteStatus
                0x00104544       0x60 /home/zhouyongjian/wangshi/wmsdk_bundle-3.1.16/bin/wmsdk/libs/libdrv.a(mw300_flash.o)
                0x00104544                FLASH_WriteStatus
 .text.FLASH_EraseAll
                0x001045a4       0x40 /home/zhouyongjian/wangshi/wmsdk_bundle-3.1.16/bin/wmsdk/libs/libdrv.a(mw300_flash.o)
                0x001045a4                FLASH_EraseAll
 .text.FLASH_SectorErase
                0x001045e4       0x78 /home/zhouyongjian/wangshi/wmsdk_bundle-3.1.16/bin/wmsdk/libs/libdrv.a(mw300_flash.o)
                0x001045e4                FLASH_SectorErase
 .text.FLASH_Block32KErase
                0x0010465c       0x6c /home/zhouyongjian/wangshi/wmsdk_bundle-3.1.16/bin/wmsdk/libs/libdrv.a(mw300_flash.o)
                0x0010465c                FLASH_Block32KErase
 .text.FLASH_Block64KErase
                0x001046c8       0x6c /home/zhouyongjian/wangshi/wmsdk_bundle-3.1.16/bin/wmsdk/libs/libdrv.a(mw300_flash.o)
                0x001046c8                FLASH_Block64KErase
 .text.FLASH_Erase
                0x00104734       0x80 /home/zhouyongjian/wangshi/wmsdk_bundle-3.1.16/bin/wmsdk/libs/libdrv.a(mw300_flash.o)
                0x00104734                FLASH_Erase
 .text.FLASH_Read
                0x001047b4      0x158 /home/zhouyongjian/wangshi/wmsdk_bundle-3.1.16/bin/wmsdk/libs/libdrv.a(mw300_flash.o)
                0x001047b4                FLASH_Read
 .text.FLASH_PageWrite
                0x0010490c       0xd4 /home/zhouyongjian/wangshi/wmsdk_bundle-3.1.16/bin/wmsdk/libs/libdrv.a(mw300_flash.o)
                0x0010490c                FLASH_PageWrite
 .text.FLASH_Write
                0x001049e0       0x84 /home/zhouyongjian/wangshi/wmsdk_bundle-3.1.16/bin/wmsdk/libs/libdrv.a(mw300_flash.o)
                0x001049e0                FLASH_Write
 .text.FLASH_GetUniqueID
                0x00104a64       0xe4 /home/zhouyongjian/wangshi/wmsdk_bundle-3.1.16/bin/wmsdk/libs/libdrv.a(mw300_flash.o)
                0x00104a64                FLASH_GetUniqueID
 .text.FLASH_GetJEDECID
                0x00104b48       0x60 /home/zhouyongjian/wangshi/wmsdk_bundle-3.1.16/bin/wmsdk/libs/libdrv.a(mw300_flash.o)
                0x00104b48                FLASH_GetJEDECID
 .text.FLASH_SetConfig
                0x00104ba8       0x54 /home/zhouyongjian/wangshi/wmsdk_bundle-3.1.16/bin/wmsdk/libs/libdrv.a(mw300_flash.o)
                0x00104ba8                FLASH_SetConfig
 .text.FLASH_GetConfig
                0x00104bfc        0xc /home/zhouyongjian/wangshi/wmsdk_bundle-3.1.16/bin/wmsdk/libs/libdrv.a(mw300_flash.o)
                0x00104bfc                FLASH_GetConfig
 .text.QSPI_IRQHandler
                0x00104c08      0x164 /home/zhouyongjian/wangshi/wmsdk_bundle-3.1.16/bin/wmsdk/libs/libdrv.a(mw300_qspi.o)
                0x00104c08                QSPI_IRQHandler
 .text.QSPI_FlushFIFO
                0x00104d6c       0x38 /home/zhouyongjian/wangshi/wmsdk_bundle-3.1.16/bin/wmsdk/libs/libdrv.a(mw300_qspi.o)
                0x00104d6c                QSPI_FlushFIFO
 .text.QSPI_SetHdrcnt
                0x00104da4       0x2c /home/zhouyongjian/wangshi/wmsdk_bundle-3.1.16/bin/wmsdk/libs/libdrv.a(mw300_qspi.o)
                0x00104da4                QSPI_SetHdrcnt
 .text.QSPI_SetAddrCnt
                0x00104dd0       0x10 /home/zhouyongjian/wangshi/wmsdk_bundle-3.1.16/bin/wmsdk/libs/libdrv.a(mw300_qspi.o)
                0x00104dd0                QSPI_SetAddrCnt
 .text.QSPI_SetRModeCnt
                0x00104de0       0x10 /home/zhouyongjian/wangshi/wmsdk_bundle-3.1.16/bin/wmsdk/libs/libdrv.a(mw300_qspi.o)
                0x00104de0                QSPI_SetRModeCnt
 .text.QSPI_SetDummyCnt
                0x00104df0       0x10 /home/zhouyongjian/wangshi/wmsdk_bundle-3.1.16/bin/wmsdk/libs/libdrv.a(mw300_qspi.o)
                0x00104df0                QSPI_SetDummyCnt
 .text.QSPI_SetInstr
                0x00104e00        0xc /home/zhouyongjian/wangshi/wmsdk_bundle-3.1.16/bin/wmsdk/libs/libdrv.a(mw300_qspi.o)
                0x00104e00                QSPI_SetInstr
 .text.QSPI_SetAddr
                0x00104e0c        0xc /home/zhouyongjian/wangshi/wmsdk_bundle-3.1.16/bin/wmsdk/libs/libdrv.a(mw300_qspi.o)
                0x00104e0c                QSPI_SetAddr
 .text.QSPI_SetRMode
                0x00104e18        0xc /home/zhouyongjian/wangshi/wmsdk_bundle-3.1.16/bin/wmsdk/libs/libdrv.a(mw300_qspi.o)
                0x00104e18                QSPI_SetRMode
 .text.QSPI_SetDInCnt
                0x00104e24       0x10 /home/zhouyongjian/wangshi/wmsdk_bundle-3.1.16/bin/wmsdk/libs/libdrv.a(mw300_qspi.o)
                0x00104e24                QSPI_SetDInCnt
 .text.QSPI_SetSSEnable
                0x00104e34       0x18 /home/zhouyongjian/wangshi/wmsdk_bundle-3.1.16/bin/wmsdk/libs/libdrv.a(mw300_qspi.o)
                0x00104e34                QSPI_SetSSEnable
 .text.QSPI_StartTransfer
                0x00104e4c       0x24 /home/zhouyongjian/wangshi/wmsdk_bundle-3.1.16/bin/wmsdk/libs/libdrv.a(mw300_qspi.o)
                0x00104e4c                QSPI_StartTransfer
 .text.QSPI_StopTransfer
                0x00104e70       0x2c /home/zhouyongjian/wangshi/wmsdk_bundle-3.1.16/bin/wmsdk/libs/libdrv.a(mw300_qspi.o)
                0x00104e70                QSPI_StopTransfer
 .text.QSPI_WriteByte
                0x00104e9c       0x10 /home/zhouyongjian/wangshi/wmsdk_bundle-3.1.16/bin/wmsdk/libs/libdrv.a(mw300_qspi.o)
                0x00104e9c                QSPI_WriteByte
 .text.QSPI_ReadByte
                0x00104eac       0x14 /home/zhouyongjian/wangshi/wmsdk_bundle-3.1.16/bin/wmsdk/libs/libdrv.a(mw300_qspi.o)
                0x00104eac                QSPI_ReadByte
 .text          0x00104ec0      0x370 /home/zhouyongjian/Intelligent_AC_Infrared/gcc-arm-none-eabi-4_8-2014q2/bin/../lib/gcc/arm-none-eabi/4.8.4/armv7e-m/libgcc.a(_arm_addsubdf3.o)
                0x00104ec0                __aeabi_drsub
                0x00104ec8                __aeabi_dsub
                0x00104ec8                __subdf3
                0x00104ecc                __adddf3
                0x00104ecc                __aeabi_dadd
                0x00105144                __aeabi_ui2d
                0x00105144                __floatunsidf
                0x00105164                __floatsidf
                0x00105164                __aeabi_i2d
                0x00105188                __extendsfdf2
                0x00105188                __aeabi_f2d
                0x001051c4                __aeabi_ul2d
                0x001051c4                __floatundidf
                0x001051d4                __floatdidf
                0x001051d4                __aeabi_l2d
 .text          0x00105230      0x424 /home/zhouyongjian/Intelligent_AC_Infrared/gcc-arm-none-eabi-4_8-2014q2/bin/../lib/gcc/arm-none-eabi/4.8.4/armv7e-m/libgcc.a(_arm_muldivdf3.o)
                0x00105230                __aeabi_dmul
                0x00105230                __muldf3
                0x00105484                __aeabi_ddiv
                0x00105484                __divdf3
 .text          0x00105654       0x50 /home/zhouyongjian/Intelligent_AC_Infrared/gcc-arm-none-eabi-4_8-2014q2/bin/../lib/gcc/arm-none-eabi/4.8.4/armv7e-m/libgcc.a(_arm_fixdfsi.o)
                0x00105654                __fixdfsi
                0x00105654                __aeabi_d2iz
 .text          0x001056a4       0x2c /home/zhouyongjian/Intelligent_AC_Infrared/gcc-arm-none-eabi-4_8-2014q2/bin/../lib/gcc/arm-none-eabi/4.8.4/armv7e-m/libgcc.a(_aeabi_uldivmod.o)
                0x001056a4                __aeabi_uldivmod
 .text          0x001056d0       0x60 /home/zhouyongjian/Intelligent_AC_Infrared/gcc-arm-none-eabi-4_8-2014q2/bin/../lib/gcc/arm-none-eabi/4.8.4/armv7e-m/libgcc.a(bpabi.o)
                0x001056d0                __gnu_ldivmod_helper
                0x00105700                __gnu_uldivmod_helper
 .text          0x00105730        0x4 /home/zhouyongjian/Intelligent_AC_Infrared/gcc-arm-none-eabi-4_8-2014q2/bin/../lib/gcc/arm-none-eabi/4.8.4/armv7e-m/libgcc.a(_dvmd_tls.o)
                0x00105730                __aeabi_ldiv0
                0x00105730                __aeabi_idiv0
 .text          0x00105734      0x298 /home/zhouyongjian/Intelligent_AC_Infrared/gcc-arm-none-eabi-4_8-2014q2/bin/../lib/gcc/arm-none-eabi/4.8.4/armv7e-m/libgcc.a(_divdi3.o)
                0x00105734                __divdi3
 .text          0x001059cc      0x284 /home/zhouyongjian/Intelligent_AC_Infrared/gcc-arm-none-eabi-4_8-2014q2/bin/../lib/gcc/arm-none-eabi/4.8.4/armv7e-m/libgcc.a(_udivdi3.o)
                0x001059cc                __udivdi3
 .text          0x00105c50      0x134 /home/zhouyongjian/Intelligent_AC_Infrared/gcc-arm-none-eabi-4_8-2014q2/bin/../lib/gcc/arm-none-eabi/4.8.4/../../../../arm-none-eabi/lib/armv7e-m/libg.a(lib_a-memcpy.o)
                0x00105c50                memcpy
 .text.memset   0x00105d84       0x94 /home/zhouyongjian/Intelligent_AC_Infrared/gcc-arm-none-eabi-4_8-2014q2/bin/../lib/gcc/arm-none-eabi/4.8.4/../../../../arm-none-eabi/lib/armv7e-m/libg.a(lib_a-memset.o)
                0x00105d84                memset
 *(.ram .ram.*)
 .ram           0x00105e18      0x268 /home/zhouyongjian/wangshi/wmsdk_bundle-3.1.16/bin/wmsdk/libs/libdrv.a(mdev_iflash.o)
                0x00105e18                iflash_flashc_to_qspi_read_jedecid
                0x00105e70                iflash_flashc_to_qspi_read_uniqid
                0x00105ec8                iflash_flashc_to_qspi_read
                0x00105f54                iflash_flashc_to_qspi_write
                0x00105fcc                iflash_flashc_to_qspi_erase
                0x00106028                iflash_flashc_to_qspi_eraseall
 *(.rodata .rodata.* .gnu.linkonce.r.*)
 .rodata.str1.1
                0x00106080      0x288 /home/zhouyongjian/wangshi/wmsdk_bundle-3.1.16/bin/wmsdk/libs/libdrv.a(mdev_startup.o)
                                0x2b2 (size before relaxing)
 .rodata.str1.1
                0x00106308       0x7a /home/zhouyongjian/wangshi/wmsdk_bundle-3.1.16/bin/wmsdk/libs/libdrv.a(mdev_gpt.o)
 .rodata.CSWTCH.23
                0x00106382        0x4 /home/zhouyongjian/wangshi/wmsdk_bundle-3.1.16/bin/wmsdk/libs/libdrv.a(mdev_gpt.o)
 .rodata.CSWTCH.24
                0x00106386        0x4 /home/zhouyongjian/wangshi/wmsdk_bundle-3.1.16/bin/wmsdk/libs/libdrv.a(mdev_gpt.o)
 *fill*         0x0010638a        0x2 
 .rodata.mdev_gpt_name
                0x0010638c       0x10 /home/zhouyongjian/wangshi/wmsdk_bundle-3.1.16/bin/wmsdk/libs/libdrv.a(mdev_gpt.o)
 .rodata.gptAddr
                0x0010639c       0x10 /home/zhouyongjian/wangshi/wmsdk_bundle-3.1.16/bin/wmsdk/libs/libdrv.a(mw300_gpt.o)
 .rodata.ucExpectedStackBytes.5962
                0x001063ac       0x14 /home/zhouyongjian/wangshi/wmsdk_bundle-3.1.16/bin/wmsdk/libs/libfreertos.a(tasks.o)
 .rodata.str1.4
                0x001063c0       0x3a /home/zhouyongjian/wangshi/wmsdk_bundle-3.1.16/bin/wmsdk/libs/libfreertos.a(tasks.o)
                                 0x3c (size before relaxing)
 *fill*         0x001063fa        0x2 
 .rodata.str1.4
                0x001063fc        0x8 /home/zhouyongjian/wangshi/wmsdk_bundle-3.1.16/bin/wmsdk/libs/libfreertos.a(timers.o)
 .rodata.str1.1
                0x00106404      0x188 /home/zhouyongjian/wangshi/wmsdk_bundle-3.1.16/bin/wmsdk/libs/libos.a(os.o)
                                0x18b (size before relaxing)
 .rodata.str1.1
                0x0010658c       0xb6 /home/zhouyongjian/wangshi/wmsdk_bundle-3.1.16/bin/wmsdk/libs/libutil.a(critical_error.o)
 .rodata.str1.1
                0x00106642       0xc4 obj/electric_measure.o
                                 0xda (size before relaxing)
 .rodata.lcdigits.3829
                0x00106706       0x11 /home/zhouyongjian/wangshi/wmsdk_bundle-3.1.16/bin/wmsdk/libs/libc.a(vsnprintf.o)
 .rodata.str1.1
                0x00106717        0x7 /home/zhouyongjian/wangshi/wmsdk_bundle-3.1.16/bin/wmsdk/libs/libc.a(vsnprintf.o)
 .rodata.ucdigits.3830
                0x0010671e       0x11 /home/zhouyongjian/wangshi/wmsdk_bundle-3.1.16/bin/wmsdk/libs/libc.a(vsnprintf.o)
 *fill*         0x0010672f        0x1 
 .rodata.uartAddr
                0x00106730        0xc /home/zhouyongjian/wangshi/wmsdk_bundle-3.1.16/bin/wmsdk/libs/libdrv.a(mw300_uart.o)
 .rodata.str1.1
                0x0010673c       0x68 /home/zhouyongjian/wangshi/wmsdk_bundle-3.1.16/bin/wmsdk/libs/libdrv.a(mdev_gpio.o)
 .rodata.str1.1
                0x001067a4        0x7 /home/zhouyongjian/wangshi/wmsdk_bundle-3.1.16/bin/wmsdk/libs/libutil.a(flash.o)
 .rodata.str1.1
                0x001067ab       0x46 /home/zhouyongjian/wangshi/wmsdk_bundle-3.1.16/bin/wmsdk/libs/libdrv.a(mdev_iflash.o)
                                 0x56 (size before relaxing)
 *fill*         0x001067f1        0x3 
 .rodata.fl_dev_list
                0x001067f4       0xb4 /home/zhouyongjian/wangshi/wmsdk_bundle-3.1.16/bin/wmsdk/libs/libdrv.a(mw300_flash.o)
                0x001067f4                fl_dev_list
                0x001068a8                . = ALIGN (0x4)
                0x001068a8                _etext = .

.glue_7         0x001068a8        0x0
 .glue_7        0x00000000        0x0 linker stubs

.glue_7t        0x001068a8        0x0
 .glue_7t       0x00000000        0x0 linker stubs

.vfp11_veneer   0x001068a8        0x0
 .vfp11_veneer  0x00000000        0x0 linker stubs

.v4_bx          0x001068a8        0x0
 .v4_bx         0x00000000        0x0 linker stubs

.iplt           0x001068a8        0x0
 .iplt          0x00000000        0x0 /home/zhouyongjian/wangshi/wmsdk_bundle-3.1.16/bin/wmsdk/libs/libdrv.a(mdev_startup.o)

.rel.dyn        0x001068a8        0x0
 .rel.iplt      0x00000000        0x0 /home/zhouyongjian/wangshi/wmsdk_bundle-3.1.16/bin/wmsdk/libs/libdrv.a(mdev_startup.o)
                0x001068a8                . = ALIGN (0x4)
                0x001068a8                _heap_start = .
                0x0015f000                . = _e_sram0
                0x0015f000                _heap_end = .
                0x00058758                _actual_heap_size = (_heap_end - _heap_start)
                0x00000001                ASSERT ((_actual_heap_size >= _heap_size), Text overflow in heap area.)

.rom_data       0x20000000       0x40
                0x20000000                _rom_data_start = .
                0x20000040                . = (. + _rom_data)
 *fill*         0x20000000       0x40 
                0x00000001                ASSERT ((_rom_data_start == ORIGIN (SRAM1)), Invalid start address of .rom_data)

.data           0x20000040      0x104
                0x20000040                _data = .
 *(.data)
 *(.data.*)
 .data.intCbfArra
                0x20000040       0xf0 /home/zhouyongjian/wangshi/wmsdk_bundle-3.1.16/bin/wmsdk/libs/libdrv.a(mw300_driver.o)
                0x20000040                intCbfArra
 .data.uxPreviousTask
                0x20000130        0x4 /home/zhouyongjian/wangshi/wmsdk_bundle-3.1.16/bin/wmsdk/libs/libfreertos.a(tasks.o)
 .data.xNextTaskUnblockTime
                0x20000134        0x4 /home/zhouyongjian/wangshi/wmsdk_bundle-3.1.16/bin/wmsdk/libs/libfreertos.a(tasks.o)
 .data.uxCriticalNesting
                0x20000138        0x4 /home/zhouyongjian/wangshi/wmsdk_bundle-3.1.16/bin/wmsdk/libs/libfreertos.a(port.o)
 .data.c_stdio_funcs
                0x2000013c        0x4 /home/zhouyongjian/wangshi/wmsdk_bundle-3.1.16/bin/wmsdk/libs/libwmstdio.a(wmstdio.o)
                0x2000013c                c_stdio_funcs
 .data.g_fl_cfg
                0x20000140        0x4 /home/zhouyongjian/wangshi/wmsdk_bundle-3.1.16/bin/wmsdk/libs/libdrv.a(mw300_flash.o)
                0x20000144                _edata = .

.igot.plt       0x20000144        0x0
 .igot.plt      0x00000000        0x0 /home/zhouyongjian/wangshi/wmsdk_bundle-3.1.16/bin/wmsdk/libs/libdrv.a(mdev_startup.o)

.bss            0x20000148      0xbc8
                0x20000148                _bss = .
 *(.bss)
 *(.bss.*)
 .bss.stptr     0x20000148        0x4 /home/zhouyongjian/wangshi/wmsdk_bundle-3.1.16/bin/wmsdk/libs/libdrv.a(mdev_startup.o)
 .bss.dmaCh24IntCb
                0x2000014c       0x10 /home/zhouyongjian/wangshi/wmsdk_bundle-3.1.16/bin/wmsdk/libs/libdrv.a(mw300_driver.o)
                0x2000014c                dmaCh24IntCb
 .bss.dmaCh9IntCb
                0x2000015c       0x10 /home/zhouyongjian/wangshi/wmsdk_bundle-3.1.16/bin/wmsdk/libs/libdrv.a(mw300_driver.o)
                0x2000015c                dmaCh9IntCb
 .bss.rtcIntCb  0x2000016c       0x20 /home/zhouyongjian/wangshi/wmsdk_bundle-3.1.16/bin/wmsdk/libs/libdrv.a(mw300_driver.o)
                0x2000016c                rtcIntCb
 .bss.dacIntCb  0x2000018c       0x14 /home/zhouyongjian/wangshi/wmsdk_bundle-3.1.16/bin/wmsdk/libs/libdrv.a(mw300_driver.o)
                0x2000018c                dacIntCb
 .bss.wdtIntCb  0x200001a0       0x14 /home/zhouyongjian/wangshi/wmsdk_bundle-3.1.16/bin/wmsdk/libs/libdrv.a(mw300_driver.o)
                0x200001a0                wdtIntCb
 .bss.usbIntCb  0x200001b4        0xc /home/zhouyongjian/wangshi/wmsdk_bundle-3.1.16/bin/wmsdk/libs/libdrv.a(mw300_driver.o)
                0x200001b4                usbIntCb
 .bss.wifiwakeupIntCb
                0x200001c0        0x4 /home/zhouyongjian/wangshi/wmsdk_bundle-3.1.16/bin/wmsdk/libs/libdrv.a(mw300_driver.o)
                0x200001c0                wifiwakeupIntCb
 .bss.dmaCh0IntCb
                0x200001c4       0x10 /home/zhouyongjian/wangshi/wmsdk_bundle-3.1.16/bin/wmsdk/libs/libdrv.a(mw300_driver.o)
                0x200001c4                dmaCh0IntCb
 .bss.dmaCh15IntCb
                0x200001d4       0x10 /home/zhouyongjian/wangshi/wmsdk_bundle-3.1.16/bin/wmsdk/libs/libdrv.a(mw300_driver.o)
                0x200001d4                dmaCh15IntCb
 .bss.dmaCh31IntCb
                0x200001e4       0x10 /home/zhouyongjian/wangshi/wmsdk_bundle-3.1.16/bin/wmsdk/libs/libdrv.a(mw300_driver.o)
                0x200001e4                dmaCh31IntCb
 .bss.dmaCh28IntCb
                0x200001f4       0x10 /home/zhouyongjian/wangshi/wmsdk_bundle-3.1.16/bin/wmsdk/libs/libdrv.a(mw300_driver.o)
                0x200001f4                dmaCh28IntCb
 .bss.i2c1IntCb
                0x20000204       0x30 /home/zhouyongjian/wangshi/wmsdk_bundle-3.1.16/bin/wmsdk/libs/libdrv.a(mw300_driver.o)
                0x20000204                i2c1IntCb
 .bss.dmaCh12IntCb
                0x20000234       0x10 /home/zhouyongjian/wangshi/wmsdk_bundle-3.1.16/bin/wmsdk/libs/libdrv.a(mw300_driver.o)
                0x20000234                dmaCh12IntCb
 .bss.gpt1IntCb
                0x20000244       0x3c /home/zhouyongjian/wangshi/wmsdk_bundle-3.1.16/bin/wmsdk/libs/libdrv.a(mw300_driver.o)
                0x20000244                gpt1IntCb
 .bss.rc32mIntCb
                0x20000280        0x8 /home/zhouyongjian/wangshi/wmsdk_bundle-3.1.16/bin/wmsdk/libs/libdrv.a(mw300_driver.o)
                0x20000280                rc32mIntCb
 .bss.dmaCh25IntCb
                0x20000288       0x10 /home/zhouyongjian/wangshi/wmsdk_bundle-3.1.16/bin/wmsdk/libs/libdrv.a(mw300_driver.o)
                0x20000288                dmaCh25IntCb
 .bss.uart1IntCb
                0x20000298       0x18 /home/zhouyongjian/wangshi/wmsdk_bundle-3.1.16/bin/wmsdk/libs/libdrv.a(mw300_driver.o)
                0x20000298                uart1IntCb
 .bss.adc0IntCb
                0x200002b0       0x1c /home/zhouyongjian/wangshi/wmsdk_bundle-3.1.16/bin/wmsdk/libs/libdrv.a(mw300_driver.o)
                0x200002b0                adc0IntCb
 .bss.dmaCh3IntCb
                0x200002cc       0x10 /home/zhouyongjian/wangshi/wmsdk_bundle-3.1.16/bin/wmsdk/libs/libdrv.a(mw300_driver.o)
                0x200002cc                dmaCh3IntCb
 .bss.dmaCh22IntCb
                0x200002dc       0x10 /home/zhouyongjian/wangshi/wmsdk_bundle-3.1.16/bin/wmsdk/libs/libdrv.a(mw300_driver.o)
                0x200002dc                dmaCh22IntCb
 .bss.dmaCh7IntCb
                0x200002ec       0x10 /home/zhouyongjian/wangshi/wmsdk_bundle-3.1.16/bin/wmsdk/libs/libdrv.a(mw300_driver.o)
                0x200002ec                dmaCh7IntCb
 .bss.acompIntCb
                0x200002fc       0x10 /home/zhouyongjian/wangshi/wmsdk_bundle-3.1.16/bin/wmsdk/libs/libdrv.a(mw300_driver.o)
                0x200002fc                acompIntCb
 .bss.ssp2IntCb
                0x2000030c       0x20 /home/zhouyongjian/wangshi/wmsdk_bundle-3.1.16/bin/wmsdk/libs/libdrv.a(mw300_driver.o)
                0x2000030c                ssp2IntCb
 .bss.dmaCh6IntCb
                0x2000032c       0x10 /home/zhouyongjian/wangshi/wmsdk_bundle-3.1.16/bin/wmsdk/libs/libdrv.a(mw300_driver.o)
                0x2000032c                dmaCh6IntCb
 .bss.dmaCh19IntCb
                0x2000033c       0x10 /home/zhouyongjian/wangshi/wmsdk_bundle-3.1.16/bin/wmsdk/libs/libdrv.a(mw300_driver.o)
                0x2000033c                dmaCh19IntCb
 .bss.gpt2IntCb
                0x2000034c       0x3c /home/zhouyongjian/wangshi/wmsdk_bundle-3.1.16/bin/wmsdk/libs/libdrv.a(mw300_driver.o)
                0x2000034c                gpt2IntCb
 .bss.uart0IntCb
                0x20000388       0x18 /home/zhouyongjian/wangshi/wmsdk_bundle-3.1.16/bin/wmsdk/libs/libdrv.a(mw300_driver.o)
                0x20000388                uart0IntCb
 .bss.mpuIntCb  0x200003a0       0x10 /home/zhouyongjian/wangshi/wmsdk_bundle-3.1.16/bin/wmsdk/libs/libdrv.a(mw300_driver.o)
                0x200003a0                mpuIntCb
 .bss.dmaCh16IntCb
                0x200003b0       0x10 /home/zhouyongjian/wangshi/wmsdk_bundle-3.1.16/bin/wmsdk/libs/libdrv.a(mw300_driver.o)
                0x200003b0                dmaCh16IntCb
 .bss.uart2IntCb
                0x200003c0       0x18 /home/zhouyongjian/wangshi/wmsdk_bundle-3.1.16/bin/wmsdk/libs/libdrv.a(mw300_driver.o)
                0x200003c0                uart2IntCb
 .bss.dmaCh29IntCb
                0x200003d8       0x10 /home/zhouyongjian/wangshi/wmsdk_bundle-3.1.16/bin/wmsdk/libs/libdrv.a(mw300_driver.o)
                0x200003d8                dmaCh29IntCb
 .bss.gpt3IntCb
                0x200003e8       0x3c /home/zhouyongjian/wangshi/wmsdk_bundle-3.1.16/bin/wmsdk/libs/libdrv.a(mw300_driver.o)
                0x200003e8                gpt3IntCb
 .bss.dmaCh13IntCb
                0x20000424       0x10 /home/zhouyongjian/wangshi/wmsdk_bundle-3.1.16/bin/wmsdk/libs/libdrv.a(mw300_driver.o)
                0x20000424                dmaCh13IntCb
 .bss.dmaCh18IntCb
                0x20000434       0x10 /home/zhouyongjian/wangshi/wmsdk_bundle-3.1.16/bin/wmsdk/libs/libdrv.a(mw300_driver.o)
                0x20000434                dmaCh18IntCb
 .bss.extpin0IntCb
                0x20000444        0x4 /home/zhouyongjian/wangshi/wmsdk_bundle-3.1.16/bin/wmsdk/libs/libdrv.a(mw300_driver.o)
                0x20000444                extpin0IntCb
 .bss.sdioIntCb
                0x20000448       0x50 /home/zhouyongjian/wangshi/wmsdk_bundle-3.1.16/bin/wmsdk/libs/libdrv.a(mw300_driver.o)
                0x20000448                sdioIntCb
 .bss.ssp0IntCb
                0x20000498       0x20 /home/zhouyongjian/wangshi/wmsdk_bundle-3.1.16/bin/wmsdk/libs/libdrv.a(mw300_driver.o)
                0x20000498                ssp0IntCb
 .bss.dmaCh10IntCb
                0x200004b8       0x10 /home/zhouyongjian/wangshi/wmsdk_bundle-3.1.16/bin/wmsdk/libs/libdrv.a(mw300_driver.o)
                0x200004b8                dmaCh10IntCb
 .bss.dmaCh23IntCb
                0x200004c8       0x10 /home/zhouyongjian/wangshi/wmsdk_bundle-3.1.16/bin/wmsdk/libs/libdrv.a(mw300_driver.o)
                0x200004c8                dmaCh23IntCb
 .bss.dmaCh8IntCb
                0x200004d8       0x10 /home/zhouyongjian/wangshi/wmsdk_bundle-3.1.16/bin/wmsdk/libs/libdrv.a(mw300_driver.o)
                0x200004d8                dmaCh8IntCb
 .bss.aesIntCb  0x200004e8       0x20 /home/zhouyongjian/wangshi/wmsdk_bundle-3.1.16/bin/wmsdk/libs/libdrv.a(mw300_driver.o)
                0x200004e8                aesIntCb
 .bss.dmaCh1IntCb
                0x20000508       0x10 /home/zhouyongjian/wangshi/wmsdk_bundle-3.1.16/bin/wmsdk/libs/libdrv.a(mw300_driver.o)
                0x20000508                dmaCh1IntCb
 .bss.dmaCh20IntCb
                0x20000518       0x10 /home/zhouyongjian/wangshi/wmsdk_bundle-3.1.16/bin/wmsdk/libs/libdrv.a(mw300_driver.o)
                0x20000518                dmaCh20IntCb
 .bss.dmaCh5IntCb
                0x20000528       0x10 /home/zhouyongjian/wangshi/wmsdk_bundle-3.1.16/bin/wmsdk/libs/libdrv.a(mw300_driver.o)
                0x20000528                dmaCh5IntCb
 .bss.qspiIntCb
                0x20000538       0x30 /home/zhouyongjian/wangshi/wmsdk_bundle-3.1.16/bin/wmsdk/libs/libdrv.a(mw300_driver.o)
                0x20000538                qspiIntCb
 .bss.dmaCh2IntCb
                0x20000568       0x10 /home/zhouyongjian/wangshi/wmsdk_bundle-3.1.16/bin/wmsdk/libs/libdrv.a(mw300_driver.o)
                0x20000568                dmaCh2IntCb
 .bss.dmaCh21IntCb
                0x20000578       0x10 /home/zhouyongjian/wangshi/wmsdk_bundle-3.1.16/bin/wmsdk/libs/libdrv.a(mw300_driver.o)
                0x20000578                dmaCh21IntCb
 .bss.extpin1IntCb
                0x20000588        0x4 /home/zhouyongjian/wangshi/wmsdk_bundle-3.1.16/bin/wmsdk/libs/libdrv.a(mw300_driver.o)
                0x20000588                extpin1IntCb
 .bss.dmaCh30IntCb
                0x2000058c       0x10 /home/zhouyongjian/wangshi/wmsdk_bundle-3.1.16/bin/wmsdk/libs/libdrv.a(mw300_driver.o)
                0x2000058c                dmaCh30IntCb
 .bss.ssp1IntCb
                0x2000059c       0x20 /home/zhouyongjian/wangshi/wmsdk_bundle-3.1.16/bin/wmsdk/libs/libdrv.a(mw300_driver.o)
                0x2000059c                ssp1IntCb
 .bss.dmaCh17IntCb
                0x200005bc       0x10 /home/zhouyongjian/wangshi/wmsdk_bundle-3.1.16/bin/wmsdk/libs/libdrv.a(mw300_driver.o)
                0x200005bc                dmaCh17IntCb
 .bss.gpt0IntCb
                0x200005cc       0x3c /home/zhouyongjian/wangshi/wmsdk_bundle-3.1.16/bin/wmsdk/libs/libdrv.a(mw300_driver.o)
                0x200005cc                gpt0IntCb
 .bss.dmaCh26IntCb
                0x20000608       0x10 /home/zhouyongjian/wangshi/wmsdk_bundle-3.1.16/bin/wmsdk/libs/libdrv.a(mw300_driver.o)
                0x20000608                dmaCh26IntCb
 .bss.dmaCh14IntCb
                0x20000618       0x10 /home/zhouyongjian/wangshi/wmsdk_bundle-3.1.16/bin/wmsdk/libs/libdrv.a(mw300_driver.o)
                0x20000618                dmaCh14IntCb
 .bss.dmaCh27IntCb
                0x20000628       0x10 /home/zhouyongjian/wangshi/wmsdk_bundle-3.1.16/bin/wmsdk/libs/libdrv.a(mw300_driver.o)
                0x20000628                dmaCh27IntCb
 .bss.crcIntCb  0x20000638       0x20 /home/zhouyongjian/wangshi/wmsdk_bundle-3.1.16/bin/wmsdk/libs/libdrv.a(mw300_driver.o)
                0x20000638                crcIntCb
 .bss.i2c0IntCb
                0x20000658       0x30 /home/zhouyongjian/wangshi/wmsdk_bundle-3.1.16/bin/wmsdk/libs/libdrv.a(mw300_driver.o)
                0x20000658                i2c0IntCb
 .bss.dmaCh11IntCb
                0x20000688       0x10 /home/zhouyongjian/wangshi/wmsdk_bundle-3.1.16/bin/wmsdk/libs/libdrv.a(mw300_driver.o)
                0x20000688                dmaCh11IntCb
 .bss.dmaCh4IntCb
                0x20000698       0x10 /home/zhouyongjian/wangshi/wmsdk_bundle-3.1.16/bin/wmsdk/libs/libdrv.a(mw300_driver.o)
                0x20000698                dmaCh4IntCb
 .bss.mdev_gpt  0x200006a8       0x50 /home/zhouyongjian/wangshi/wmsdk_bundle-3.1.16/bin/wmsdk/libs/libdrv.a(mdev_gpt.o)
 .bss.gptdev_data
                0x200006f8       0x40 /home/zhouyongjian/wangshi/wmsdk_bundle-3.1.16/bin/wmsdk/libs/libdrv.a(mdev_gpt.o)
 .bss.gpt_mutex
                0x20000738       0x10 /home/zhouyongjian/wangshi/wmsdk_bundle-3.1.16/bin/wmsdk/libs/libdrv.a(mdev_gpt.o)
 .bss.uxTopReadyPriority
                0x20000748        0x4 /home/zhouyongjian/wangshi/wmsdk_bundle-3.1.16/bin/wmsdk/libs/libfreertos.a(tasks.o)
 .bss.uxTasksDeleted
                0x2000074c        0x4 /home/zhouyongjian/wangshi/wmsdk_bundle-3.1.16/bin/wmsdk/libs/libfreertos.a(tasks.o)
 .bss.xTickCount
                0x20000750        0x4 /home/zhouyongjian/wangshi/wmsdk_bundle-3.1.16/bin/wmsdk/libs/libfreertos.a(tasks.o)
 .bss.pxReadyTasksLists
                0x20000754       0x64 /home/zhouyongjian/wangshi/wmsdk_bundle-3.1.16/bin/wmsdk/libs/libfreertos.a(tasks.o)
 .bss.pxOverflowDelayedTaskList
                0x200007b8        0x4 /home/zhouyongjian/wangshi/wmsdk_bundle-3.1.16/bin/wmsdk/libs/libfreertos.a(tasks.o)
 .bss.xTasksWaitingTermination
                0x200007bc       0x14 /home/zhouyongjian/wangshi/wmsdk_bundle-3.1.16/bin/wmsdk/libs/libfreertos.a(tasks.o)
 .bss.xTracing  0x200007d0        0x4 /home/zhouyongjian/wangshi/wmsdk_bundle-3.1.16/bin/wmsdk/libs/libfreertos.a(tasks.o)
 .bss.pxDelayedTaskList
                0x200007d4        0x4 /home/zhouyongjian/wangshi/wmsdk_bundle-3.1.16/bin/wmsdk/libs/libfreertos.a(tasks.o)
 .bss.uxCurrentNumberOfTasks
                0x200007d8        0x4 /home/zhouyongjian/wangshi/wmsdk_bundle-3.1.16/bin/wmsdk/libs/libfreertos.a(tasks.o)
 .bss.xPendingReadyList
                0x200007dc       0x14 /home/zhouyongjian/wangshi/wmsdk_bundle-3.1.16/bin/wmsdk/libs/libfreertos.a(tasks.o)
 .bss.xSchedulerRunning
                0x200007f0        0x4 /home/zhouyongjian/wangshi/wmsdk_bundle-3.1.16/bin/wmsdk/libs/libfreertos.a(tasks.o)
 .bss.xMissedYield
                0x200007f4        0x4 /home/zhouyongjian/wangshi/wmsdk_bundle-3.1.16/bin/wmsdk/libs/libfreertos.a(tasks.o)
 .bss.uxTaskNumber
                0x200007f8        0x4 /home/zhouyongjian/wangshi/wmsdk_bundle-3.1.16/bin/wmsdk/libs/libfreertos.a(tasks.o)
 .bss.pcTraceBuffer
                0x200007fc        0x4 /home/zhouyongjian/wangshi/wmsdk_bundle-3.1.16/bin/wmsdk/libs/libfreertos.a(tasks.o)
 .bss.pxCurrentTCB
                0x20000800        0x4 /home/zhouyongjian/wangshi/wmsdk_bundle-3.1.16/bin/wmsdk/libs/libfreertos.a(tasks.o)
                0x20000800                pxCurrentTCB
 .bss.xSuspendedTaskList
                0x20000804       0x14 /home/zhouyongjian/wangshi/wmsdk_bundle-3.1.16/bin/wmsdk/libs/libfreertos.a(tasks.o)
 .bss.xDelayedTaskList1
                0x20000818       0x14 /home/zhouyongjian/wangshi/wmsdk_bundle-3.1.16/bin/wmsdk/libs/libfreertos.a(tasks.o)
 .bss.xDelayedTaskList2
                0x2000082c       0x14 /home/zhouyongjian/wangshi/wmsdk_bundle-3.1.16/bin/wmsdk/libs/libfreertos.a(tasks.o)
 .bss.uxSchedulerSuspended
                0x20000840        0x4 /home/zhouyongjian/wangshi/wmsdk_bundle-3.1.16/bin/wmsdk/libs/libfreertos.a(tasks.o)
 .bss.uxMissedTicks
                0x20000844        0x4 /home/zhouyongjian/wangshi/wmsdk_bundle-3.1.16/bin/wmsdk/libs/libfreertos.a(tasks.o)
 .bss.pcTraceBufferEnd
                0x20000848        0x4 /home/zhouyongjian/wangshi/wmsdk_bundle-3.1.16/bin/wmsdk/libs/libfreertos.a(tasks.o)
 .bss.xNumOfOverflows
                0x2000084c        0x4 /home/zhouyongjian/wangshi/wmsdk_bundle-3.1.16/bin/wmsdk/libs/libfreertos.a(tasks.o)
 .bss.uxTopUsedPriority
                0x20000850        0x4 /home/zhouyongjian/wangshi/wmsdk_bundle-3.1.16/bin/wmsdk/libs/libfreertos.a(tasks.o)
 .bss.pxCurrentTimerList
                0x20000854        0x4 /home/zhouyongjian/wangshi/wmsdk_bundle-3.1.16/bin/wmsdk/libs/libfreertos.a(timers.o)
 .bss.xActiveTimerList1
                0x20000858       0x14 /home/zhouyongjian/wangshi/wmsdk_bundle-3.1.16/bin/wmsdk/libs/libfreertos.a(timers.o)
 .bss.xActiveTimerList2
                0x2000086c       0x14 /home/zhouyongjian/wangshi/wmsdk_bundle-3.1.16/bin/wmsdk/libs/libfreertos.a(timers.o)
 .bss.xLastTime.4447
                0x20000880        0x4 /home/zhouyongjian/wangshi/wmsdk_bundle-3.1.16/bin/wmsdk/libs/libfreertos.a(timers.o)
 .bss.xTimerQueue
                0x20000884        0x4 /home/zhouyongjian/wangshi/wmsdk_bundle-3.1.16/bin/wmsdk/libs/libfreertos.a(timers.o)
 .bss.pxOverflowTimerList
                0x20000888        0x4 /home/zhouyongjian/wangshi/wmsdk_bundle-3.1.16/bin/wmsdk/libs/libfreertos.a(timers.o)
 .bss.hI        0x2000088c       0x18 /home/zhouyongjian/wangshi/wmsdk_bundle-3.1.16/bin/wmsdk/libs/libfreertos.a(heap_4.o)
 .bss.lastHeapAddress
                0x200008a4        0x4 /home/zhouyongjian/wangshi/wmsdk_bundle-3.1.16/bin/wmsdk/libs/libfreertos.a(heap_4.o)
 .bss.xFreeBytesRemaining
                0x200008a8        0x4 /home/zhouyongjian/wangshi/wmsdk_bundle-3.1.16/bin/wmsdk/libs/libfreertos.a(heap_4.o)
 .bss.xStart    0x200008ac        0xc /home/zhouyongjian/wangshi/wmsdk_bundle-3.1.16/bin/wmsdk/libs/libfreertos.a(heap_4.o)
 .bss.startHeapAddress
                0x200008b8        0x4 /home/zhouyongjian/wangshi/wmsdk_bundle-3.1.16/bin/wmsdk/libs/libfreertos.a(heap_4.o)
 .bss.configTOTAL_HEAP_SIZE
                0x200008bc        0x4 /home/zhouyongjian/wangshi/wmsdk_bundle-3.1.16/bin/wmsdk/libs/libfreertos.a(heap_4.o)
 .bss.xEnd      0x200008c0        0xc /home/zhouyongjian/wangshi/wmsdk_bundle-3.1.16/bin/wmsdk/libs/libfreertos.a(heap_4.o)
 .bss.xHeapHasBeenInitialised.5075
                0x200008cc        0x4 /home/zhouyongjian/wangshi/wmsdk_bundle-3.1.16/bin/wmsdk/libs/libfreertos.a(heap_4.o)
 .bss.xHeap     0x200008d0        0x8 /home/zhouyongjian/wangshi/wmsdk_bundle-3.1.16/bin/wmsdk/libs/libfreertos.a(heap_4.o)
 .bss.pMdevList
                0x200008d8        0x4 /home/zhouyongjian/wangshi/wmsdk_bundle-3.1.16/bin/wmsdk/libs/libmdev.a(mdev.o)
                0x200008d8                pMdevList
 .bss.g_os_tick_hooks
                0x200008dc       0x10 /home/zhouyongjian/wangshi/wmsdk_bundle-3.1.16/bin/wmsdk/libs/libos.a(os.o)
                0x200008dc                g_os_tick_hooks
 .bss.g_sys_lock
                0x200008ec        0x4 /home/zhouyongjian/wangshi/wmsdk_bundle-3.1.16/bin/wmsdk/libs/libos.a(os.o)
                0x200008ec                g_sys_lock
 .bss.g_os_idle_hooks
                0x200008f0       0x10 /home/zhouyongjian/wangshi/wmsdk_bundle-3.1.16/bin/wmsdk/libs/libos.a(os.o)
                0x200008f0                g_os_idle_hooks
 .bss.g_rst_cause
                0x20000900        0x4 /home/zhouyongjian/wangshi/wmsdk_bundle-3.1.16/bin/wmsdk/libs/libutil.a(boot_flags.o)
                0x20000900                g_rst_cause
 .bss.g_boot_flags
                0x20000904        0x4 /home/zhouyongjian/wangshi/wmsdk_bundle-3.1.16/bin/wmsdk/libs/libutil.a(boot_flags.o)
                0x20000904                g_boot_flags
 .bss.g_prev_version_fw
                0x20000908        0x4 /home/zhouyongjian/wangshi/wmsdk_bundle-3.1.16/bin/wmsdk/libs/libutil.a(boot_flags.o)
                0x20000908                g_prev_version_fw
 .bss.ll_msg_buf_
                0x2000090c       0x7f /home/zhouyongjian/wangshi/wmsdk_bundle-3.1.16/bin/wmsdk/libs/libwmstdio.a(wmstdio.o)
 *fill*         0x2000098b        0x1 
 .bss.wmstdio_mutex
                0x2000098c        0x4 /home/zhouyongjian/wangshi/wmsdk_bundle-3.1.16/bin/wmsdk/libs/libwmstdio.a(wmstdio.o)
 .bss.empty_funcs
                0x20000990       0x10 /home/zhouyongjian/wangshi/wmsdk_bundle-3.1.16/bin/wmsdk/libs/libwmstdio.a(wmstdio.o)
                0x20000990                empty_funcs
 .bss.wmstdio_msg_buf_
                0x200009a0       0x7f /home/zhouyongjian/wangshi/wmsdk_bundle-3.1.16/bin/wmsdk/libs/libwmstdio.a(wmstdio.o)
 *fill*         0x20000a1f        0x1 
 .bss.mdev_uart_
                0x20000a20        0x4 /home/zhouyongjian/wangshi/wmsdk_bundle-3.1.16/bin/wmsdk/libs/libwmstdio.a(console.o)
 .bss.gpio_dev  0x20000a24        0x4 obj/electric_measure.o
                0x20000a24                gpio_dev
 .bss.gpio_OUT  0x20000a28        0x1 obj/electric_measure.o
                0x20000a28                gpio_OUT
 .bss.data_exist_flashflag
                0x20000a29        0x1 obj/electric_measure.o
 *fill*         0x20000a2a        0x2 
 .bss.gpt_dev   0x20000a2c        0x4 obj/electric_measure.o
                0x20000a2c                gpt_dev
 .bss.gpio_P    0x20000a30        0x1 obj/electric_measure.o
                0x20000a30                gpio_P
 .bss.gpio_IV   0x20000a31        0x1 obj/electric_measure.o
                0x20000a31                gpio_IV
 *fill*         0x20000a32        0x2 
 .bss.U32_P_REF_PLUSEWIDTH_TIME
                0x20000a34        0x4 obj/C_HLW8012_debug.o
                0x20000a34                U32_P_REF_PLUSEWIDTH_TIME
 .bss.U16_E_Pluse_CNT
                0x20000a38        0x4 obj/C_HLW8012_debug.o
                0x20000a38                U16_E_Pluse_CNT
 .bss.U16_AC_P  0x20000a3c        0x4 obj/C_HLW8012_debug.o
                0x20000a3c                U16_AC_P
 .bss.U16_REF_001_E_Pluse_CNT
                0x20000a40        0x4 obj/C_HLW8012_debug.o
                0x20000a40                U16_REF_001_E_Pluse_CNT
 .bss.U16_AC_V  0x20000a44        0x4 obj/C_HLW8012_debug.o
                0x20000a44                U16_AC_V
 .bss.B_VI_Test_Mode
                0x20000a48        0x1 obj/C_HLW8012_debug.o
                0x20000a48                B_VI_Test_Mode
 *fill*         0x20000a49        0x3 
 .bss.U32_P_CURRENT_PLUSEWIDTH_TIME
                0x20000a4c        0x4 obj/C_HLW8012_debug.o
                0x20000a4c                U32_P_CURRENT_PLUSEWIDTH_TIME
 .bss.B_V_Last_TestOneCycle_Mode
                0x20000a50        0x1 obj/C_HLW8012_debug.o
                0x20000a50                B_V_Last_TestOneCycle_Mode
 .bss.Measure_COS_Flag
                0x20000a51        0x1 obj/C_HLW8012_debug.o
                0x20000a51                Measure_COS_Flag
 .bss.U8_CURR_WorkMode
                0x20000a52        0x1 obj/C_HLW8012_debug.o
                0x20000a52                U8_CURR_WorkMode
 .bss.B_I_Last_TestOneCycle_Mode
                0x20000a53        0x1 obj/C_HLW8012_debug.o
                0x20000a53                B_I_Last_TestOneCycle_Mode
 .bss.U16_P_OneCycleTime
                0x20000a54        0x4 obj/C_HLW8012_debug.o
                0x20000a54                U16_P_OneCycleTime
 .bss.U32_I_REF_PLUSEWIDTH_TIME
                0x20000a58        0x4 obj/C_HLW8012_debug.o
                0x20000a58                U32_I_REF_PLUSEWIDTH_TIME
 .bss.Measure_I_Flag
                0x20000a5c        0x1 obj/C_HLW8012_debug.o
                0x20000a5c                Measure_I_Flag
 *fill*         0x20000a5d        0x3 
 .bss.U16_P_Last_CNT
                0x20000a60        0x4 obj/C_HLW8012_debug.o
                0x20000a60                U16_P_Last_CNT
 .bss.B_I_TestOneCycle_Mode
                0x20000a64        0x1 obj/C_HLW8012_debug.o
                0x20000a64                B_I_TestOneCycle_Mode
 *fill*         0x20000a65        0x3 
 .bss.U16_P_Last_OneCycleTime
                0x20000a68        0x4 obj/C_HLW8012_debug.o
                0x20000a68                U16_P_Last_OneCycleTime
 .bss.U16_P_REF_Data
                0x20000a6c        0x4 obj/C_HLW8012_debug.o
                0x20000a6c                U16_P_REF_Data
 .bss.Measure_V_Flag
                0x20000a70        0x1 obj/C_HLW8012_debug.o
                0x20000a70                Measure_V_Flag
 *fill*         0x20000a71        0x3 
 .bss.U16_P_CNT
                0x20000a74        0x4 obj/C_HLW8012_debug.o
                0x20000a74                U16_P_CNT
 .bss.Measure_P_Flag
                0x20000a78        0x1 obj/C_HLW8012_debug.o
                0x20000a78                Measure_P_Flag
 *fill*         0x20000a79        0x3 
 .bss.U16_I_OneCycleTime
                0x20000a7c        0x4 obj/C_HLW8012_debug.o
                0x20000a7c                U16_I_OneCycleTime
 .bss.U16_V_REF_Data
                0x20000a80        0x4 obj/C_HLW8012_debug.o
                0x20000a80                U16_V_REF_Data
 .bss.U16_VI_Test_Times
                0x20000a84        0x4 obj/C_HLW8012_debug.o
                0x20000a84                U16_VI_Test_Times
 .bss.B_V_TestOneCycle_Mode
                0x20000a88        0x1 obj/C_HLW8012_debug.o
                0x20000a88                B_V_TestOneCycle_Mode
 *fill*         0x20000a89        0x3 
 .bss.U32_AC_BACKUP_E
                0x20000a8c        0x4 obj/C_HLW8012_debug.o
                0x20000a8c                U32_AC_BACKUP_E
 .bss.U32_AC_SAVE_E
                0x20000a90        0x4 obj/C_HLW8012_debug.o
                0x20000a90                U32_AC_SAVE_E
 .bss.B_V_Last_OVERFLOW
                0x20000a94        0x1 obj/C_HLW8012_debug.o
                0x20000a94                B_V_Last_OVERFLOW
 *fill*         0x20000a95        0x3 
 .bss.U16_V_Last_CNT
                0x20000a98        0x4 obj/C_HLW8012_debug.o
                0x20000a98                U16_V_Last_CNT
 .bss.U16_V_OneCycleTime
                0x20000a9c        0x4 obj/C_HLW8012_debug.o
                0x20000a9c                U16_V_OneCycleTime
 .bss.B_P_Last_OVERFLOW
                0x20000aa0        0x1 obj/C_HLW8012_debug.o
                0x20000aa0                B_P_Last_OVERFLOW
 *fill*         0x20000aa1        0x3 
 .bss.U16_V_TotalTimes
                0x20000aa4        0x4 obj/C_HLW8012_debug.o
                0x20000aa4                U16_V_TotalTimes
 .bss.U32_V_CURRENT_PLUSEWIDTH_TIME
                0x20000aa8        0x4 obj/C_HLW8012_debug.o
                0x20000aa8                U32_V_CURRENT_PLUSEWIDTH_TIME
 .bss.U32_Cal_Times
                0x20000aac        0x4 obj/C_HLW8012_debug.o
                0x20000aac                U32_Cal_Times
 .bss.U8_AC_COS
                0x20000ab0        0x1 obj/C_HLW8012_debug.o
                0x20000ab0                U8_AC_COS
 *fill*         0x20000ab1        0x3 
 .bss.U16_I_Last_OneCycleTime
                0x20000ab4        0x4 obj/C_HLW8012_debug.o
                0x20000ab4                U16_I_Last_OneCycleTime
 .bss.U16_I_CNT
                0x20000ab8        0x4 obj/C_HLW8012_debug.o
                0x20000ab8                U16_I_CNT
 .bss.B_P_OVERFLOW
                0x20000abc        0x1 obj/C_HLW8012_debug.o
                0x20000abc                B_P_OVERFLOW
 .bss.B_I_OVERFLOW
                0x20000abd        0x1 obj/C_HLW8012_debug.o
                0x20000abd                B_I_OVERFLOW
 *fill*         0x20000abe        0x2 
 .bss.U16_I_REF_Data
                0x20000ac0        0x4 obj/C_HLW8012_debug.o
                0x20000ac0                U16_I_REF_Data
 .bss.U16_I_TotalTimes
                0x20000ac4        0x4 obj/C_HLW8012_debug.o
                0x20000ac4                U16_I_TotalTimes
 .bss.U16_V_Last_OneCycleTime
                0x20000ac8        0x4 obj/C_HLW8012_debug.o
                0x20000ac8                U16_V_Last_OneCycleTime
 .bss.U16_I_Last_CNT
                0x20000acc        0x4 obj/C_HLW8012_debug.o
                0x20000acc                U16_I_Last_CNT
 .bss.U16_V_CNT
                0x20000ad0        0x4 obj/C_HLW8012_debug.o
                0x20000ad0                U16_V_CNT
 .bss.B_I_Last_OVERFLOW
                0x20000ad4        0x1 obj/C_HLW8012_debug.o
                0x20000ad4                B_I_Last_OVERFLOW
 .bss.B_V_OVERFLOW
                0x20000ad5        0x1 obj/C_HLW8012_debug.o
                0x20000ad5                B_V_OVERFLOW
 *fill*         0x20000ad6        0x2 
 .bss.U32_AC_E  0x20000ad8        0x4 obj/C_HLW8012_debug.o
                0x20000ad8                U32_AC_E
 .bss.U32_V_REF_PLUSEWIDTH_TIME
                0x20000adc        0x4 obj/C_HLW8012_debug.o
                0x20000adc                U32_V_REF_PLUSEWIDTH_TIME
 .bss.U16_P_TotalTimes
                0x20000ae0        0x4 obj/C_HLW8012_debug.o
                0x20000ae0                U16_P_TotalTimes
 .bss.U32_I_CURRENT_PLUSEWIDTH_TIME
                0x20000ae4        0x4 obj/C_HLW8012_debug.o
                0x20000ae4                U32_I_CURRENT_PLUSEWIDTH_TIME
 .bss.B_P_TestOneCycle_Mode
                0x20000ae8        0x1 obj/C_HLW8012_debug.o
                0x20000ae8                B_P_TestOneCycle_Mode
 .bss.B_P_Last_TestOneCycle_Mode
                0x20000ae9        0x1 obj/C_HLW8012_debug.o
                0x20000ae9                B_P_Last_TestOneCycle_Mode
 *fill*         0x20000aea        0x2 
 .bss.U16_AC_I  0x20000aec        0x4 obj/C_HLW8012_debug.o
                0x20000aec                U16_AC_I
 .bss.gpio_mutex
                0x20000af0        0x4 /home/zhouyongjian/wangshi/wmsdk_bundle-3.1.16/bin/wmsdk/libs/libdrv.a(mdev_gpio.o)
 .bss.MDEV_gpio
                0x20000af4       0x14 /home/zhouyongjian/wangshi/wmsdk_bundle-3.1.16/bin/wmsdk/libs/libdrv.a(mdev_gpio.o)
 .bss.gpio_irq_obj_list
                0x20000b08      0x190 /home/zhouyongjian/wangshi/wmsdk_bundle-3.1.16/bin/wmsdk/libs/libdrv.a(mdev_gpio.o)
 .bss.mdev_dma_p_data
                0x20000c98       0x3c /home/zhouyongjian/wangshi/wmsdk_bundle-3.1.16/bin/wmsdk/libs/libdrv.a(mdev_dma.o)
 .bss.mdev_dma  0x20000cd4       0x14 /home/zhouyongjian/wangshi/wmsdk_bundle-3.1.16/bin/wmsdk/libs/libdrv.a(mdev_dma.o)
 .bss.fl_cfg    0x20000ce8       0x10 /home/zhouyongjian/wangshi/wmsdk_bundle-3.1.16/bin/wmsdk/libs/libdrv.a(mdev_iflash.o)
 .bss.MDEV_iflash
                0x20000cf8       0x14 /home/zhouyongjian/wangshi/wmsdk_bundle-3.1.16/bin/wmsdk/libs/libdrv.a(mdev_iflash.o)
 .bss.iflash_mutex
                0x20000d0c        0x4 /home/zhouyongjian/wangshi/wmsdk_bundle-3.1.16/bin/wmsdk/libs/libdrv.a(mdev_iflash.o)
 *(COMMON)
                0x20000d10                _ebss = .

._main_stack    0x20000d10      0x800
                0x20000d10                . = ALIGN (0x4)
                0x20001510                . = (. + _min_stack_size)
 *fill*         0x20000d10      0x800 
                0x20001510                . = ALIGN (0x4)

.nvram          0x480c0000       0x44
                0x480c0000                _nvram_start = .
                0x480c0040                . = (. + 0x40)
 *fill*         0x480c0000       0x40 
                0x480c0040                . = ALIGN (0x4)
                0x480c0040                _nvram_begin = .
 *(.nvram)
 *(.nvram.*)
                0x480c0040                _nvram_end = .
                0x480c0040                . = ALIGN (0x4)
 *(.nvram_uninit)
 .nvram_uninit  0x480c0040        0x4 /home/zhouyongjian/wangshi/wmsdk_bundle-3.1.16/bin/wmsdk/libs/libdrv.a(mdev_pm.o)
                0x480c0040                pm4_sig
 *(.nvram_uninit.*)

/DISCARD/
 *(.ARM.exidx* .gnu.linkonce.armexidx.*)
OUTPUT(bin/HLW_demo.axf elf32-littlearm)

.debug_info     0x00000000    0x2e6ee
 .debug_info    0x00000000     0x3c01 /home/zhouyongjian/wangshi/wmsdk_bundle-3.1.16/bin/wmsdk/libs/libdrv.a(mdev_startup.o)
 .debug_info    0x00003c01     0x4966 /home/zhouyongjian/wangshi/wmsdk_bundle-3.1.16/bin/wmsdk/libs/libdrv.a(mdev_pm.o)
 .debug_info    0x00008567     0x3812 /home/zhouyongjian/wangshi/wmsdk_bundle-3.1.16/bin/wmsdk/libs/libdrv.a(mw300_clock.o)
 .debug_info    0x0000bd79      0x71f /home/zhouyongjian/wangshi/wmsdk_bundle-3.1.16/bin/wmsdk/libs/libdrv.a(mw300_driver.o)
 .debug_info    0x0000c498     0x37de /home/zhouyongjian/wangshi/wmsdk_bundle-3.1.16/bin/wmsdk/libs/libdrv.a(mw300_pmu.o)
 .debug_info    0x0000fc76      0x36f /home/zhouyongjian/wangshi/wmsdk_bundle-3.1.16/bin/wmsdk/libs/libdrv.a(mw300_pinmux.o)
 .debug_info    0x0000ffe5      0x931 /home/zhouyongjian/wangshi/wmsdk_bundle-3.1.16/bin/wmsdk/libs/libdrv.a(mw300_rtc.o)
 .debug_info    0x00010916     0x15af /home/zhouyongjian/wangshi/wmsdk_bundle-3.1.16/bin/wmsdk/libs/libdrv.a(mdev_gpt.o)
 .debug_info    0x00011ec5     0x1b39 /home/zhouyongjian/wangshi/wmsdk_bundle-3.1.16/bin/wmsdk/libs/libdrv.a(mw300_gpt.o)
 .debug_info    0x000139fe      0xf14 /home/zhouyongjian/wangshi/wmsdk_bundle-3.1.16/bin/wmsdk/libs/libfreertos.a(queue.o)
 .debug_info    0x00014912     0x1efd /home/zhouyongjian/wangshi/wmsdk_bundle-3.1.16/bin/wmsdk/libs/libfreertos.a(tasks.o)
 .debug_info    0x0001680f      0xddb /home/zhouyongjian/wangshi/wmsdk_bundle-3.1.16/bin/wmsdk/libs/libfreertos.a(timers.o)
 .debug_info    0x000175ea      0x212 /home/zhouyongjian/wangshi/wmsdk_bundle-3.1.16/bin/wmsdk/libs/libfreertos.a(port.o)
 .debug_info    0x000177fc      0x6c1 /home/zhouyongjian/wangshi/wmsdk_bundle-3.1.16/bin/wmsdk/libs/libfreertos.a(heap_4.o)
 .debug_info    0x00017ebd      0x27e /home/zhouyongjian/wangshi/wmsdk_bundle-3.1.16/bin/wmsdk/libs/libfreertos.a(list.o)
 .debug_info    0x0001813b      0x3d1 /home/zhouyongjian/wangshi/wmsdk_bundle-3.1.16/bin/wmsdk/libs/libmdev.a(mdev.o)
 .debug_info    0x0001850c     0x204b /home/zhouyongjian/wangshi/wmsdk_bundle-3.1.16/bin/wmsdk/libs/libos.a(os.o)
 .debug_info    0x0001a557      0xa20 /home/zhouyongjian/wangshi/wmsdk_bundle-3.1.16/bin/wmsdk/libs/libutil.a(boot_flags.o)
 .debug_info    0x0001af77      0x192 /home/zhouyongjian/wangshi/wmsdk_bundle-3.1.16/bin/wmsdk/libs/libutil.a(critical_error.o)
 .debug_info    0x0001b109      0xa2e /home/zhouyongjian/wangshi/wmsdk_bundle-3.1.16/bin/wmsdk/libs/libwmstdio.a(wmstdio.o)
 .debug_info    0x0001bb37      0x41a /home/zhouyongjian/wangshi/wmsdk_bundle-3.1.16/bin/wmsdk/libs/libwmstdio.a(console.o)
 .debug_info    0x0001bf51      0xb5c obj/board.o
 .debug_info    0x0001caad      0xb31 obj/electric_measure.o
 .debug_info    0x0001d5de      0x6eb obj/C_HLW8012_debug.o
 .debug_info    0x0001dcc9       0xc2 /home/zhouyongjian/wangshi/wmsdk_bundle-3.1.16/bin/wmsdk/libs/libc.a(memcmp.o)
 .debug_info    0x0001dd8b      0x4f3 /home/zhouyongjian/wangshi/wmsdk_bundle-3.1.16/bin/wmsdk/libs/libc.a(vsnprintf.o)
 .debug_info    0x0001e27e       0xc3 /home/zhouyongjian/wangshi/wmsdk_bundle-3.1.16/bin/wmsdk/libs/libc.a(strcmp.o)
 .debug_info    0x0001e341       0xf4 /home/zhouyongjian/wangshi/wmsdk_bundle-3.1.16/bin/wmsdk/libs/libc.a(strncpy.o)
 .debug_info    0x0001e435       0x86 /home/zhouyongjian/wangshi/wmsdk_bundle-3.1.16/bin/wmsdk/libs/libc.a(strlen.o)
 .debug_info    0x0001e4bb      0xb2f /home/zhouyongjian/wangshi/wmsdk_bundle-3.1.16/bin/wmsdk/libs/libdrv.a(mw300_gpio.o)
 .debug_info    0x0001efea     0x1986 /home/zhouyongjian/wangshi/wmsdk_bundle-3.1.16/bin/wmsdk/libs/libdrv.a(mw300_uart.o)
 .debug_info    0x00020970     0x17ee /home/zhouyongjian/wangshi/wmsdk_bundle-3.1.16/bin/wmsdk/libs/libdrv.a(mdev_gpio.o)
 .debug_info    0x0002215e     0x32fe /home/zhouyongjian/wangshi/wmsdk_bundle-3.1.16/bin/wmsdk/libs/libdrv.a(mdev_uart.o)
 .debug_info    0x0002545c     0x31f4 /home/zhouyongjian/wangshi/wmsdk_bundle-3.1.16/bin/wmsdk/libs/libdrv.a(mdev_dma.o)
 .debug_info    0x00028650      0x64b /home/zhouyongjian/wangshi/wmsdk_bundle-3.1.16/bin/wmsdk/libs/libutil.a(flash.o)
 .debug_info    0x00028c9b     0x212d /home/zhouyongjian/wangshi/wmsdk_bundle-3.1.16/bin/wmsdk/libs/libdrv.a(mdev_iflash.o)
 .debug_info    0x0002adc8     0x2602 /home/zhouyongjian/wangshi/wmsdk_bundle-3.1.16/bin/wmsdk/libs/libdrv.a(mw300_flash.o)
 .debug_info    0x0002d3ca     0x1324 /home/zhouyongjian/wangshi/wmsdk_bundle-3.1.16/bin/wmsdk/libs/libdrv.a(mw300_qspi.o)

.debug_abbrev   0x00000000     0x62ba
 .debug_abbrev  0x00000000      0x47b /home/zhouyongjian/wangshi/wmsdk_bundle-3.1.16/bin/wmsdk/libs/libdrv.a(mdev_startup.o)
 .debug_abbrev  0x0000047b      0x5eb /home/zhouyongjian/wangshi/wmsdk_bundle-3.1.16/bin/wmsdk/libs/libdrv.a(mdev_pm.o)
 .debug_abbrev  0x00000a66      0x2d0 /home/zhouyongjian/wangshi/wmsdk_bundle-3.1.16/bin/wmsdk/libs/libdrv.a(mw300_clock.o)
 .debug_abbrev  0x00000d36       0xc1 /home/zhouyongjian/wangshi/wmsdk_bundle-3.1.16/bin/wmsdk/libs/libdrv.a(mw300_driver.o)
 .debug_abbrev  0x00000df7      0x374 /home/zhouyongjian/wangshi/wmsdk_bundle-3.1.16/bin/wmsdk/libs/libdrv.a(mw300_pmu.o)
 .debug_abbrev  0x0000116b      0x130 /home/zhouyongjian/wangshi/wmsdk_bundle-3.1.16/bin/wmsdk/libs/libdrv.a(mw300_pinmux.o)
 .debug_abbrev  0x0000129b      0x21f /home/zhouyongjian/wangshi/wmsdk_bundle-3.1.16/bin/wmsdk/libs/libdrv.a(mw300_rtc.o)
 .debug_abbrev  0x000014ba      0x398 /home/zhouyongjian/wangshi/wmsdk_bundle-3.1.16/bin/wmsdk/libs/libdrv.a(mdev_gpt.o)
 .debug_abbrev  0x00001852      0x344 /home/zhouyongjian/wangshi/wmsdk_bundle-3.1.16/bin/wmsdk/libs/libdrv.a(mw300_gpt.o)
 .debug_abbrev  0x00001b96      0x288 /home/zhouyongjian/wangshi/wmsdk_bundle-3.1.16/bin/wmsdk/libs/libfreertos.a(queue.o)
 .debug_abbrev  0x00001e1e      0x3a9 /home/zhouyongjian/wangshi/wmsdk_bundle-3.1.16/bin/wmsdk/libs/libfreertos.a(tasks.o)
 .debug_abbrev  0x000021c7      0x2e0 /home/zhouyongjian/wangshi/wmsdk_bundle-3.1.16/bin/wmsdk/libs/libfreertos.a(timers.o)
 .debug_abbrev  0x000024a7      0x167 /home/zhouyongjian/wangshi/wmsdk_bundle-3.1.16/bin/wmsdk/libs/libfreertos.a(port.o)
 .debug_abbrev  0x0000260e      0x34d /home/zhouyongjian/wangshi/wmsdk_bundle-3.1.16/bin/wmsdk/libs/libfreertos.a(heap_4.o)
 .debug_abbrev  0x0000295b       0xcb /home/zhouyongjian/wangshi/wmsdk_bundle-3.1.16/bin/wmsdk/libs/libfreertos.a(list.o)
 .debug_abbrev  0x00002a26      0x18f /home/zhouyongjian/wangshi/wmsdk_bundle-3.1.16/bin/wmsdk/libs/libmdev.a(mdev.o)
 .debug_abbrev  0x00002bb5      0x532 /home/zhouyongjian/wangshi/wmsdk_bundle-3.1.16/bin/wmsdk/libs/libos.a(os.o)
 .debug_abbrev  0x000030e7      0x21c /home/zhouyongjian/wangshi/wmsdk_bundle-3.1.16/bin/wmsdk/libs/libutil.a(boot_flags.o)
 .debug_abbrev  0x00003303      0x104 /home/zhouyongjian/wangshi/wmsdk_bundle-3.1.16/bin/wmsdk/libs/libutil.a(critical_error.o)
 .debug_abbrev  0x00003407      0x36d /home/zhouyongjian/wangshi/wmsdk_bundle-3.1.16/bin/wmsdk/libs/libwmstdio.a(wmstdio.o)
 .debug_abbrev  0x00003774      0x1bf /home/zhouyongjian/wangshi/wmsdk_bundle-3.1.16/bin/wmsdk/libs/libwmstdio.a(console.o)
 .debug_abbrev  0x00003933      0x273 obj/board.o
 .debug_abbrev  0x00003ba6      0x257 obj/electric_measure.o
 .debug_abbrev  0x00003dfd      0x1a7 obj/C_HLW8012_debug.o
 .debug_abbrev  0x00003fa4       0x95 /home/zhouyongjian/wangshi/wmsdk_bundle-3.1.16/bin/wmsdk/libs/libc.a(memcmp.o)
 .debug_abbrev  0x00004039      0x1f0 /home/zhouyongjian/wangshi/wmsdk_bundle-3.1.16/bin/wmsdk/libs/libc.a(vsnprintf.o)
 .debug_abbrev  0x00004229       0x83 /home/zhouyongjian/wangshi/wmsdk_bundle-3.1.16/bin/wmsdk/libs/libc.a(strcmp.o)
 .debug_abbrev  0x000042ac       0xbb /home/zhouyongjian/wangshi/wmsdk_bundle-3.1.16/bin/wmsdk/libs/libc.a(strncpy.o)
 .debug_abbrev  0x00004367       0x81 /home/zhouyongjian/wangshi/wmsdk_bundle-3.1.16/bin/wmsdk/libs/libc.a(strlen.o)
 .debug_abbrev  0x000043e8      0x209 /home/zhouyongjian/wangshi/wmsdk_bundle-3.1.16/bin/wmsdk/libs/libdrv.a(mw300_gpio.o)
 .debug_abbrev  0x000045f1      0x3f6 /home/zhouyongjian/wangshi/wmsdk_bundle-3.1.16/bin/wmsdk/libs/libdrv.a(mw300_uart.o)
 .debug_abbrev  0x000049e7      0x3ca /home/zhouyongjian/wangshi/wmsdk_bundle-3.1.16/bin/wmsdk/libs/libdrv.a(mdev_gpio.o)
 .debug_abbrev  0x00004db1      0x58c /home/zhouyongjian/wangshi/wmsdk_bundle-3.1.16/bin/wmsdk/libs/libdrv.a(mdev_uart.o)
 .debug_abbrev  0x0000533d      0x4ae /home/zhouyongjian/wangshi/wmsdk_bundle-3.1.16/bin/wmsdk/libs/libdrv.a(mdev_dma.o)
 .debug_abbrev  0x000057eb      0x184 /home/zhouyongjian/wangshi/wmsdk_bundle-3.1.16/bin/wmsdk/libs/libutil.a(flash.o)
 .debug_abbrev  0x0000596f      0x40b /home/zhouyongjian/wangshi/wmsdk_bundle-3.1.16/bin/wmsdk/libs/libdrv.a(mdev_iflash.o)
 .debug_abbrev  0x00005d7a      0x31d /home/zhouyongjian/wangshi/wmsdk_bundle-3.1.16/bin/wmsdk/libs/libdrv.a(mw300_flash.o)
 .debug_abbrev  0x00006097      0x223 /home/zhouyongjian/wangshi/wmsdk_bundle-3.1.16/bin/wmsdk/libs/libdrv.a(mw300_qspi.o)

.debug_loc      0x00000000     0xc86e
 .debug_loc     0x00000000      0x209 /home/zhouyongjian/wangshi/wmsdk_bundle-3.1.16/bin/wmsdk/libs/libdrv.a(mdev_startup.o)
 .debug_loc     0x00000209      0x501 /home/zhouyongjian/wangshi/wmsdk_bundle-3.1.16/bin/wmsdk/libs/libdrv.a(mdev_pm.o)
 .debug_loc     0x0000070a      0x89e /home/zhouyongjian/wangshi/wmsdk_bundle-3.1.16/bin/wmsdk/libs/libdrv.a(mw300_clock.o)
 .debug_loc     0x00000fa8      0x30f /home/zhouyongjian/wangshi/wmsdk_bundle-3.1.16/bin/wmsdk/libs/libdrv.a(mw300_pmu.o)
 .debug_loc     0x000012b7       0xa8 /home/zhouyongjian/wangshi/wmsdk_bundle-3.1.16/bin/wmsdk/libs/libdrv.a(mw300_rtc.o)
 .debug_loc     0x0000135f      0x4d3 /home/zhouyongjian/wangshi/wmsdk_bundle-3.1.16/bin/wmsdk/libs/libdrv.a(mdev_gpt.o)
 .debug_loc     0x00001832      0x7d3 /home/zhouyongjian/wangshi/wmsdk_bundle-3.1.16/bin/wmsdk/libs/libdrv.a(mw300_gpt.o)
 .debug_loc     0x00002005      0x93a /home/zhouyongjian/wangshi/wmsdk_bundle-3.1.16/bin/wmsdk/libs/libfreertos.a(queue.o)
 .debug_loc     0x0000293f     0x15d1 /home/zhouyongjian/wangshi/wmsdk_bundle-3.1.16/bin/wmsdk/libs/libfreertos.a(tasks.o)
 .debug_loc     0x00003f10      0x80d /home/zhouyongjian/wangshi/wmsdk_bundle-3.1.16/bin/wmsdk/libs/libfreertos.a(timers.o)
 .debug_loc     0x0000471d       0x45 /home/zhouyongjian/wangshi/wmsdk_bundle-3.1.16/bin/wmsdk/libs/libfreertos.a(port.o)
 .debug_loc     0x00004762      0x6cc /home/zhouyongjian/wangshi/wmsdk_bundle-3.1.16/bin/wmsdk/libs/libfreertos.a(heap_4.o)
 .debug_loc     0x00004e2e       0x73 /home/zhouyongjian/wangshi/wmsdk_bundle-3.1.16/bin/wmsdk/libs/libfreertos.a(list.o)
 .debug_loc     0x00004ea1      0x13f /home/zhouyongjian/wangshi/wmsdk_bundle-3.1.16/bin/wmsdk/libs/libmdev.a(mdev.o)
 .debug_loc     0x00004fe0      0xcb7 /home/zhouyongjian/wangshi/wmsdk_bundle-3.1.16/bin/wmsdk/libs/libos.a(os.o)
 .debug_loc     0x00005c97       0x2d /home/zhouyongjian/wangshi/wmsdk_bundle-3.1.16/bin/wmsdk/libs/libutil.a(boot_flags.o)
 .debug_loc     0x00005cc4       0x6e /home/zhouyongjian/wangshi/wmsdk_bundle-3.1.16/bin/wmsdk/libs/libutil.a(critical_error.o)
 .debug_loc     0x00005d32      0x1a1 /home/zhouyongjian/wangshi/wmsdk_bundle-3.1.16/bin/wmsdk/libs/libwmstdio.a(wmstdio.o)
 .debug_loc     0x00005ed3      0x11b /home/zhouyongjian/wangshi/wmsdk_bundle-3.1.16/bin/wmsdk/libs/libwmstdio.a(console.o)
 .debug_loc     0x00005fee      0x12f obj/board.o
 .debug_loc     0x0000611d      0x136 obj/electric_measure.o
 .debug_loc     0x00006253      0x181 obj/C_HLW8012_debug.o
 .debug_loc     0x000063d4       0xfd /home/zhouyongjian/wangshi/wmsdk_bundle-3.1.16/bin/wmsdk/libs/libc.a(memcmp.o)
 .debug_loc     0x000064d1      0xf78 /home/zhouyongjian/wangshi/wmsdk_bundle-3.1.16/bin/wmsdk/libs/libc.a(vsnprintf.o)
 .debug_loc     0x00007449       0xfd /home/zhouyongjian/wangshi/wmsdk_bundle-3.1.16/bin/wmsdk/libs/libc.a(strcmp.o)
 .debug_loc     0x00007546       0xc6 /home/zhouyongjian/wangshi/wmsdk_bundle-3.1.16/bin/wmsdk/libs/libc.a(strncpy.o)
 .debug_loc     0x0000760c       0x3f /home/zhouyongjian/wangshi/wmsdk_bundle-3.1.16/bin/wmsdk/libs/libc.a(strlen.o)
 .debug_loc     0x0000764b      0x248 /home/zhouyongjian/wangshi/wmsdk_bundle-3.1.16/bin/wmsdk/libs/libdrv.a(mw300_gpio.o)
 .debug_loc     0x00007893      0xc0f /home/zhouyongjian/wangshi/wmsdk_bundle-3.1.16/bin/wmsdk/libs/libdrv.a(mw300_uart.o)
 .debug_loc     0x000084a2      0x5f4 /home/zhouyongjian/wangshi/wmsdk_bundle-3.1.16/bin/wmsdk/libs/libdrv.a(mdev_gpio.o)
 .debug_loc     0x00008a96     0x1595 /home/zhouyongjian/wangshi/wmsdk_bundle-3.1.16/bin/wmsdk/libs/libdrv.a(mdev_uart.o)
 .debug_loc     0x0000a02b      0x670 /home/zhouyongjian/wangshi/wmsdk_bundle-3.1.16/bin/wmsdk/libs/libdrv.a(mdev_dma.o)
 .debug_loc     0x0000a69b      0x44f /home/zhouyongjian/wangshi/wmsdk_bundle-3.1.16/bin/wmsdk/libs/libutil.a(flash.o)
 .debug_loc     0x0000aaea      0x7eb /home/zhouyongjian/wangshi/wmsdk_bundle-3.1.16/bin/wmsdk/libs/libdrv.a(mdev_iflash.o)
 .debug_loc     0x0000b2d5      0xe96 /home/zhouyongjian/wangshi/wmsdk_bundle-3.1.16/bin/wmsdk/libs/libdrv.a(mw300_flash.o)
 .debug_loc     0x0000c16b      0x703 /home/zhouyongjian/wangshi/wmsdk_bundle-3.1.16/bin/wmsdk/libs/libdrv.a(mw300_qspi.o)

.debug_aranges  0x00000000     0x1420
 .debug_aranges
                0x00000000       0x58 /home/zhouyongjian/wangshi/wmsdk_bundle-3.1.16/bin/wmsdk/libs/libdrv.a(mdev_startup.o)
 .debug_aranges
                0x00000058       0xd8 /home/zhouyongjian/wangshi/wmsdk_bundle-3.1.16/bin/wmsdk/libs/libdrv.a(mdev_pm.o)
 .debug_aranges
                0x00000130      0x140 /home/zhouyongjian/wangshi/wmsdk_bundle-3.1.16/bin/wmsdk/libs/libdrv.a(mw300_clock.o)
 .debug_aranges
                0x00000270       0x20 /home/zhouyongjian/wangshi/wmsdk_bundle-3.1.16/bin/wmsdk/libs/libdrv.a(mw300_driver.o)
 .debug_aranges
                0x00000290      0x120 /home/zhouyongjian/wangshi/wmsdk_bundle-3.1.16/bin/wmsdk/libs/libdrv.a(mw300_pmu.o)
 .debug_aranges
                0x000003b0       0x28 /home/zhouyongjian/wangshi/wmsdk_bundle-3.1.16/bin/wmsdk/libs/libdrv.a(mw300_pinmux.o)
 .debug_aranges
                0x000003d8       0x80 /home/zhouyongjian/wangshi/wmsdk_bundle-3.1.16/bin/wmsdk/libs/libdrv.a(mw300_rtc.o)
 .debug_aranges
                0x00000458       0x58 /home/zhouyongjian/wangshi/wmsdk_bundle-3.1.16/bin/wmsdk/libs/libdrv.a(mdev_gpt.o)
 .debug_aranges
                0x000004b0       0xf0 /home/zhouyongjian/wangshi/wmsdk_bundle-3.1.16/bin/wmsdk/libs/libdrv.a(mw300_gpt.o)
 .debug_aranges
                0x000005a0       0xb0 /home/zhouyongjian/wangshi/wmsdk_bundle-3.1.16/bin/wmsdk/libs/libfreertos.a(queue.o)
 .debug_aranges
                0x00000650      0x168 /home/zhouyongjian/wangshi/wmsdk_bundle-3.1.16/bin/wmsdk/libs/libfreertos.a(tasks.o)
 .debug_aranges
                0x000007b8       0x60 /home/zhouyongjian/wangshi/wmsdk_bundle-3.1.16/bin/wmsdk/libs/libfreertos.a(timers.o)
 .debug_aranges
                0x00000818       0x68 /home/zhouyongjian/wangshi/wmsdk_bundle-3.1.16/bin/wmsdk/libs/libfreertos.a(port.o)
 .debug_aranges
                0x00000880       0x68 /home/zhouyongjian/wangshi/wmsdk_bundle-3.1.16/bin/wmsdk/libs/libfreertos.a(heap_4.o)
 .debug_aranges
                0x000008e8       0x40 /home/zhouyongjian/wangshi/wmsdk_bundle-3.1.16/bin/wmsdk/libs/libfreertos.a(list.o)
 .debug_aranges
                0x00000928       0x30 /home/zhouyongjian/wangshi/wmsdk_bundle-3.1.16/bin/wmsdk/libs/libmdev.a(mdev.o)
 .debug_aranges
                0x00000958      0x118 /home/zhouyongjian/wangshi/wmsdk_bundle-3.1.16/bin/wmsdk/libs/libos.a(os.o)
 .debug_aranges
                0x00000a70       0x28 /home/zhouyongjian/wangshi/wmsdk_bundle-3.1.16/bin/wmsdk/libs/libutil.a(boot_flags.o)
 .debug_aranges
                0x00000a98       0x28 /home/zhouyongjian/wangshi/wmsdk_bundle-3.1.16/bin/wmsdk/libs/libutil.a(critical_error.o)
 .debug_aranges
                0x00000ac0       0x68 /home/zhouyongjian/wangshi/wmsdk_bundle-3.1.16/bin/wmsdk/libs/libwmstdio.a(wmstdio.o)
 .debug_aranges
                0x00000b28       0x48 /home/zhouyongjian/wangshi/wmsdk_bundle-3.1.16/bin/wmsdk/libs/libwmstdio.a(console.o)
 .debug_aranges
                0x00000b70      0x110 obj/board.o
 .debug_aranges
                0x00000c80       0x48 obj/electric_measure.o
 .debug_aranges
                0x00000cc8       0x68 obj/C_HLW8012_debug.o
 .debug_aranges
                0x00000d30       0x20 /home/zhouyongjian/wangshi/wmsdk_bundle-3.1.16/bin/wmsdk/libs/libc.a(memcmp.o)
 .debug_aranges
                0x00000d50       0x20 /home/zhouyongjian/wangshi/wmsdk_bundle-3.1.16/bin/wmsdk/libs/libc.a(vsnprintf.o)
 .debug_aranges
                0x00000d70       0x20 /home/zhouyongjian/wangshi/wmsdk_bundle-3.1.16/bin/wmsdk/libs/libc.a(strcmp.o)
 .debug_aranges
                0x00000d90       0x20 /home/zhouyongjian/wangshi/wmsdk_bundle-3.1.16/bin/wmsdk/libs/libc.a(strncpy.o)
 .debug_aranges
                0x00000db0       0x20 /home/zhouyongjian/wangshi/wmsdk_bundle-3.1.16/bin/wmsdk/libs/libc.a(strlen.o)
 .debug_aranges
                0x00000dd0       0x70 /home/zhouyongjian/wangshi/wmsdk_bundle-3.1.16/bin/wmsdk/libs/libdrv.a(mw300_gpio.o)
 .debug_aranges
                0x00000e40      0x110 /home/zhouyongjian/wangshi/wmsdk_bundle-3.1.16/bin/wmsdk/libs/libdrv.a(mw300_uart.o)
 .debug_aranges
                0x00000f50       0x70 /home/zhouyongjian/wangshi/wmsdk_bundle-3.1.16/bin/wmsdk/libs/libdrv.a(mdev_gpio.o)
 .debug_aranges
                0x00000fc0      0x120 /home/zhouyongjian/wangshi/wmsdk_bundle-3.1.16/bin/wmsdk/libs/libdrv.a(mdev_uart.o)
 .debug_aranges
                0x000010e0       0x78 /home/zhouyongjian/wangshi/wmsdk_bundle-3.1.16/bin/wmsdk/libs/libdrv.a(mdev_dma.o)
 .debug_aranges
                0x00001158       0x58 /home/zhouyongjian/wangshi/wmsdk_bundle-3.1.16/bin/wmsdk/libs/libutil.a(flash.o)
 .debug_aranges
                0x000011b0       0x98 /home/zhouyongjian/wangshi/wmsdk_bundle-3.1.16/bin/wmsdk/libs/libdrv.a(mdev_iflash.o)
 .debug_aranges
                0x00001248       0xf0 /home/zhouyongjian/wangshi/wmsdk_bundle-3.1.16/bin/wmsdk/libs/libdrv.a(mw300_flash.o)
 .debug_aranges
                0x00001338       0xe8 /home/zhouyongjian/wangshi/wmsdk_bundle-3.1.16/bin/wmsdk/libs/libdrv.a(mw300_qspi.o)

.debug_ranges   0x00000000     0x17e8
 .debug_ranges  0x00000000       0x48 /home/zhouyongjian/wangshi/wmsdk_bundle-3.1.16/bin/wmsdk/libs/libdrv.a(mdev_startup.o)
 .debug_ranges  0x00000048      0x1a0 /home/zhouyongjian/wangshi/wmsdk_bundle-3.1.16/bin/wmsdk/libs/libdrv.a(mdev_pm.o)
 .debug_ranges  0x000001e8      0x130 /home/zhouyongjian/wangshi/wmsdk_bundle-3.1.16/bin/wmsdk/libs/libdrv.a(mw300_clock.o)
 .debug_ranges  0x00000318       0x10 /home/zhouyongjian/wangshi/wmsdk_bundle-3.1.16/bin/wmsdk/libs/libdrv.a(mw300_driver.o)
 .debug_ranges  0x00000328      0x110 /home/zhouyongjian/wangshi/wmsdk_bundle-3.1.16/bin/wmsdk/libs/libdrv.a(mw300_pmu.o)
 .debug_ranges  0x00000438       0x18 /home/zhouyongjian/wangshi/wmsdk_bundle-3.1.16/bin/wmsdk/libs/libdrv.a(mw300_pinmux.o)
 .debug_ranges  0x00000450       0x70 /home/zhouyongjian/wangshi/wmsdk_bundle-3.1.16/bin/wmsdk/libs/libdrv.a(mw300_rtc.o)
 .debug_ranges  0x000004c0       0xa8 /home/zhouyongjian/wangshi/wmsdk_bundle-3.1.16/bin/wmsdk/libs/libdrv.a(mdev_gpt.o)
 .debug_ranges  0x00000568       0xf8 /home/zhouyongjian/wangshi/wmsdk_bundle-3.1.16/bin/wmsdk/libs/libdrv.a(mw300_gpt.o)
 .debug_ranges  0x00000660       0xa0 /home/zhouyongjian/wangshi/wmsdk_bundle-3.1.16/bin/wmsdk/libs/libfreertos.a(queue.o)
 .debug_ranges  0x00000700      0x3a8 /home/zhouyongjian/wangshi/wmsdk_bundle-3.1.16/bin/wmsdk/libs/libfreertos.a(tasks.o)
 .debug_ranges  0x00000aa8       0xd8 /home/zhouyongjian/wangshi/wmsdk_bundle-3.1.16/bin/wmsdk/libs/libfreertos.a(timers.o)
 .debug_ranges  0x00000b80       0x78 /home/zhouyongjian/wangshi/wmsdk_bundle-3.1.16/bin/wmsdk/libs/libfreertos.a(port.o)
 .debug_ranges  0x00000bf8       0x90 /home/zhouyongjian/wangshi/wmsdk_bundle-3.1.16/bin/wmsdk/libs/libfreertos.a(heap_4.o)
 .debug_ranges  0x00000c88       0x30 /home/zhouyongjian/wangshi/wmsdk_bundle-3.1.16/bin/wmsdk/libs/libfreertos.a(list.o)
 .debug_ranges  0x00000cb8       0x20 /home/zhouyongjian/wangshi/wmsdk_bundle-3.1.16/bin/wmsdk/libs/libmdev.a(mdev.o)
 .debug_ranges  0x00000cd8      0x120 /home/zhouyongjian/wangshi/wmsdk_bundle-3.1.16/bin/wmsdk/libs/libos.a(os.o)
 .debug_ranges  0x00000df8       0x18 /home/zhouyongjian/wangshi/wmsdk_bundle-3.1.16/bin/wmsdk/libs/libutil.a(boot_flags.o)
 .debug_ranges  0x00000e10       0x18 /home/zhouyongjian/wangshi/wmsdk_bundle-3.1.16/bin/wmsdk/libs/libutil.a(critical_error.o)
 .debug_ranges  0x00000e28       0x58 /home/zhouyongjian/wangshi/wmsdk_bundle-3.1.16/bin/wmsdk/libs/libwmstdio.a(wmstdio.o)
 .debug_ranges  0x00000e80       0x38 /home/zhouyongjian/wangshi/wmsdk_bundle-3.1.16/bin/wmsdk/libs/libwmstdio.a(console.o)
 .debug_ranges  0x00000eb8      0x100 obj/board.o
 .debug_ranges  0x00000fb8       0x38 obj/electric_measure.o
 .debug_ranges  0x00000ff0       0x58 obj/C_HLW8012_debug.o
 .debug_ranges  0x00001048       0x10 /home/zhouyongjian/wangshi/wmsdk_bundle-3.1.16/bin/wmsdk/libs/libc.a(memcmp.o)
 .debug_ranges  0x00001058       0x48 /home/zhouyongjian/wangshi/wmsdk_bundle-3.1.16/bin/wmsdk/libs/libc.a(vsnprintf.o)
 .debug_ranges  0x000010a0       0x10 /home/zhouyongjian/wangshi/wmsdk_bundle-3.1.16/bin/wmsdk/libs/libc.a(strcmp.o)
 .debug_ranges  0x000010b0       0x10 /home/zhouyongjian/wangshi/wmsdk_bundle-3.1.16/bin/wmsdk/libs/libc.a(strncpy.o)
 .debug_ranges  0x000010c0       0x10 /home/zhouyongjian/wangshi/wmsdk_bundle-3.1.16/bin/wmsdk/libs/libc.a(strlen.o)
 .debug_ranges  0x000010d0       0x60 /home/zhouyongjian/wangshi/wmsdk_bundle-3.1.16/bin/wmsdk/libs/libdrv.a(mw300_gpio.o)
 .debug_ranges  0x00001130      0x118 /home/zhouyongjian/wangshi/wmsdk_bundle-3.1.16/bin/wmsdk/libs/libdrv.a(mw300_uart.o)
 .debug_ranges  0x00001248       0x60 /home/zhouyongjian/wangshi/wmsdk_bundle-3.1.16/bin/wmsdk/libs/libdrv.a(mdev_gpio.o)
 .debug_ranges  0x000012a8      0x1e8 /home/zhouyongjian/wangshi/wmsdk_bundle-3.1.16/bin/wmsdk/libs/libdrv.a(mdev_uart.o)
 .debug_ranges  0x00001490       0xd0 /home/zhouyongjian/wangshi/wmsdk_bundle-3.1.16/bin/wmsdk/libs/libdrv.a(mdev_dma.o)
 .debug_ranges  0x00001560       0x48 /home/zhouyongjian/wangshi/wmsdk_bundle-3.1.16/bin/wmsdk/libs/libutil.a(flash.o)
 .debug_ranges  0x000015a8       0x88 /home/zhouyongjian/wangshi/wmsdk_bundle-3.1.16/bin/wmsdk/libs/libdrv.a(mdev_iflash.o)
 .debug_ranges  0x00001630       0xe0 /home/zhouyongjian/wangshi/wmsdk_bundle-3.1.16/bin/wmsdk/libs/libdrv.a(mw300_flash.o)
 .debug_ranges  0x00001710       0xd8 /home/zhouyongjian/wangshi/wmsdk_bundle-3.1.16/bin/wmsdk/libs/libdrv.a(mw300_qspi.o)

.debug_line     0x00000000     0x88af
 .debug_line    0x00000000      0x428 /home/zhouyongjian/wangshi/wmsdk_bundle-3.1.16/bin/wmsdk/libs/libdrv.a(mdev_startup.o)
 .debug_line    0x00000428      0x7ac /home/zhouyongjian/wangshi/wmsdk_bundle-3.1.16/bin/wmsdk/libs/libdrv.a(mdev_pm.o)
 .debug_line    0x00000bd4      0x5db /home/zhouyongjian/wangshi/wmsdk_bundle-3.1.16/bin/wmsdk/libs/libdrv.a(mw300_clock.o)
 .debug_line    0x000011af      0x108 /home/zhouyongjian/wangshi/wmsdk_bundle-3.1.16/bin/wmsdk/libs/libdrv.a(mw300_driver.o)
 .debug_line    0x000012b7      0x468 /home/zhouyongjian/wangshi/wmsdk_bundle-3.1.16/bin/wmsdk/libs/libdrv.a(mw300_pmu.o)
 .debug_line    0x0000171f      0x1ac /home/zhouyongjian/wangshi/wmsdk_bundle-3.1.16/bin/wmsdk/libs/libdrv.a(mw300_pinmux.o)
 .debug_line    0x000018cb      0x26f /home/zhouyongjian/wangshi/wmsdk_bundle-3.1.16/bin/wmsdk/libs/libdrv.a(mw300_rtc.o)
 .debug_line    0x00001b3a      0x3cf /home/zhouyongjian/wangshi/wmsdk_bundle-3.1.16/bin/wmsdk/libs/libdrv.a(mdev_gpt.o)
 .debug_line    0x00001f09      0x3f6 /home/zhouyongjian/wangshi/wmsdk_bundle-3.1.16/bin/wmsdk/libs/libdrv.a(mw300_gpt.o)
 .debug_line    0x000022ff      0x419 /home/zhouyongjian/wangshi/wmsdk_bundle-3.1.16/bin/wmsdk/libs/libfreertos.a(queue.o)
 .debug_line    0x00002718      0x910 /home/zhouyongjian/wangshi/wmsdk_bundle-3.1.16/bin/wmsdk/libs/libfreertos.a(tasks.o)
 .debug_line    0x00003028      0x2b1 /home/zhouyongjian/wangshi/wmsdk_bundle-3.1.16/bin/wmsdk/libs/libfreertos.a(timers.o)
 .debug_line    0x000032d9      0x155 /home/zhouyongjian/wangshi/wmsdk_bundle-3.1.16/bin/wmsdk/libs/libfreertos.a(port.o)
 .debug_line    0x0000342e      0x306 /home/zhouyongjian/wangshi/wmsdk_bundle-3.1.16/bin/wmsdk/libs/libfreertos.a(heap_4.o)
 .debug_line    0x00003734      0x10d /home/zhouyongjian/wangshi/wmsdk_bundle-3.1.16/bin/wmsdk/libs/libfreertos.a(list.o)
 .debug_line    0x00003841      0x2b5 /home/zhouyongjian/wangshi/wmsdk_bundle-3.1.16/bin/wmsdk/libs/libmdev.a(mdev.o)
 .debug_line    0x00003af6      0x72c /home/zhouyongjian/wangshi/wmsdk_bundle-3.1.16/bin/wmsdk/libs/libos.a(os.o)
 .debug_line    0x00004222      0x241 /home/zhouyongjian/wangshi/wmsdk_bundle-3.1.16/bin/wmsdk/libs/libutil.a(boot_flags.o)
 .debug_line    0x00004463      0x167 /home/zhouyongjian/wangshi/wmsdk_bundle-3.1.16/bin/wmsdk/libs/libutil.a(critical_error.o)
 .debug_line    0x000045ca      0x45b /home/zhouyongjian/wangshi/wmsdk_bundle-3.1.16/bin/wmsdk/libs/libwmstdio.a(wmstdio.o)
 .debug_line    0x00004a25      0x225 /home/zhouyongjian/wangshi/wmsdk_bundle-3.1.16/bin/wmsdk/libs/libwmstdio.a(console.o)
 .debug_line    0x00004c4a      0x429 obj/board.o
 .debug_line    0x00005073      0x34a obj/electric_measure.o
 .debug_line    0x000053bd      0x3c8 obj/C_HLW8012_debug.o
 .debug_line    0x00005785       0x8f /home/zhouyongjian/wangshi/wmsdk_bundle-3.1.16/bin/wmsdk/libs/libc.a(memcmp.o)
 .debug_line    0x00005814      0x296 /home/zhouyongjian/wangshi/wmsdk_bundle-3.1.16/bin/wmsdk/libs/libc.a(vsnprintf.o)
 .debug_line    0x00005aaa       0x41 /home/zhouyongjian/wangshi/wmsdk_bundle-3.1.16/bin/wmsdk/libs/libc.a(strcmp.o)
 .debug_line    0x00005aeb       0x9e /home/zhouyongjian/wangshi/wmsdk_bundle-3.1.16/bin/wmsdk/libs/libc.a(strncpy.o)
 .debug_line    0x00005b89       0x8b /home/zhouyongjian/wangshi/wmsdk_bundle-3.1.16/bin/wmsdk/libs/libc.a(strlen.o)
 .debug_line    0x00005c14      0x24b /home/zhouyongjian/wangshi/wmsdk_bundle-3.1.16/bin/wmsdk/libs/libdrv.a(mw300_gpio.o)
 .debug_line    0x00005e5f      0x52b /home/zhouyongjian/wangshi/wmsdk_bundle-3.1.16/bin/wmsdk/libs/libdrv.a(mw300_uart.o)
 .debug_line    0x0000638a      0x4b1 /home/zhouyongjian/wangshi/wmsdk_bundle-3.1.16/bin/wmsdk/libs/libdrv.a(mdev_gpio.o)
 .debug_line    0x0000683b      0x912 /home/zhouyongjian/wangshi/wmsdk_bundle-3.1.16/bin/wmsdk/libs/libdrv.a(mdev_uart.o)
 .debug_line    0x0000714d      0x560 /home/zhouyongjian/wangshi/wmsdk_bundle-3.1.16/bin/wmsdk/libs/libdrv.a(mdev_dma.o)
 .debug_line    0x000076ad      0x2a0 /home/zhouyongjian/wangshi/wmsdk_bundle-3.1.16/bin/wmsdk/libs/libutil.a(flash.o)
 .debug_line    0x0000794d      0x626 /home/zhouyongjian/wangshi/wmsdk_bundle-3.1.16/bin/wmsdk/libs/libdrv.a(mdev_iflash.o)
 .debug_line    0x00007f73      0x556 /home/zhouyongjian/wangshi/wmsdk_bundle-3.1.16/bin/wmsdk/libs/libdrv.a(mw300_flash.o)
 .debug_line    0x000084c9      0x3e6 /home/zhouyongjian/wangshi/wmsdk_bundle-3.1.16/bin/wmsdk/libs/libdrv.a(mw300_qspi.o)

.debug_str      0x00000000     0xcd35
 .debug_str     0x00000000     0x1e7b /home/zhouyongjian/wangshi/wmsdk_bundle-3.1.16/bin/wmsdk/libs/libdrv.a(mdev_startup.o)
                               0x1fe3 (size before relaxing)
 .debug_str     0x00001e7b     0x125c /home/zhouyongjian/wangshi/wmsdk_bundle-3.1.16/bin/wmsdk/libs/libdrv.a(mdev_pm.o)
                               0x2c9d (size before relaxing)
 .debug_str     0x000030d7      0x52b /home/zhouyongjian/wangshi/wmsdk_bundle-3.1.16/bin/wmsdk/libs/libdrv.a(mw300_clock.o)
                               0x23b6 (size before relaxing)
 .debug_str     0x00003602      0x2d6 /home/zhouyongjian/wangshi/wmsdk_bundle-3.1.16/bin/wmsdk/libs/libdrv.a(mw300_driver.o)
                                0x755 (size before relaxing)
 .debug_str     0x000038d8      0xaaa /home/zhouyongjian/wangshi/wmsdk_bundle-3.1.16/bin/wmsdk/libs/libdrv.a(mw300_pmu.o)
                               0x2b56 (size before relaxing)
 .debug_str     0x00004382      0x1ca /home/zhouyongjian/wangshi/wmsdk_bundle-3.1.16/bin/wmsdk/libs/libdrv.a(mw300_pinmux.o)
                                0x504 (size before relaxing)
 .debug_str     0x0000454c      0x39c /home/zhouyongjian/wangshi/wmsdk_bundle-3.1.16/bin/wmsdk/libs/libdrv.a(mw300_rtc.o)
                                0x8ae (size before relaxing)
 .debug_str     0x000048e8      0x6ee /home/zhouyongjian/wangshi/wmsdk_bundle-3.1.16/bin/wmsdk/libs/libdrv.a(mdev_gpt.o)
                               0x14f3 (size before relaxing)
 .debug_str     0x00004fd6      0x854 /home/zhouyongjian/wangshi/wmsdk_bundle-3.1.16/bin/wmsdk/libs/libdrv.a(mw300_gpt.o)
                               0x13ec (size before relaxing)
 .debug_str     0x0000582a      0x620 /home/zhouyongjian/wangshi/wmsdk_bundle-3.1.16/bin/wmsdk/libs/libfreertos.a(queue.o)
                                0x767 (size before relaxing)
 .debug_str     0x00005e4a      0x8bd /home/zhouyongjian/wangshi/wmsdk_bundle-3.1.16/bin/wmsdk/libs/libfreertos.a(tasks.o)
                                0xd04 (size before relaxing)
 .debug_str     0x00006707      0x31f /home/zhouyongjian/wangshi/wmsdk_bundle-3.1.16/bin/wmsdk/libs/libfreertos.a(timers.o)
                                0x735 (size before relaxing)
 .debug_str     0x00006a26       0xb4 /home/zhouyongjian/wangshi/wmsdk_bundle-3.1.16/bin/wmsdk/libs/libfreertos.a(port.o)
                                0x2ab (size before relaxing)
 .debug_str     0x00006ada      0x309 /home/zhouyongjian/wangshi/wmsdk_bundle-3.1.16/bin/wmsdk/libs/libfreertos.a(heap_4.o)
                                0x4cf (size before relaxing)
 .debug_str     0x00006de3       0x44 /home/zhouyongjian/wangshi/wmsdk_bundle-3.1.16/bin/wmsdk/libs/libfreertos.a(list.o)
                                0x2b0 (size before relaxing)
 .debug_str     0x00006e27       0xcb /home/zhouyongjian/wangshi/wmsdk_bundle-3.1.16/bin/wmsdk/libs/libmdev.a(mdev.o)
                                0x2e0 (size before relaxing)
 .debug_str     0x00006ef2      0x612 /home/zhouyongjian/wangshi/wmsdk_bundle-3.1.16/bin/wmsdk/libs/libos.a(os.o)
                                0xde1 (size before relaxing)
 .debug_str     0x00007504      0x394 /home/zhouyongjian/wangshi/wmsdk_bundle-3.1.16/bin/wmsdk/libs/libutil.a(boot_flags.o)
                                0x64a (size before relaxing)
 .debug_str     0x00007898       0x24 /home/zhouyongjian/wangshi/wmsdk_bundle-3.1.16/bin/wmsdk/libs/libutil.a(critical_error.o)
                                0x259 (size before relaxing)
 .debug_str     0x000078bc      0x210 /home/zhouyongjian/wangshi/wmsdk_bundle-3.1.16/bin/wmsdk/libs/libwmstdio.a(wmstdio.o)
                                0x6de (size before relaxing)
 .debug_str     0x00007acc       0xbe /home/zhouyongjian/wangshi/wmsdk_bundle-3.1.16/bin/wmsdk/libs/libwmstdio.a(console.o)
                                0x37a (size before relaxing)
 .debug_str     0x00007b8a      0x353 obj/board.o
                                0x924 (size before relaxing)
 .debug_str     0x00007edd      0x3aa obj/electric_measure.o
                                0x85c (size before relaxing)
 .debug_str     0x00008287      0x277 obj/C_HLW8012_debug.o
                                0x6ff (size before relaxing)
 .debug_str     0x000084fe       0x4b /home/zhouyongjian/wangshi/wmsdk_bundle-3.1.16/bin/wmsdk/libs/libc.a(memcmp.o)
                                0x130 (size before relaxing)
 .debug_str     0x00008549      0x17e /home/zhouyongjian/wangshi/wmsdk_bundle-3.1.16/bin/wmsdk/libs/libc.a(vsnprintf.o)
                                0x370 (size before relaxing)
 .debug_str     0x000086c7        0x9 /home/zhouyongjian/wangshi/wmsdk_bundle-3.1.16/bin/wmsdk/libs/libc.a(strcmp.o)
                                0x12e (size before relaxing)
 .debug_str     0x000086d0        0xa /home/zhouyongjian/wangshi/wmsdk_bundle-3.1.16/bin/wmsdk/libs/libc.a(strncpy.o)
                                0x130 (size before relaxing)
 .debug_str     0x000086da        0x9 /home/zhouyongjian/wangshi/wmsdk_bundle-3.1.16/bin/wmsdk/libs/libc.a(strlen.o)
                                0x127 (size before relaxing)
 .debug_str     0x000086e3      0x147 /home/zhouyongjian/wangshi/wmsdk_bundle-3.1.16/bin/wmsdk/libs/libdrv.a(mw300_gpio.o)
                                0x86b (size before relaxing)
 .debug_str     0x0000882a      0xa2c /home/zhouyongjian/wangshi/wmsdk_bundle-3.1.16/bin/wmsdk/libs/libdrv.a(mw300_uart.o)
                               0x10d1 (size before relaxing)
 .debug_str     0x00009256       0xa8 /home/zhouyongjian/wangshi/wmsdk_bundle-3.1.16/bin/wmsdk/libs/libdrv.a(mdev_gpio.o)
                                0xf5c (size before relaxing)
 .debug_str     0x000092fe      0xb6d /home/zhouyongjian/wangshi/wmsdk_bundle-3.1.16/bin/wmsdk/libs/libdrv.a(mdev_uart.o)
                               0x2085 (size before relaxing)
 .debug_str     0x00009e6b     0x1885 /home/zhouyongjian/wangshi/wmsdk_bundle-3.1.16/bin/wmsdk/libs/libdrv.a(mdev_dma.o)
                               0x29be (size before relaxing)
 .debug_str     0x0000b6f0       0xa0 /home/zhouyongjian/wangshi/wmsdk_bundle-3.1.16/bin/wmsdk/libs/libutil.a(flash.o)
                                0x505 (size before relaxing)
 .debug_str     0x0000b790      0x655 /home/zhouyongjian/wangshi/wmsdk_bundle-3.1.16/bin/wmsdk/libs/libdrv.a(mdev_iflash.o)
                               0x14ec (size before relaxing)
 .debug_str     0x0000bde5      0x8f5 /home/zhouyongjian/wangshi/wmsdk_bundle-3.1.16/bin/wmsdk/libs/libdrv.a(mw300_flash.o)
                               0x1366 (size before relaxing)
 .debug_str     0x0000c6da      0x65b /home/zhouyongjian/wangshi/wmsdk_bundle-3.1.16/bin/wmsdk/libs/libdrv.a(mw300_qspi.o)
                               0x1309 (size before relaxing)

.comment        0x00000000       0x70
 .comment       0x00000000       0x70 /home/zhouyongjian/wangshi/wmsdk_bundle-3.1.16/bin/wmsdk/libs/libdrv.a(mdev_startup.o)
                                 0x71 (size before relaxing)
 .comment       0x00000000       0x71 /home/zhouyongjian/wangshi/wmsdk_bundle-3.1.16/bin/wmsdk/libs/libdrv.a(mdev_pm.o)
 .comment       0x00000000       0x71 /home/zhouyongjian/wangshi/wmsdk_bundle-3.1.16/bin/wmsdk/libs/libdrv.a(mw300_clock.o)
 .comment       0x00000000       0x71 /home/zhouyongjian/wangshi/wmsdk_bundle-3.1.16/bin/wmsdk/libs/libdrv.a(mw300_driver.o)
 .comment       0x00000000       0x71 /home/zhouyongjian/wangshi/wmsdk_bundle-3.1.16/bin/wmsdk/libs/libdrv.a(mw300_pmu.o)
 .comment       0x00000000       0x71 /home/zhouyongjian/wangshi/wmsdk_bundle-3.1.16/bin/wmsdk/libs/libdrv.a(mw300_pinmux.o)
 .comment       0x00000000       0x71 /home/zhouyongjian/wangshi/wmsdk_bundle-3.1.16/bin/wmsdk/libs/libdrv.a(mw300_rtc.o)
 .comment       0x00000000       0x71 /home/zhouyongjian/wangshi/wmsdk_bundle-3.1.16/bin/wmsdk/libs/libdrv.a(mdev_gpt.o)
 .comment       0x00000000       0x71 /home/zhouyongjian/wangshi/wmsdk_bundle-3.1.16/bin/wmsdk/libs/libdrv.a(mw300_gpt.o)
 .comment       0x00000000       0x71 /home/zhouyongjian/wangshi/wmsdk_bundle-3.1.16/bin/wmsdk/libs/libfreertos.a(queue.o)
 .comment       0x00000000       0x71 /home/zhouyongjian/wangshi/wmsdk_bundle-3.1.16/bin/wmsdk/libs/libfreertos.a(tasks.o)
 .comment       0x00000000       0x71 /home/zhouyongjian/wangshi/wmsdk_bundle-3.1.16/bin/wmsdk/libs/libfreertos.a(timers.o)
 .comment       0x00000000       0x71 /home/zhouyongjian/wangshi/wmsdk_bundle-3.1.16/bin/wmsdk/libs/libfreertos.a(port.o)
 .comment       0x00000000       0x71 /home/zhouyongjian/wangshi/wmsdk_bundle-3.1.16/bin/wmsdk/libs/libfreertos.a(heap_4.o)
 .comment       0x00000000       0x71 /home/zhouyongjian/wangshi/wmsdk_bundle-3.1.16/bin/wmsdk/libs/libfreertos.a(list.o)
 .comment       0x00000000       0x71 /home/zhouyongjian/wangshi/wmsdk_bundle-3.1.16/bin/wmsdk/libs/libmdev.a(mdev.o)
 .comment       0x00000000       0x71 /home/zhouyongjian/wangshi/wmsdk_bundle-3.1.16/bin/wmsdk/libs/libos.a(os.o)
 .comment       0x00000000       0x71 /home/zhouyongjian/wangshi/wmsdk_bundle-3.1.16/bin/wmsdk/libs/libutil.a(boot_flags.o)
 .comment       0x00000000       0x71 /home/zhouyongjian/wangshi/wmsdk_bundle-3.1.16/bin/wmsdk/libs/libutil.a(critical_error.o)
 .comment       0x00000000       0x71 /home/zhouyongjian/wangshi/wmsdk_bundle-3.1.16/bin/wmsdk/libs/libwmstdio.a(wmstdio.o)
 .comment       0x00000000       0x71 /home/zhouyongjian/wangshi/wmsdk_bundle-3.1.16/bin/wmsdk/libs/libwmstdio.a(console.o)
 .comment       0x00000000       0x71 obj/board.o
 .comment       0x00000000       0x71 obj/electric_measure.o
 .comment       0x00000000       0x71 obj/C_HLW8012_debug.o
 .comment       0x00000000       0x71 /home/zhouyongjian/wangshi/wmsdk_bundle-3.1.16/bin/wmsdk/libs/libc.a(memcmp.o)
 .comment       0x00000000       0x71 /home/zhouyongjian/wangshi/wmsdk_bundle-3.1.16/bin/wmsdk/libs/libc.a(vsnprintf.o)
 .comment       0x00000000       0x71 /home/zhouyongjian/wangshi/wmsdk_bundle-3.1.16/bin/wmsdk/libs/libc.a(strcmp.o)
 .comment       0x00000000       0x71 /home/zhouyongjian/wangshi/wmsdk_bundle-3.1.16/bin/wmsdk/libs/libc.a(strncpy.o)
 .comment       0x00000000       0x71 /home/zhouyongjian/wangshi/wmsdk_bundle-3.1.16/bin/wmsdk/libs/libc.a(strlen.o)
 .comment       0x00000000       0x71 /home/zhouyongjian/wangshi/wmsdk_bundle-3.1.16/bin/wmsdk/libs/libdrv.a(mw300_gpio.o)
 .comment       0x00000000       0x71 /home/zhouyongjian/wangshi/wmsdk_bundle-3.1.16/bin/wmsdk/libs/libdrv.a(mw300_uart.o)
 .comment       0x00000000       0x71 /home/zhouyongjian/wangshi/wmsdk_bundle-3.1.16/bin/wmsdk/libs/libdrv.a(mdev_gpio.o)
 .comment       0x00000000       0x71 /home/zhouyongjian/wangshi/wmsdk_bundle-3.1.16/bin/wmsdk/libs/libdrv.a(mdev_uart.o)
 .comment       0x00000000       0x71 /home/zhouyongjian/wangshi/wmsdk_bundle-3.1.16/bin/wmsdk/libs/libdrv.a(mdev_dma.o)
 .comment       0x00000000       0x71 /home/zhouyongjian/wangshi/wmsdk_bundle-3.1.16/bin/wmsdk/libs/libutil.a(flash.o)
 .comment       0x00000000       0x71 /home/zhouyongjian/wangshi/wmsdk_bundle-3.1.16/bin/wmsdk/libs/libdrv.a(mdev_iflash.o)
 .comment       0x00000000       0x71 /home/zhouyongjian/wangshi/wmsdk_bundle-3.1.16/bin/wmsdk/libs/libdrv.a(mw300_flash.o)
 .comment       0x00000000       0x71 /home/zhouyongjian/wangshi/wmsdk_bundle-3.1.16/bin/wmsdk/libs/libdrv.a(mw300_qspi.o)

.ARM.attributes
                0x00000000       0x31
 .ARM.attributes
                0x00000000       0x33 /home/zhouyongjian/wangshi/wmsdk_bundle-3.1.16/bin/wmsdk/libs/libdrv.a(mdev_startup.o)
 .ARM.attributes
                0x00000033       0x33 /home/zhouyongjian/wangshi/wmsdk_bundle-3.1.16/bin/wmsdk/libs/libdrv.a(mdev_pm.o)
 .ARM.attributes
                0x00000066       0x33 /home/zhouyongjian/wangshi/wmsdk_bundle-3.1.16/bin/wmsdk/libs/libdrv.a(mw300_clock.o)
 .ARM.attributes
                0x00000099       0x33 /home/zhouyongjian/wangshi/wmsdk_bundle-3.1.16/bin/wmsdk/libs/libdrv.a(mw300_driver.o)
 .ARM.attributes
                0x000000cc       0x33 /home/zhouyongjian/wangshi/wmsdk_bundle-3.1.16/bin/wmsdk/libs/libdrv.a(mw300_pmu.o)
 .ARM.attributes
                0x000000ff       0x33 /home/zhouyongjian/wangshi/wmsdk_bundle-3.1.16/bin/wmsdk/libs/libdrv.a(mw300_pinmux.o)
 .ARM.attributes
                0x00000132       0x33 /home/zhouyongjian/wangshi/wmsdk_bundle-3.1.16/bin/wmsdk/libs/libdrv.a(mw300_rtc.o)
 .ARM.attributes
                0x00000165       0x33 /home/zhouyongjian/wangshi/wmsdk_bundle-3.1.16/bin/wmsdk/libs/libdrv.a(mdev_gpt.o)
 .ARM.attributes
                0x00000198       0x33 /home/zhouyongjian/wangshi/wmsdk_bundle-3.1.16/bin/wmsdk/libs/libdrv.a(mw300_gpt.o)
 .ARM.attributes
                0x000001cb       0x33 /home/zhouyongjian/wangshi/wmsdk_bundle-3.1.16/bin/wmsdk/libs/libfreertos.a(queue.o)
 .ARM.attributes
                0x000001fe       0x33 /home/zhouyongjian/wangshi/wmsdk_bundle-3.1.16/bin/wmsdk/libs/libfreertos.a(tasks.o)
 .ARM.attributes
                0x00000231       0x33 /home/zhouyongjian/wangshi/wmsdk_bundle-3.1.16/bin/wmsdk/libs/libfreertos.a(timers.o)
 .ARM.attributes
                0x00000264       0x33 /home/zhouyongjian/wangshi/wmsdk_bundle-3.1.16/bin/wmsdk/libs/libfreertos.a(port.o)
 .ARM.attributes
                0x00000297       0x33 /home/zhouyongjian/wangshi/wmsdk_bundle-3.1.16/bin/wmsdk/libs/libfreertos.a(heap_4.o)
 .ARM.attributes
                0x000002ca       0x33 /home/zhouyongjian/wangshi/wmsdk_bundle-3.1.16/bin/wmsdk/libs/libfreertos.a(list.o)
 .ARM.attributes
                0x000002fd       0x33 /home/zhouyongjian/wangshi/wmsdk_bundle-3.1.16/bin/wmsdk/libs/libmdev.a(mdev.o)
 .ARM.attributes
                0x00000330       0x33 /home/zhouyongjian/wangshi/wmsdk_bundle-3.1.16/bin/wmsdk/libs/libos.a(os.o)
 .ARM.attributes
                0x00000363       0x33 /home/zhouyongjian/wangshi/wmsdk_bundle-3.1.16/bin/wmsdk/libs/libutil.a(boot_flags.o)
 .ARM.attributes
                0x00000396       0x33 /home/zhouyongjian/wangshi/wmsdk_bundle-3.1.16/bin/wmsdk/libs/libutil.a(critical_error.o)
 .ARM.attributes
                0x000003c9       0x33 /home/zhouyongjian/wangshi/wmsdk_bundle-3.1.16/bin/wmsdk/libs/libwmstdio.a(wmstdio.o)
 .ARM.attributes
                0x000003fc       0x33 /home/zhouyongjian/wangshi/wmsdk_bundle-3.1.16/bin/wmsdk/libs/libwmstdio.a(console.o)
 .ARM.attributes
                0x0000042f       0x33 obj/board.o
 .ARM.attributes
                0x00000462       0x33 obj/electric_measure.o
 .ARM.attributes
                0x00000495       0x33 obj/C_HLW8012_debug.o
 .ARM.attributes
                0x000004c8       0x33 /home/zhouyongjian/wangshi/wmsdk_bundle-3.1.16/bin/wmsdk/libs/libc.a(memcmp.o)
 .ARM.attributes
                0x000004fb       0x33 /home/zhouyongjian/wangshi/wmsdk_bundle-3.1.16/bin/wmsdk/libs/libc.a(vsnprintf.o)
 .ARM.attributes
                0x0000052e       0x33 /home/zhouyongjian/wangshi/wmsdk_bundle-3.1.16/bin/wmsdk/libs/libc.a(strcmp.o)
 .ARM.attributes
                0x00000561       0x33 /home/zhouyongjian/wangshi/wmsdk_bundle-3.1.16/bin/wmsdk/libs/libc.a(strncpy.o)
 .ARM.attributes
                0x00000594       0x33 /home/zhouyongjian/wangshi/wmsdk_bundle-3.1.16/bin/wmsdk/libs/libc.a(strlen.o)
 .ARM.attributes
                0x000005c7       0x33 /home/zhouyongjian/wangshi/wmsdk_bundle-3.1.16/bin/wmsdk/libs/libdrv.a(mw300_gpio.o)
 .ARM.attributes
                0x000005fa       0x33 /home/zhouyongjian/wangshi/wmsdk_bundle-3.1.16/bin/wmsdk/libs/libdrv.a(mw300_uart.o)
 .ARM.attributes
                0x0000062d       0x33 /home/zhouyongjian/wangshi/wmsdk_bundle-3.1.16/bin/wmsdk/libs/libdrv.a(mdev_gpio.o)
 .ARM.attributes
                0x00000660       0x33 /home/zhouyongjian/wangshi/wmsdk_bundle-3.1.16/bin/wmsdk/libs/libdrv.a(mdev_uart.o)
 .ARM.attributes
                0x00000693       0x33 /home/zhouyongjian/wangshi/wmsdk_bundle-3.1.16/bin/wmsdk/libs/libdrv.a(mdev_dma.o)
 .ARM.attributes
                0x000006c6       0x33 /home/zhouyongjian/wangshi/wmsdk_bundle-3.1.16/bin/wmsdk/libs/libutil.a(flash.o)
 .ARM.attributes
                0x000006f9       0x33 /home/zhouyongjian/wangshi/wmsdk_bundle-3.1.16/bin/wmsdk/libs/libdrv.a(mdev_iflash.o)
 .ARM.attributes
                0x0000072c       0x33 /home/zhouyongjian/wangshi/wmsdk_bundle-3.1.16/bin/wmsdk/libs/libdrv.a(mw300_flash.o)
 .ARM.attributes
                0x0000075f       0x33 /home/zhouyongjian/wangshi/wmsdk_bundle-3.1.16/bin/wmsdk/libs/libdrv.a(mw300_qspi.o)
 .ARM.attributes
                0x00000792       0x1e /home/zhouyongjian/Intelligent_AC_Infrared/gcc-arm-none-eabi-4_8-2014q2/bin/../lib/gcc/arm-none-eabi/4.8.4/armv7e-m/libgcc.a(_arm_addsubdf3.o)
 .ARM.attributes
                0x000007b0       0x1e /home/zhouyongjian/Intelligent_AC_Infrared/gcc-arm-none-eabi-4_8-2014q2/bin/../lib/gcc/arm-none-eabi/4.8.4/armv7e-m/libgcc.a(_arm_muldivdf3.o)
 .ARM.attributes
                0x000007ce       0x1e /home/zhouyongjian/Intelligent_AC_Infrared/gcc-arm-none-eabi-4_8-2014q2/bin/../lib/gcc/arm-none-eabi/4.8.4/armv7e-m/libgcc.a(_arm_fixdfsi.o)
 .ARM.attributes
                0x000007ec       0x1e /home/zhouyongjian/Intelligent_AC_Infrared/gcc-arm-none-eabi-4_8-2014q2/bin/../lib/gcc/arm-none-eabi/4.8.4/armv7e-m/libgcc.a(_aeabi_uldivmod.o)
 .ARM.attributes
                0x0000080a       0x2e /home/zhouyongjian/Intelligent_AC_Infrared/gcc-arm-none-eabi-4_8-2014q2/bin/../lib/gcc/arm-none-eabi/4.8.4/armv7e-m/libgcc.a(bpabi.o)
 .ARM.attributes
                0x00000838       0x1e /home/zhouyongjian/Intelligent_AC_Infrared/gcc-arm-none-eabi-4_8-2014q2/bin/../lib/gcc/arm-none-eabi/4.8.4/armv7e-m/libgcc.a(_dvmd_tls.o)
 .ARM.attributes
                0x00000856       0x2e /home/zhouyongjian/Intelligent_AC_Infrared/gcc-arm-none-eabi-4_8-2014q2/bin/../lib/gcc/arm-none-eabi/4.8.4/armv7e-m/libgcc.a(_divdi3.o)
 .ARM.attributes
                0x00000884       0x2e /home/zhouyongjian/Intelligent_AC_Infrared/gcc-arm-none-eabi-4_8-2014q2/bin/../lib/gcc/arm-none-eabi/4.8.4/armv7e-m/libgcc.a(_udivdi3.o)
 .ARM.attributes
                0x000008b2       0x1c /home/zhouyongjian/Intelligent_AC_Infrared/gcc-arm-none-eabi-4_8-2014q2/bin/../lib/gcc/arm-none-eabi/4.8.4/../../../../arm-none-eabi/lib/armv7e-m/libg.a(lib_a-memcpy.o)
 .ARM.attributes
                0x000008ce       0x2e /home/zhouyongjian/Intelligent_AC_Infrared/gcc-arm-none-eabi-4_8-2014q2/bin/../lib/gcc/arm-none-eabi/4.8.4/../../../../arm-none-eabi/lib/armv7e-m/libg.a(lib_a-memset.o)

.debug_frame    0x00000000     0x30cc
 .debug_frame   0x00000000       0xd8 /home/zhouyongjian/wangshi/wmsdk_bundle-3.1.16/bin/wmsdk/libs/libdrv.a(mdev_startup.o)
 .debug_frame   0x000000d8      0x218 /home/zhouyongjian/wangshi/wmsdk_bundle-3.1.16/bin/wmsdk/libs/libdrv.a(mdev_pm.o)
 .debug_frame   0x000002f0      0x27c /home/zhouyongjian/wangshi/wmsdk_bundle-3.1.16/bin/wmsdk/libs/libdrv.a(mw300_clock.o)
 .debug_frame   0x0000056c       0x20 /home/zhouyongjian/wangshi/wmsdk_bundle-3.1.16/bin/wmsdk/libs/libdrv.a(mw300_driver.o)
 .debug_frame   0x0000058c      0x244 /home/zhouyongjian/wangshi/wmsdk_bundle-3.1.16/bin/wmsdk/libs/libdrv.a(mw300_pmu.o)
 .debug_frame   0x000007d0       0x30 /home/zhouyongjian/wangshi/wmsdk_bundle-3.1.16/bin/wmsdk/libs/libdrv.a(mw300_pinmux.o)
 .debug_frame   0x00000800       0xec /home/zhouyongjian/wangshi/wmsdk_bundle-3.1.16/bin/wmsdk/libs/libdrv.a(mw300_rtc.o)
 .debug_frame   0x000008ec       0xe0 /home/zhouyongjian/wangshi/wmsdk_bundle-3.1.16/bin/wmsdk/libs/libdrv.a(mdev_gpt.o)
 .debug_frame   0x000009cc      0x200 /home/zhouyongjian/wangshi/wmsdk_bundle-3.1.16/bin/wmsdk/libs/libdrv.a(mw300_gpt.o)
 .debug_frame   0x00000bcc      0x1f8 /home/zhouyongjian/wangshi/wmsdk_bundle-3.1.16/bin/wmsdk/libs/libfreertos.a(queue.o)
 .debug_frame   0x00000dc4      0x44c /home/zhouyongjian/wangshi/wmsdk_bundle-3.1.16/bin/wmsdk/libs/libfreertos.a(tasks.o)
 .debug_frame   0x00001210      0x110 /home/zhouyongjian/wangshi/wmsdk_bundle-3.1.16/bin/wmsdk/libs/libfreertos.a(timers.o)
 .debug_frame   0x00001320       0xcc /home/zhouyongjian/wangshi/wmsdk_bundle-3.1.16/bin/wmsdk/libs/libfreertos.a(port.o)
 .debug_frame   0x000013ec      0x104 /home/zhouyongjian/wangshi/wmsdk_bundle-3.1.16/bin/wmsdk/libs/libfreertos.a(heap_4.o)
 .debug_frame   0x000014f0       0x70 /home/zhouyongjian/wangshi/wmsdk_bundle-3.1.16/bin/wmsdk/libs/libfreertos.a(list.o)
 .debug_frame   0x00001560       0x68 /home/zhouyongjian/wangshi/wmsdk_bundle-3.1.16/bin/wmsdk/libs/libmdev.a(mdev.o)
 .debug_frame   0x000015c8      0x338 /home/zhouyongjian/wangshi/wmsdk_bundle-3.1.16/bin/wmsdk/libs/libos.a(os.o)
 .debug_frame   0x00001900       0x44 /home/zhouyongjian/wangshi/wmsdk_bundle-3.1.16/bin/wmsdk/libs/libutil.a(boot_flags.o)
 .debug_frame   0x00001944       0x38 /home/zhouyongjian/wangshi/wmsdk_bundle-3.1.16/bin/wmsdk/libs/libutil.a(critical_error.o)
 .debug_frame   0x0000197c      0x134 /home/zhouyongjian/wangshi/wmsdk_bundle-3.1.16/bin/wmsdk/libs/libwmstdio.a(wmstdio.o)
 .debug_frame   0x00001ab0       0x94 /home/zhouyongjian/wangshi/wmsdk_bundle-3.1.16/bin/wmsdk/libs/libwmstdio.a(console.o)
 .debug_frame   0x00001b44      0x248 obj/board.o
 .debug_frame   0x00001d8c       0xac obj/electric_measure.o
 .debug_frame   0x00001e38       0xe8 obj/C_HLW8012_debug.o
 .debug_frame   0x00001f20       0x2c /home/zhouyongjian/wangshi/wmsdk_bundle-3.1.16/bin/wmsdk/libs/libc.a(memcmp.o)
 .debug_frame   0x00001f4c       0x3c /home/zhouyongjian/wangshi/wmsdk_bundle-3.1.16/bin/wmsdk/libs/libc.a(vsnprintf.o)
 .debug_frame   0x00001f88       0x28 /home/zhouyongjian/wangshi/wmsdk_bundle-3.1.16/bin/wmsdk/libs/libc.a(strcmp.o)
 .debug_frame   0x00001fb0       0x28 /home/zhouyongjian/wangshi/wmsdk_bundle-3.1.16/bin/wmsdk/libs/libc.a(strncpy.o)
 .debug_frame   0x00001fd8       0x20 /home/zhouyongjian/wangshi/wmsdk_bundle-3.1.16/bin/wmsdk/libs/libc.a(strlen.o)
 .debug_frame   0x00001ff8       0xcc /home/zhouyongjian/wangshi/wmsdk_bundle-3.1.16/bin/wmsdk/libs/libdrv.a(mw300_gpio.o)
 .debug_frame   0x000020c4      0x240 /home/zhouyongjian/wangshi/wmsdk_bundle-3.1.16/bin/wmsdk/libs/libdrv.a(mw300_uart.o)
 .debug_frame   0x00002304      0x134 /home/zhouyongjian/wangshi/wmsdk_bundle-3.1.16/bin/wmsdk/libs/libdrv.a(mdev_gpio.o)
 .debug_frame   0x00002438      0x348 /home/zhouyongjian/wangshi/wmsdk_bundle-3.1.16/bin/wmsdk/libs/libdrv.a(mdev_uart.o)
 .debug_frame   0x00002780      0x168 /home/zhouyongjian/wangshi/wmsdk_bundle-3.1.16/bin/wmsdk/libs/libdrv.a(mdev_dma.o)
 .debug_frame   0x000028e8       0xa0 /home/zhouyongjian/wangshi/wmsdk_bundle-3.1.16/bin/wmsdk/libs/libutil.a(flash.o)
 .debug_frame   0x00002988      0x194 /home/zhouyongjian/wangshi/wmsdk_bundle-3.1.16/bin/wmsdk/libs/libdrv.a(mdev_iflash.o)
 .debug_frame   0x00002b1c      0x2f8 /home/zhouyongjian/wangshi/wmsdk_bundle-3.1.16/bin/wmsdk/libs/libdrv.a(mw300_flash.o)
 .debug_frame   0x00002e14      0x1d4 /home/zhouyongjian/wangshi/wmsdk_bundle-3.1.16/bin/wmsdk/libs/libdrv.a(mw300_qspi.o)
 .debug_frame   0x00002fe8       0x50 /home/zhouyongjian/Intelligent_AC_Infrared/gcc-arm-none-eabi-4_8-2014q2/bin/../lib/gcc/arm-none-eabi/4.8.4/armv7e-m/libgcc.a(bpabi.o)
 .debug_frame   0x00003038       0x34 /home/zhouyongjian/Intelligent_AC_Infrared/gcc-arm-none-eabi-4_8-2014q2/bin/../lib/gcc/arm-none-eabi/4.8.4/armv7e-m/libgcc.a(_divdi3.o)
 .debug_frame   0x0000306c       0x34 /home/zhouyongjian/Intelligent_AC_Infrared/gcc-arm-none-eabi-4_8-2014q2/bin/../lib/gcc/arm-none-eabi/4.8.4/armv7e-m/libgcc.a(_udivdi3.o)
 .debug_frame   0x000030a0       0x2c /home/zhouyongjian/Intelligent_AC_Infrared/gcc-arm-none-eabi-4_8-2014q2/bin/../lib/gcc/arm-none-eabi/4.8.4/../../../../arm-none-eabi/lib/armv7e-m/libg.a(lib_a-memset.o)

Cross Reference Table

Symbol                                            File
ACOMPWKUP_IRQHandler                              /home/zhouyongjian/wangshi/wmsdk_bundle-3.1.16/bin/wmsdk/libs/libdrv.a(mdev_startup.o)
ACOMP_IRQHandler                                  /home/zhouyongjian/wangshi/wmsdk_bundle-3.1.16/bin/wmsdk/libs/libdrv.a(mdev_startup.o)
ADC0_IRQHandler                                   /home/zhouyongjian/wangshi/wmsdk_bundle-3.1.16/bin/wmsdk/libs/libdrv.a(mdev_startup.o)
AES_IRQHandler                                    /home/zhouyongjian/wangshi/wmsdk_bundle-3.1.16/bin/wmsdk/libs/libdrv.a(mdev_startup.o)
BRNDET_IRQHandler                                 /home/zhouyongjian/wangshi/wmsdk_bundle-3.1.16/bin/wmsdk/libs/libdrv.a(mdev_startup.o)
B_I_Last_OVERFLOW                                 obj/C_HLW8012_debug.o
B_I_Last_TestOneCycle_Mode                        obj/C_HLW8012_debug.o
B_I_OVERFLOW                                      obj/C_HLW8012_debug.o
B_I_TestOneCycle_Mode                             obj/C_HLW8012_debug.o
B_P_Last_OVERFLOW                                 obj/C_HLW8012_debug.o
B_P_Last_TestOneCycle_Mode                        obj/C_HLW8012_debug.o
B_P_OVERFLOW                                      obj/C_HLW8012_debug.o
B_P_TestOneCycle_Mode                             obj/C_HLW8012_debug.o
B_VI_Test_Mode                                    obj/C_HLW8012_debug.o
                                                  obj/electric_measure.o
B_V_Last_OVERFLOW                                 obj/C_HLW8012_debug.o
B_V_Last_TestOneCycle_Mode                        obj/C_HLW8012_debug.o
B_V_OVERFLOW                                      obj/C_HLW8012_debug.o
B_V_TestOneCycle_Mode                             obj/C_HLW8012_debug.o
BusFault_IRQHandler                               /home/zhouyongjian/wangshi/wmsdk_bundle-3.1.16/bin/wmsdk/libs/libdrv.a(mdev_startup.o)
CLK_AupllDisable                                  /home/zhouyongjian/wangshi/wmsdk_bundle-3.1.16/bin/wmsdk/libs/libdrv.a(mw300_clock.o)
                                                  /home/zhouyongjian/wangshi/wmsdk_bundle-3.1.16/bin/wmsdk/libs/libdrv.a(mdev_pm.o)
CLK_AupllEnable                                   /home/zhouyongjian/wangshi/wmsdk_bundle-3.1.16/bin/wmsdk/libs/libdrv.a(mw300_clock.o)
CLK_AupllRefClkSrc                                /home/zhouyongjian/wangshi/wmsdk_bundle-3.1.16/bin/wmsdk/libs/libdrv.a(mw300_clock.o)
CLK_GAUClkSrc                                     /home/zhouyongjian/wangshi/wmsdk_bundle-3.1.16/bin/wmsdk/libs/libdrv.a(mw300_clock.o)
CLK_GPTInternalClkSrc                             /home/zhouyongjian/wangshi/wmsdk_bundle-3.1.16/bin/wmsdk/libs/libdrv.a(mw300_clock.o)
                                                  /home/zhouyongjian/wangshi/wmsdk_bundle-3.1.16/bin/wmsdk/libs/libdrv.a(mdev_gpt.o)
                                                  /home/zhouyongjian/wangshi/wmsdk_bundle-3.1.16/bin/wmsdk/libs/libdrv.a(mdev_rtc.o)
CLK_GetClkStatus                                  /home/zhouyongjian/wangshi/wmsdk_bundle-3.1.16/bin/wmsdk/libs/libdrv.a(mw300_clock.o)
                                                  /home/zhouyongjian/wangshi/wmsdk_bundle-3.1.16/bin/wmsdk/libs/libdrv.a(mdev_rtc.o)
                                                  /home/zhouyongjian/wangshi/wmsdk_bundle-3.1.16/bin/wmsdk/libs/libdrv.a(mdev_startup.o)
CLK_GetModuleClkDivider                           /home/zhouyongjian/wangshi/wmsdk_bundle-3.1.16/bin/wmsdk/libs/libdrv.a(mw300_clock.o)
CLK_GetSystemClk                                  /home/zhouyongjian/wangshi/wmsdk_bundle-3.1.16/bin/wmsdk/libs/libdrv.a(mw300_clock.o)
                                                  /home/zhouyongjian/wangshi/wmsdk_bundle-3.1.16/bin/wmsdk/libs/libdrv.a(mdev_iflash.o)
                                                  /home/zhouyongjian/wangshi/wmsdk_bundle-3.1.16/bin/wmsdk/libs/libdrv.a(mw300_uart.o)
                                                  /home/zhouyongjian/wangshi/wmsdk_bundle-3.1.16/bin/wmsdk/libs/libcli.a(cli.o)
                                                  /home/zhouyongjian/wangshi/wmsdk_bundle-3.1.16/bin/wmsdk/libs/libdrv.a(mdev_gpt.o)
CLK_GetUARTClkSrc                                 /home/zhouyongjian/wangshi/wmsdk_bundle-3.1.16/bin/wmsdk/libs/libdrv.a(mw300_clock.o)
                                                  /home/zhouyongjian/wangshi/wmsdk_bundle-3.1.16/bin/wmsdk/libs/libdrv.a(mw300_uart.o)
CLK_GetUARTDivider                                /home/zhouyongjian/wangshi/wmsdk_bundle-3.1.16/bin/wmsdk/libs/libdrv.a(mw300_clock.o)
                                                  /home/zhouyongjian/wangshi/wmsdk_bundle-3.1.16/bin/wmsdk/libs/libdrv.a(mw300_uart.o)
CLK_Init                                          /home/zhouyongjian/wangshi/wmsdk_bundle-3.1.16/bin/wmsdk/libs/libdrv.a(mdev_startup.o)
                                                  /home/zhouyongjian/wangshi/wmsdk_bundle-3.1.16/bin/wmsdk/libs/libdrv.a(mdev_pm.o)
CLK_ModuleClkDisable                              /home/zhouyongjian/wangshi/wmsdk_bundle-3.1.16/bin/wmsdk/libs/libdrv.a(mw300_clock.o)
CLK_ModuleClkDivider                              /home/zhouyongjian/wangshi/wmsdk_bundle-3.1.16/bin/wmsdk/libs/libdrv.a(mw300_clock.o)
                                                  /home/zhouyongjian/wangshi/wmsdk_bundle-3.1.16/bin/wmsdk/libs/libdrv.a(mdev_iflash.o)
                                                  /home/zhouyongjian/wangshi/wmsdk_bundle-3.1.16/bin/wmsdk/libs/libdrv.a(mdev_gpt.o)
                                                  /home/zhouyongjian/wangshi/wmsdk_bundle-3.1.16/bin/wmsdk/libs/libdrv.a(mdev_rtc.o)
                                                  /home/zhouyongjian/wangshi/wmsdk_bundle-3.1.16/bin/wmsdk/libs/libdrv.a(mdev_startup.o)
CLK_ModuleClkEnable                               /home/zhouyongjian/wangshi/wmsdk_bundle-3.1.16/bin/wmsdk/libs/libdrv.a(mw300_clock.o)
                                                  /home/zhouyongjian/wangshi/wmsdk_bundle-3.1.16/bin/wmsdk/libs/libdrv.a(mdev_uart.o)
                                                  /home/zhouyongjian/wangshi/wmsdk_bundle-3.1.16/bin/wmsdk/libs/libdrv.a(mdev_gpio.o)
                                                  /home/zhouyongjian/wangshi/wmsdk_bundle-3.1.16/bin/wmsdk/libs/libdrv.a(mdev_gpt.o)
                                                  /home/zhouyongjian/wangshi/wmsdk_bundle-3.1.16/bin/wmsdk/libs/libdrv.a(mdev_rtc.o)
CLK_PDMClkSrc                                     /home/zhouyongjian/wangshi/wmsdk_bundle-3.1.16/bin/wmsdk/libs/libdrv.a(mw300_clock.o)
CLK_RC32KCalibration                              /home/zhouyongjian/wangshi/wmsdk_bundle-3.1.16/bin/wmsdk/libs/libdrv.a(mw300_clock.o)
                                                  /home/zhouyongjian/wangshi/wmsdk_bundle-3.1.16/bin/wmsdk/libs/libdrv.a(mdev_rtc.o)
CLK_RC32KDisable                                  /home/zhouyongjian/wangshi/wmsdk_bundle-3.1.16/bin/wmsdk/libs/libdrv.a(mw300_clock.o)
CLK_RC32KEnable                                   /home/zhouyongjian/wangshi/wmsdk_bundle-3.1.16/bin/wmsdk/libs/libdrv.a(mw300_clock.o)
                                                  /home/zhouyongjian/wangshi/wmsdk_bundle-3.1.16/bin/wmsdk/libs/libdrv.a(mdev_rtc.o)
CLK_RC32MCalibration                              /home/zhouyongjian/wangshi/wmsdk_bundle-3.1.16/bin/wmsdk/libs/libdrv.a(mw300_clock.o)
                                                  /home/zhouyongjian/wangshi/wmsdk_bundle-3.1.16/bin/wmsdk/libs/libdrv.a(mdev_startup.o)
CLK_RC32MDisable                                  /home/zhouyongjian/wangshi/wmsdk_bundle-3.1.16/bin/wmsdk/libs/libdrv.a(mw300_clock.o)
CLK_RC32MEnable                                   /home/zhouyongjian/wangshi/wmsdk_bundle-3.1.16/bin/wmsdk/libs/libdrv.a(mw300_clock.o)
CLK_RTCClkSrc                                     /home/zhouyongjian/wangshi/wmsdk_bundle-3.1.16/bin/wmsdk/libs/libdrv.a(mw300_clock.o)
                                                  /home/zhouyongjian/wangshi/wmsdk_bundle-3.1.16/bin/wmsdk/libs/libdrv.a(mdev_rtc.o)
CLK_RefClkDisable                                 /home/zhouyongjian/wangshi/wmsdk_bundle-3.1.16/bin/wmsdk/libs/libdrv.a(mw300_clock.o)
                                                  /home/zhouyongjian/wangshi/wmsdk_bundle-3.1.16/bin/wmsdk/libs/libdrv.a(mdev_pm.o)
CLK_RefClkEnable                                  /home/zhouyongjian/wangshi/wmsdk_bundle-3.1.16/bin/wmsdk/libs/libdrv.a(mw300_clock.o)
                                                  /home/zhouyongjian/wangshi/wmsdk_bundle-3.1.16/bin/wmsdk/libs/libdrv.a(mdev_startup.o)
CLK_SSPClkSrc                                     /home/zhouyongjian/wangshi/wmsdk_bundle-3.1.16/bin/wmsdk/libs/libdrv.a(mw300_clock.o)
CLK_SetAupllPostDiv                               /home/zhouyongjian/wangshi/wmsdk_bundle-3.1.16/bin/wmsdk/libs/libdrv.a(mw300_clock.o)
CLK_SetUARTClkSrc                                 /home/zhouyongjian/wangshi/wmsdk_bundle-3.1.16/bin/wmsdk/libs/libdrv.a(mw300_clock.o)
                                                  /home/zhouyongjian/wangshi/wmsdk_bundle-3.1.16/bin/wmsdk/libs/libdrv.a(mdev_uart.o)
CLK_SfllDisable                                   /home/zhouyongjian/wangshi/wmsdk_bundle-3.1.16/bin/wmsdk/libs/libdrv.a(mw300_clock.o)
                                                  /home/zhouyongjian/wangshi/wmsdk_bundle-3.1.16/bin/wmsdk/libs/libdrv.a(mdev_pm.o)
                                                  /home/zhouyongjian/wangshi/wmsdk_bundle-3.1.16/bin/wmsdk/libs/libdrv.a(mdev_startup.o)
CLK_SfllEnable                                    /home/zhouyongjian/wangshi/wmsdk_bundle-3.1.16/bin/wmsdk/libs/libdrv.a(mw300_clock.o)
                                                  /home/zhouyongjian/wangshi/wmsdk_bundle-3.1.16/bin/wmsdk/libs/libdrv.a(mdev_startup.o)
CLK_SystemClkSrc                                  /home/zhouyongjian/wangshi/wmsdk_bundle-3.1.16/bin/wmsdk/libs/libdrv.a(mw300_clock.o)
                                                  /home/zhouyongjian/wangshi/wmsdk_bundle-3.1.16/bin/wmsdk/libs/libdrv.a(mdev_pm.o)
                                                  /home/zhouyongjian/wangshi/wmsdk_bundle-3.1.16/bin/wmsdk/libs/libdrv.a(mdev_startup.o)
CLK_UARTDividerSet                                /home/zhouyongjian/wangshi/wmsdk_bundle-3.1.16/bin/wmsdk/libs/libdrv.a(mw300_clock.o)
                                                  /home/zhouyongjian/wangshi/wmsdk_bundle-3.1.16/bin/wmsdk/libs/libdrv.a(mw300_uart.o)
CLK_Xtal32KDisable                                /home/zhouyongjian/wangshi/wmsdk_bundle-3.1.16/bin/wmsdk/libs/libdrv.a(mw300_clock.o)
                                                  /home/zhouyongjian/wangshi/wmsdk_bundle-3.1.16/bin/wmsdk/libs/libdrv.a(mdev_rtc.o)
CLK_Xtal32KEnable                                 /home/zhouyongjian/wangshi/wmsdk_bundle-3.1.16/bin/wmsdk/libs/libdrv.a(mw300_clock.o)
                                                  /home/zhouyongjian/wangshi/wmsdk_bundle-3.1.16/bin/wmsdk/libs/libdrv.a(mdev_rtc.o)
CRC_IRQHandler                                    /home/zhouyongjian/wangshi/wmsdk_bundle-3.1.16/bin/wmsdk/libs/libdrv.a(mdev_startup.o)
DAC_IRQHandler                                    /home/zhouyongjian/wangshi/wmsdk_bundle-3.1.16/bin/wmsdk/libs/libdrv.a(mdev_startup.o)
DMA_ChannelInit                                   /home/zhouyongjian/wangshi/wmsdk_bundle-3.1.16/bin/wmsdk/libs/libdrv.a(mw300_dma.o)
                                                  /home/zhouyongjian/wangshi/wmsdk_bundle-3.1.16/bin/wmsdk/libs/libdrv.a(mdev_dma.o)
                                                  /home/zhouyongjian/wangshi/wmsdk_bundle-3.1.16/bin/wmsdk/libs/libdrv.a(mdev_uart.o)
DMA_Disable                                       /home/zhouyongjian/wangshi/wmsdk_bundle-3.1.16/bin/wmsdk/libs/libdrv.a(mw300_dma.o)
                                                  /home/zhouyongjian/wangshi/wmsdk_bundle-3.1.16/bin/wmsdk/libs/libdrv.a(mdev_dma.o)
                                                  /home/zhouyongjian/wangshi/wmsdk_bundle-3.1.16/bin/wmsdk/libs/libdrv.a(mdev_uart.o)
DMA_Enable                                        /home/zhouyongjian/wangshi/wmsdk_bundle-3.1.16/bin/wmsdk/libs/libdrv.a(mw300_dma.o)
                                                  /home/zhouyongjian/wangshi/wmsdk_bundle-3.1.16/bin/wmsdk/libs/libdrv.a(mdev_dma.o)
                                                  /home/zhouyongjian/wangshi/wmsdk_bundle-3.1.16/bin/wmsdk/libs/libdrv.a(mdev_uart.o)
DMA_GetChannelEnableStatus                        /home/zhouyongjian/wangshi/wmsdk_bundle-3.1.16/bin/wmsdk/libs/libdrv.a(mw300_dma.o)
DMA_GetChannelIntStatus                           /home/zhouyongjian/wangshi/wmsdk_bundle-3.1.16/bin/wmsdk/libs/libdrv.a(mw300_dma.o)
DMA_IRQHandler                                    /home/zhouyongjian/wangshi/wmsdk_bundle-3.1.16/bin/wmsdk/libs/libdrv.a(mdev_dma.o)
                                                  /home/zhouyongjian/wangshi/wmsdk_bundle-3.1.16/bin/wmsdk/libs/libdrv.a(mdev_startup.o)
DMA_IntClr                                        /home/zhouyongjian/wangshi/wmsdk_bundle-3.1.16/bin/wmsdk/libs/libdrv.a(mw300_dma.o)
                                                  /home/zhouyongjian/wangshi/wmsdk_bundle-3.1.16/bin/wmsdk/libs/libdrv.a(mdev_uart.o)
DMA_IntMask                                       /home/zhouyongjian/wangshi/wmsdk_bundle-3.1.16/bin/wmsdk/libs/libdrv.a(mw300_dma.o)
                                                  /home/zhouyongjian/wangshi/wmsdk_bundle-3.1.16/bin/wmsdk/libs/libdrv.a(mdev_dma.o)
                                                  /home/zhouyongjian/wangshi/wmsdk_bundle-3.1.16/bin/wmsdk/libs/libdrv.a(mdev_uart.o)
DMA_SetAckDelayCycle                              /home/zhouyongjian/wangshi/wmsdk_bundle-3.1.16/bin/wmsdk/libs/libdrv.a(mw300_dma.o)
DMA_SetPeripheralType                             /home/zhouyongjian/wangshi/wmsdk_bundle-3.1.16/bin/wmsdk/libs/libdrv.a(mw300_dma.o)
                                                  /home/zhouyongjian/wangshi/wmsdk_bundle-3.1.16/bin/wmsdk/libs/libdrv.a(mdev_dma.o)
                                                  /home/zhouyongjian/wangshi/wmsdk_bundle-3.1.16/bin/wmsdk/libs/libdrv.a(mdev_uart.o)
DMA_Stop                                          /home/zhouyongjian/wangshi/wmsdk_bundle-3.1.16/bin/wmsdk/libs/libdrv.a(mw300_dma.o)
DebugMonitor_IRQHandler                           /home/zhouyongjian/wangshi/wmsdk_bundle-3.1.16/bin/wmsdk/libs/libdrv.a(mdev_startup.o)
Default_IRQHandler                                /home/zhouyongjian/wangshi/wmsdk_bundle-3.1.16/bin/wmsdk/libs/libdrv.a(mdev_startup.o)
Default_IRQHandler_C                              /home/zhouyongjian/wangshi/wmsdk_bundle-3.1.16/bin/wmsdk/libs/libdrv.a(mdev_startup.o)
ExtPin0_IRQHandler                                /home/zhouyongjian/wangshi/wmsdk_bundle-3.1.16/bin/wmsdk/libs/libdrv.a(mw300_pmu.o)
                                                  /home/zhouyongjian/wangshi/wmsdk_bundle-3.1.16/bin/wmsdk/libs/libdrv.a(mdev_startup.o)
ExtPin10_IRQHandler                               /home/zhouyongjian/wangshi/wmsdk_bundle-3.1.16/bin/wmsdk/libs/libdrv.a(mdev_startup.o)
ExtPin11_IRQHandler                               /home/zhouyongjian/wangshi/wmsdk_bundle-3.1.16/bin/wmsdk/libs/libdrv.a(mdev_startup.o)
ExtPin12_IRQHandler                               /home/zhouyongjian/wangshi/wmsdk_bundle-3.1.16/bin/wmsdk/libs/libdrv.a(mdev_startup.o)
ExtPin13_IRQHandler                               /home/zhouyongjian/wangshi/wmsdk_bundle-3.1.16/bin/wmsdk/libs/libdrv.a(mdev_startup.o)
ExtPin14_IRQHandler                               /home/zhouyongjian/wangshi/wmsdk_bundle-3.1.16/bin/wmsdk/libs/libdrv.a(mdev_startup.o)
ExtPin15_IRQHandler                               /home/zhouyongjian/wangshi/wmsdk_bundle-3.1.16/bin/wmsdk/libs/libdrv.a(mdev_startup.o)
ExtPin16_IRQHandler                               /home/zhouyongjian/wangshi/wmsdk_bundle-3.1.16/bin/wmsdk/libs/libdrv.a(mdev_startup.o)
ExtPin17_IRQHandler                               /home/zhouyongjian/wangshi/wmsdk_bundle-3.1.16/bin/wmsdk/libs/libdrv.a(mdev_startup.o)
ExtPin18_IRQHandler                               /home/zhouyongjian/wangshi/wmsdk_bundle-3.1.16/bin/wmsdk/libs/libdrv.a(mdev_startup.o)
ExtPin19_IRQHandler                               /home/zhouyongjian/wangshi/wmsdk_bundle-3.1.16/bin/wmsdk/libs/libdrv.a(mdev_startup.o)
ExtPin1_IRQHandler                                /home/zhouyongjian/wangshi/wmsdk_bundle-3.1.16/bin/wmsdk/libs/libdrv.a(mw300_pmu.o)
                                                  /home/zhouyongjian/wangshi/wmsdk_bundle-3.1.16/bin/wmsdk/libs/libdrv.a(mdev_startup.o)
ExtPin20_IRQHandler                               /home/zhouyongjian/wangshi/wmsdk_bundle-3.1.16/bin/wmsdk/libs/libdrv.a(mdev_startup.o)
ExtPin21_IRQHandler                               /home/zhouyongjian/wangshi/wmsdk_bundle-3.1.16/bin/wmsdk/libs/libdrv.a(mdev_startup.o)
ExtPin22_IRQHandler                               /home/zhouyongjian/wangshi/wmsdk_bundle-3.1.16/bin/wmsdk/libs/libdrv.a(mdev_startup.o)
ExtPin23_IRQHandler                               /home/zhouyongjian/wangshi/wmsdk_bundle-3.1.16/bin/wmsdk/libs/libdrv.a(mdev_startup.o)
ExtPin24_IRQHandler                               /home/zhouyongjian/wangshi/wmsdk_bundle-3.1.16/bin/wmsdk/libs/libdrv.a(mdev_startup.o)
ExtPin25_IRQHandler                               /home/zhouyongjian/wangshi/wmsdk_bundle-3.1.16/bin/wmsdk/libs/libdrv.a(mdev_startup.o)
ExtPin26_IRQHandler                               /home/zhouyongjian/wangshi/wmsdk_bundle-3.1.16/bin/wmsdk/libs/libdrv.a(mdev_startup.o)
ExtPin27_IRQHandler                               /home/zhouyongjian/wangshi/wmsdk_bundle-3.1.16/bin/wmsdk/libs/libdrv.a(mdev_startup.o)
ExtPin3_IRQHandler                                /home/zhouyongjian/wangshi/wmsdk_bundle-3.1.16/bin/wmsdk/libs/libdrv.a(mdev_startup.o)
ExtPin4_IRQHandler                                /home/zhouyongjian/wangshi/wmsdk_bundle-3.1.16/bin/wmsdk/libs/libdrv.a(mdev_startup.o)
ExtPin5_IRQHandler                                /home/zhouyongjian/wangshi/wmsdk_bundle-3.1.16/bin/wmsdk/libs/libdrv.a(mdev_startup.o)
ExtPin6_IRQHandler                                /home/zhouyongjian/wangshi/wmsdk_bundle-3.1.16/bin/wmsdk/libs/libdrv.a(mdev_startup.o)
ExtPin7_IRQHandler                                /home/zhouyongjian/wangshi/wmsdk_bundle-3.1.16/bin/wmsdk/libs/libdrv.a(mdev_startup.o)
ExtPin8_IRQHandler                                /home/zhouyongjian/wangshi/wmsdk_bundle-3.1.16/bin/wmsdk/libs/libdrv.a(mdev_startup.o)
ExtPin9_IRQHandler                                /home/zhouyongjian/wangshi/wmsdk_bundle-3.1.16/bin/wmsdk/libs/libdrv.a(mdev_startup.o)
FLASH_Block32KErase                               /home/zhouyongjian/wangshi/wmsdk_bundle-3.1.16/bin/wmsdk/libs/libdrv.a(mw300_flash.o)
FLASH_Block64KErase                               /home/zhouyongjian/wangshi/wmsdk_bundle-3.1.16/bin/wmsdk/libs/libdrv.a(mw300_flash.o)
FLASH_ByteRead                                    /home/zhouyongjian/wangshi/wmsdk_bundle-3.1.16/bin/wmsdk/libs/libdrv.a(mw300_flash.o)
FLASH_ByteWrite                                   /home/zhouyongjian/wangshi/wmsdk_bundle-3.1.16/bin/wmsdk/libs/libdrv.a(mw300_flash.o)
FLASH_Erase                                       /home/zhouyongjian/wangshi/wmsdk_bundle-3.1.16/bin/wmsdk/libs/libdrv.a(mw300_flash.o)
                                                  /home/zhouyongjian/wangshi/wmsdk_bundle-3.1.16/bin/wmsdk/libs/libdrv.a(mdev_iflash.o)
FLASH_EraseAll                                    /home/zhouyongjian/wangshi/wmsdk_bundle-3.1.16/bin/wmsdk/libs/libdrv.a(mw300_flash.o)
                                                  /home/zhouyongjian/wangshi/wmsdk_bundle-3.1.16/bin/wmsdk/libs/libdrv.a(mdev_iflash.o)
FLASH_GetBusyStatus                               /home/zhouyongjian/wangshi/wmsdk_bundle-3.1.16/bin/wmsdk/libs/libdrv.a(mw300_flash.o)
FLASH_GetConfig                                   /home/zhouyongjian/wangshi/wmsdk_bundle-3.1.16/bin/wmsdk/libs/libdrv.a(mw300_flash.o)
                                                  /home/zhouyongjian/wangshi/wmsdk_bundle-3.1.16/bin/wmsdk/libs/libdrv.a(mdev_iflash.o)
FLASH_GetJEDECID                                  /home/zhouyongjian/wangshi/wmsdk_bundle-3.1.16/bin/wmsdk/libs/libdrv.a(mw300_flash.o)
                                                  /home/zhouyongjian/wangshi/wmsdk_bundle-3.1.16/bin/wmsdk/libs/libdrv.a(mdev_iflash.o)
FLASH_GetStatus                                   /home/zhouyongjian/wangshi/wmsdk_bundle-3.1.16/bin/wmsdk/libs/libdrv.a(mw300_flash.o)
FLASH_GetUniqueID                                 /home/zhouyongjian/wangshi/wmsdk_bundle-3.1.16/bin/wmsdk/libs/libdrv.a(mw300_flash.o)
                                                  /home/zhouyongjian/wangshi/wmsdk_bundle-3.1.16/bin/wmsdk/libs/libdrv.a(mdev_iflash.o)
FLASH_IsBlank                                     /home/zhouyongjian/wangshi/wmsdk_bundle-3.1.16/bin/wmsdk/libs/libdrv.a(mw300_flash.o)
FLASH_IsSectorBlank                               /home/zhouyongjian/wangshi/wmsdk_bundle-3.1.16/bin/wmsdk/libs/libdrv.a(mw300_flash.o)
FLASH_PageWrite                                   /home/zhouyongjian/wangshi/wmsdk_bundle-3.1.16/bin/wmsdk/libs/libdrv.a(mw300_flash.o)
FLASH_Read                                        /home/zhouyongjian/wangshi/wmsdk_bundle-3.1.16/bin/wmsdk/libs/libdrv.a(mw300_flash.o)
                                                  /home/zhouyongjian/wangshi/wmsdk_bundle-3.1.16/bin/wmsdk/libs/libdrv.a(mdev_iflash.o)
FLASH_ResetFastReadDual                           /home/zhouyongjian/wangshi/wmsdk_bundle-3.1.16/bin/wmsdk/libs/libdrv.a(mw300_flash.o)
FLASH_ResetFastReadQuad                           /home/zhouyongjian/wangshi/wmsdk_bundle-3.1.16/bin/wmsdk/libs/libdrv.a(mw300_flash.o)
                                                  /home/zhouyongjian/wangshi/wmsdk_bundle-3.1.16/bin/wmsdk/libs/libdrv.a(mdev_iflash.o)
FLASH_SectorErase                                 /home/zhouyongjian/wangshi/wmsdk_bundle-3.1.16/bin/wmsdk/libs/libdrv.a(mw300_flash.o)
FLASH_SelectInterface                             /home/zhouyongjian/wangshi/wmsdk_bundle-3.1.16/bin/wmsdk/libs/libdrv.a(mw300_flash.o)
FLASH_SetConfig                                   /home/zhouyongjian/wangshi/wmsdk_bundle-3.1.16/bin/wmsdk/libs/libdrv.a(mw300_flash.o)
                                                  /home/zhouyongjian/wangshi/wmsdk_bundle-3.1.16/bin/wmsdk/libs/libdrv.a(mdev_iflash.o)
FLASH_SetProtectionMode                           /home/zhouyongjian/wangshi/wmsdk_bundle-3.1.16/bin/wmsdk/libs/libdrv.a(mw300_flash.o)
FLASH_SetWriteEnableBit                           /home/zhouyongjian/wangshi/wmsdk_bundle-3.1.16/bin/wmsdk/libs/libdrv.a(mw300_flash.o)
FLASH_WordRead                                    /home/zhouyongjian/wangshi/wmsdk_bundle-3.1.16/bin/wmsdk/libs/libdrv.a(mw300_flash.o)
FLASH_WordWrite                                   /home/zhouyongjian/wangshi/wmsdk_bundle-3.1.16/bin/wmsdk/libs/libdrv.a(mw300_flash.o)
FLASH_Write                                       /home/zhouyongjian/wangshi/wmsdk_bundle-3.1.16/bin/wmsdk/libs/libdrv.a(mw300_flash.o)
                                                  /home/zhouyongjian/wangshi/wmsdk_bundle-3.1.16/bin/wmsdk/libs/libdrv.a(mdev_iflash.o)
FLASH_WriteEnableVSR                              /home/zhouyongjian/wangshi/wmsdk_bundle-3.1.16/bin/wmsdk/libs/libdrv.a(mw300_flash.o)
FLASH_WriteStatus                                 /home/zhouyongjian/wangshi/wmsdk_bundle-3.1.16/bin/wmsdk/libs/libdrv.a(mw300_flash.o)
GPIO_GetIntStatus                                 /home/zhouyongjian/wangshi/wmsdk_bundle-3.1.16/bin/wmsdk/libs/libdrv.a(mw300_gpio.o)
                                                  /home/zhouyongjian/wangshi/wmsdk_bundle-3.1.16/bin/wmsdk/libs/libdrv.a(mdev_gpio.o)
GPIO_IRQHandler                                   /home/zhouyongjian/wangshi/wmsdk_bundle-3.1.16/bin/wmsdk/libs/libdrv.a(mdev_gpio.o)
                                                  /home/zhouyongjian/wangshi/wmsdk_bundle-3.1.16/bin/wmsdk/libs/libdrv.a(mdev_startup.o)
GPIO_IntClr                                       /home/zhouyongjian/wangshi/wmsdk_bundle-3.1.16/bin/wmsdk/libs/libdrv.a(mw300_gpio.o)
                                                  /home/zhouyongjian/wangshi/wmsdk_bundle-3.1.16/bin/wmsdk/libs/libdrv.a(mdev_gpio.o)
GPIO_IntConfig                                    /home/zhouyongjian/wangshi/wmsdk_bundle-3.1.16/bin/wmsdk/libs/libdrv.a(mw300_gpio.o)
                                                  /home/zhouyongjian/wangshi/wmsdk_bundle-3.1.16/bin/wmsdk/libs/libdrv.a(mdev_gpio.o)
GPIO_IntMask                                      /home/zhouyongjian/wangshi/wmsdk_bundle-3.1.16/bin/wmsdk/libs/libdrv.a(mw300_gpio.o)
                                                  /home/zhouyongjian/wangshi/wmsdk_bundle-3.1.16/bin/wmsdk/libs/libdrv.a(mdev_gpio.o)
GPIO_PinModeConfig                                /home/zhouyongjian/wangshi/wmsdk_bundle-3.1.16/bin/wmsdk/libs/libdrv.a(mw300_pinmux.o)
GPIO_PinMuxFun                                    /home/zhouyongjian/wangshi/wmsdk_bundle-3.1.16/bin/wmsdk/libs/libdrv.a(mw300_pinmux.o)
                                                  /home/zhouyongjian/wangshi/wmsdk_bundle-3.1.16/bin/wmsdk/libs/libdrv.a(mdev_iflash.o)
                                                  obj/board.o
                                                  /home/zhouyongjian/wangshi/wmsdk_bundle-3.1.16/bin/wmsdk/libs/libdrv.a(mdev_rtc.o)
GPIO_ReadPinLevel                                 /home/zhouyongjian/wangshi/wmsdk_bundle-3.1.16/bin/wmsdk/libs/libdrv.a(mw300_gpio.o)
                                                  /home/zhouyongjian/wangshi/wmsdk_bundle-3.1.16/bin/wmsdk/libs/libdrv.a(mdev_gpio.o)
                                                  obj/board.o
GPIO_ReadPortLevel                                /home/zhouyongjian/wangshi/wmsdk_bundle-3.1.16/bin/wmsdk/libs/libdrv.a(mw300_gpio.o)
GPIO_SetPinDir                                    /home/zhouyongjian/wangshi/wmsdk_bundle-3.1.16/bin/wmsdk/libs/libdrv.a(mw300_gpio.o)
                                                  /home/zhouyongjian/wangshi/wmsdk_bundle-3.1.16/bin/wmsdk/libs/libdrv.a(mdev_gpio.o)
                                                  obj/board.o
GPIO_SetPortPinDir                                /home/zhouyongjian/wangshi/wmsdk_bundle-3.1.16/bin/wmsdk/libs/libdrv.a(mw300_gpio.o)
GPIO_WritePinOutput                               /home/zhouyongjian/wangshi/wmsdk_bundle-3.1.16/bin/wmsdk/libs/libdrv.a(mw300_gpio.o)
                                                  /home/zhouyongjian/wangshi/wmsdk_bundle-3.1.16/bin/wmsdk/libs/libdrv.a(mdev_gpio.o)
                                                  obj/board.o
GPIO_WritePortOutput                              /home/zhouyongjian/wangshi/wmsdk_bundle-3.1.16/bin/wmsdk/libs/libdrv.a(mw300_gpio.o)
GPT0_IRQHandler                                   /home/zhouyongjian/wangshi/wmsdk_bundle-3.1.16/bin/wmsdk/libs/libdrv.a(mw300_gpt.o)
                                                  /home/zhouyongjian/wangshi/wmsdk_bundle-3.1.16/bin/wmsdk/libs/libdrv.a(mdev_startup.o)
GPT1_IRQHandler                                   /home/zhouyongjian/wangshi/wmsdk_bundle-3.1.16/bin/wmsdk/libs/libdrv.a(mw300_gpt.o)
                                                  /home/zhouyongjian/wangshi/wmsdk_bundle-3.1.16/bin/wmsdk/libs/libdrv.a(mdev_startup.o)
GPT2_IRQHandler                                   /home/zhouyongjian/wangshi/wmsdk_bundle-3.1.16/bin/wmsdk/libs/libdrv.a(mw300_gpt.o)
                                                  /home/zhouyongjian/wangshi/wmsdk_bundle-3.1.16/bin/wmsdk/libs/libdrv.a(mdev_startup.o)
GPT3_IRQHandler                                   /home/zhouyongjian/wangshi/wmsdk_bundle-3.1.16/bin/wmsdk/libs/libdrv.a(mw300_gpt.o)
                                                  /home/zhouyongjian/wangshi/wmsdk_bundle-3.1.16/bin/wmsdk/libs/libdrv.a(mdev_startup.o)
GPT_ChannelFuncSelect                             /home/zhouyongjian/wangshi/wmsdk_bundle-3.1.16/bin/wmsdk/libs/libdrv.a(mw300_gpt.o)
                                                  /home/zhouyongjian/wangshi/wmsdk_bundle-3.1.16/bin/wmsdk/libs/libdrv.a(mdev_gpt.o)
GPT_ChannelInputConfig                            /home/zhouyongjian/wangshi/wmsdk_bundle-3.1.16/bin/wmsdk/libs/libdrv.a(mw300_gpt.o)
GPT_ChannelOutputConfig                           /home/zhouyongjian/wangshi/wmsdk_bundle-3.1.16/bin/wmsdk/libs/libdrv.a(mw300_gpt.o)
                                                  /home/zhouyongjian/wangshi/wmsdk_bundle-3.1.16/bin/wmsdk/libs/libdrv.a(mdev_gpt.o)
GPT_ChannelReset                                  /home/zhouyongjian/wangshi/wmsdk_bundle-3.1.16/bin/wmsdk/libs/libdrv.a(mw300_gpt.o)
                                                  /home/zhouyongjian/wangshi/wmsdk_bundle-3.1.16/bin/wmsdk/libs/libdrv.a(mdev_gpt.o)
GPT_CounterReset                                  /home/zhouyongjian/wangshi/wmsdk_bundle-3.1.16/bin/wmsdk/libs/libdrv.a(mw300_gpt.o)
                                                  /home/zhouyongjian/wangshi/wmsdk_bundle-3.1.16/bin/wmsdk/libs/libdrv.a(mdev_gpt.o)
GPT_DMAChannelSelect                              /home/zhouyongjian/wangshi/wmsdk_bundle-3.1.16/bin/wmsdk/libs/libdrv.a(mw300_gpt.o)
GPT_DMACmd                                        /home/zhouyongjian/wangshi/wmsdk_bundle-3.1.16/bin/wmsdk/libs/libdrv.a(mw300_gpt.o)
GPT_GetCaptureVal                                 /home/zhouyongjian/wangshi/wmsdk_bundle-3.1.16/bin/wmsdk/libs/libdrv.a(mw300_gpt.o)
GPT_GetCounterVal                                 /home/zhouyongjian/wangshi/wmsdk_bundle-3.1.16/bin/wmsdk/libs/libdrv.a(mw300_gpt.o)
GPT_GetStatus                                     /home/zhouyongjian/wangshi/wmsdk_bundle-3.1.16/bin/wmsdk/libs/libdrv.a(mw300_gpt.o)
GPT_Init                                          /home/zhouyongjian/wangshi/wmsdk_bundle-3.1.16/bin/wmsdk/libs/libdrv.a(mw300_gpt.o)
                                                  /home/zhouyongjian/wangshi/wmsdk_bundle-3.1.16/bin/wmsdk/libs/libdrv.a(mdev_gpt.o)
GPT_InputConfig                                   /home/zhouyongjian/wangshi/wmsdk_bundle-3.1.16/bin/wmsdk/libs/libdrv.a(mw300_gpt.o)
GPT_IntMask                                       /home/zhouyongjian/wangshi/wmsdk_bundle-3.1.16/bin/wmsdk/libs/libdrv.a(mw300_gpt.o)
                                                  /home/zhouyongjian/wangshi/wmsdk_bundle-3.1.16/bin/wmsdk/libs/libdrv.a(mdev_gpt.o)
GPT_SetChannelBothMatchVal                        /home/zhouyongjian/wangshi/wmsdk_bundle-3.1.16/bin/wmsdk/libs/libdrv.a(mw300_gpt.o)
GPT_SetChannelMatchVal0                           /home/zhouyongjian/wangshi/wmsdk_bundle-3.1.16/bin/wmsdk/libs/libdrv.a(mw300_gpt.o)
GPT_SetChannelMatchVal1                           /home/zhouyongjian/wangshi/wmsdk_bundle-3.1.16/bin/wmsdk/libs/libdrv.a(mw300_gpt.o)
GPT_SetCounterUppVal                              /home/zhouyongjian/wangshi/wmsdk_bundle-3.1.16/bin/wmsdk/libs/libdrv.a(mw300_gpt.o)
GPT_Start                                         /home/zhouyongjian/wangshi/wmsdk_bundle-3.1.16/bin/wmsdk/libs/libdrv.a(mw300_gpt.o)
                                                  /home/zhouyongjian/wangshi/wmsdk_bundle-3.1.16/bin/wmsdk/libs/libdrv.a(mdev_gpt.o)
GPT_StatusClr                                     /home/zhouyongjian/wangshi/wmsdk_bundle-3.1.16/bin/wmsdk/libs/libdrv.a(mw300_gpt.o)
                                                  /home/zhouyongjian/wangshi/wmsdk_bundle-3.1.16/bin/wmsdk/libs/libdrv.a(mdev_gpt.o)
GPT_Stop                                          /home/zhouyongjian/wangshi/wmsdk_bundle-3.1.16/bin/wmsdk/libs/libdrv.a(mw300_gpt.o)
                                                  /home/zhouyongjian/wangshi/wmsdk_bundle-3.1.16/bin/wmsdk/libs/libdrv.a(mdev_gpt.o)
GPT_TrigCmd                                       /home/zhouyongjian/wangshi/wmsdk_bundle-3.1.16/bin/wmsdk/libs/libdrv.a(mw300_gpt.o)
GPT_TrigConfig                                    /home/zhouyongjian/wangshi/wmsdk_bundle-3.1.16/bin/wmsdk/libs/libdrv.a(mw300_gpt.o)
HLW8012_Measure                                   obj/C_HLW8012_debug.o
HLW8012_Measure_COS                               obj/C_HLW8012_debug.o
                                                  obj/electric_measure.o
HLW8012_Measure_E                                 obj/C_HLW8012_debug.o
                                                  obj/electric_measure.o
HLW8012_Measure_I                                 obj/C_HLW8012_debug.o
                                                  obj/electric_measure.o
HLW8012_Measure_P                                 obj/C_HLW8012_debug.o
                                                  obj/electric_measure.o
HLW8012_Measure_V                                 obj/C_HLW8012_debug.o
                                                  obj/electric_measure.o
HardFault_IRQHandler                              /home/zhouyongjian/wangshi/wmsdk_bundle-3.1.16/bin/wmsdk/libs/libdrv.a(mdev_startup.o)
HardFault_IRQHandler_C                            /home/zhouyongjian/wangshi/wmsdk_bundle-3.1.16/bin/wmsdk/libs/libdrv.a(mdev_startup.o)
I2C0_IRQHandler                                   /home/zhouyongjian/wangshi/wmsdk_bundle-3.1.16/bin/wmsdk/libs/libdrv.a(mdev_startup.o)
I2C1_IRQHandler                                   /home/zhouyongjian/wangshi/wmsdk_bundle-3.1.16/bin/wmsdk/libs/libdrv.a(mdev_startup.o)
InitGPIO                                          obj/electric_measure.o
Init_Rom                                          obj/C_HLW8012_debug.o
                                                  obj/electric_measure.o
Load_CalData_Flash                                obj/electric_measure.o
Measure_COS_Flag                                  obj/C_HLW8012_debug.o
                                                  obj/electric_measure.o
Measure_I_Flag                                    obj/C_HLW8012_debug.o
                                                  obj/electric_measure.o
Measure_P_Flag                                    obj/C_HLW8012_debug.o
                                                  obj/electric_measure.o
Measure_V_Flag                                    obj/C_HLW8012_debug.o
                                                  obj/electric_measure.o
MemManage_IRQHandler                              /home/zhouyongjian/wangshi/wmsdk_bundle-3.1.16/bin/wmsdk/libs/libdrv.a(mdev_startup.o)
MsTimer                                           obj/electric_measure.o
NMI_IRQHandler                                    /home/zhouyongjian/wangshi/wmsdk_bundle-3.1.16/bin/wmsdk/libs/libdrv.a(mdev_startup.o)
PC5_EXTI_Interrupt                                obj/C_HLW8012_debug.o
                                                  obj/electric_measure.o
PD2_EXTI_Interrupt                                obj/C_HLW8012_debug.o
                                                  obj/electric_measure.o
PLL_IRQHandler                                    /home/zhouyongjian/wangshi/wmsdk_bundle-3.1.16/bin/wmsdk/libs/libdrv.a(mdev_startup.o)
PMU_ClearWakeupSrcInt                             /home/zhouyongjian/wangshi/wmsdk_bundle-3.1.16/bin/wmsdk/libs/libdrv.a(mw300_pmu.o)
                                                  /home/zhouyongjian/wangshi/wmsdk_bundle-3.1.16/bin/wmsdk/libs/libdrv.a(mdev_pm.o)
PMU_ClrLastResetCause                             /home/zhouyongjian/wangshi/wmsdk_bundle-3.1.16/bin/wmsdk/libs/libdrv.a(mw300_pmu.o)
                                                  /home/zhouyongjian/wangshi/wmsdk_bundle-3.1.16/bin/wmsdk/libs/libutil.a(boot_flags.o)
PMU_ConfigExtraInterrupt                          /home/zhouyongjian/wangshi/wmsdk_bundle-3.1.16/bin/wmsdk/libs/libdrv.a(mw300_pmu.o)
PMU_ConfigVDDIOLevel                              /home/zhouyongjian/wangshi/wmsdk_bundle-3.1.16/bin/wmsdk/libs/libdrv.a(mw300_pmu.o)
PMU_ConfigVbatBrndet                              /home/zhouyongjian/wangshi/wmsdk_bundle-3.1.16/bin/wmsdk/libs/libdrv.a(mw300_pmu.o)
PMU_ConfigWakeupPin                               /home/zhouyongjian/wangshi/wmsdk_bundle-3.1.16/bin/wmsdk/libs/libdrv.a(mw300_pmu.o)
                                                  obj/board.o
PMU_GetLastResetCause                             /home/zhouyongjian/wangshi/wmsdk_bundle-3.1.16/bin/wmsdk/libs/libdrv.a(mw300_pmu.o)
                                                  /home/zhouyongjian/wangshi/wmsdk_bundle-3.1.16/bin/wmsdk/libs/libutil.a(boot_flags.o)
PMU_GetLastWakeupStatus                           /home/zhouyongjian/wangshi/wmsdk_bundle-3.1.16/bin/wmsdk/libs/libdrv.a(mw300_pmu.o)
PMU_GetSleepMode                                  /home/zhouyongjian/wangshi/wmsdk_bundle-3.1.16/bin/wmsdk/libs/libdrv.a(mw300_pmu.o)
PMU_GetUlpcompOutValue                            /home/zhouyongjian/wangshi/wmsdk_bundle-3.1.16/bin/wmsdk/libs/libdrv.a(mw300_pmu.o)
PMU_GetUlpcompStatus                              /home/zhouyongjian/wangshi/wmsdk_bundle-3.1.16/bin/wmsdk/libs/libdrv.a(mw300_pmu.o)
PMU_GetVbatBrndetOutValue                         /home/zhouyongjian/wangshi/wmsdk_bundle-3.1.16/bin/wmsdk/libs/libdrv.a(mw300_pmu.o)
PMU_GetVbatBrndetStatus                           /home/zhouyongjian/wangshi/wmsdk_bundle-3.1.16/bin/wmsdk/libs/libdrv.a(mw300_pmu.o)
PMU_MCIWakeupWLANDisable                          /home/zhouyongjian/wangshi/wmsdk_bundle-3.1.16/bin/wmsdk/libs/libdrv.a(mw300_pmu.o)
PMU_MCIWakeupWLANEnable                           /home/zhouyongjian/wangshi/wmsdk_bundle-3.1.16/bin/wmsdk/libs/libdrv.a(mw300_pmu.o)
PMU_PowerDownVDDIO                                /home/zhouyongjian/wangshi/wmsdk_bundle-3.1.16/bin/wmsdk/libs/libdrv.a(mw300_pmu.o)
                                                  /home/zhouyongjian/wangshi/wmsdk_bundle-3.1.16/bin/wmsdk/libs/libdrv.a(mdev_pm.o)
PMU_PowerDownWLAN                                 /home/zhouyongjian/wangshi/wmsdk_bundle-3.1.16/bin/wmsdk/libs/libdrv.a(mw300_pmu.o)
                                                  /home/zhouyongjian/wangshi/wmsdk_bundle-3.1.16/bin/wmsdk/libs/libdrv.a(mdev_pm.o)
PMU_PowerNormalVDDIO                              /home/zhouyongjian/wangshi/wmsdk_bundle-3.1.16/bin/wmsdk/libs/libdrv.a(mw300_pmu.o)
                                                  /home/zhouyongjian/wangshi/wmsdk_bundle-3.1.16/bin/wmsdk/libs/libdrv.a(mdev_pm.o)
PMU_PowerOffVDDIO                                 /home/zhouyongjian/wangshi/wmsdk_bundle-3.1.16/bin/wmsdk/libs/libdrv.a(mw300_pmu.o)
                                                  /home/zhouyongjian/wangshi/wmsdk_bundle-3.1.16/bin/wmsdk/libs/libdrv.a(mdev_pm.o)
PMU_PowerOnVDDIO                                  /home/zhouyongjian/wangshi/wmsdk_bundle-3.1.16/bin/wmsdk/libs/libdrv.a(mw300_pmu.o)
                                                  /home/zhouyongjian/wangshi/wmsdk_bundle-3.1.16/bin/wmsdk/libs/libdrv.a(mdev_iflash.o)
                                                  /home/zhouyongjian/wangshi/wmsdk_bundle-3.1.16/bin/wmsdk/libs/libdrv.a(mdev_rtc.o)
                                                  /home/zhouyongjian/wangshi/wmsdk_bundle-3.1.16/bin/wmsdk/libs/libdrv.a(mdev_pm.o)
                                                  /home/zhouyongjian/wangshi/wmsdk_bundle-3.1.16/bin/wmsdk/libs/libdrv.a(mdev_startup.o)
PMU_PowerOnWLAN                                   /home/zhouyongjian/wangshi/wmsdk_bundle-3.1.16/bin/wmsdk/libs/libdrv.a(mw300_pmu.o)
                                                  /home/zhouyongjian/wangshi/wmsdk_bundle-3.1.16/bin/wmsdk/libs/libdrv.a(mdev_startup.o)
PMU_SetSleepMode                                  /home/zhouyongjian/wangshi/wmsdk_bundle-3.1.16/bin/wmsdk/libs/libdrv.a(mw300_pmu.o)
                                                  /home/zhouyongjian/wangshi/wmsdk_bundle-3.1.16/bin/wmsdk/libs/libdrv.a(mdev_pm.o)
PMU_UlpcompCmd                                    /home/zhouyongjian/wangshi/wmsdk_bundle-3.1.16/bin/wmsdk/libs/libdrv.a(mw300_pmu.o)
PMU_UlpcompHysteresisSel                          /home/zhouyongjian/wangshi/wmsdk_bundle-3.1.16/bin/wmsdk/libs/libdrv.a(mw300_pmu.o)
PMU_UlpcompModeSelect                             /home/zhouyongjian/wangshi/wmsdk_bundle-3.1.16/bin/wmsdk/libs/libdrv.a(mw300_pmu.o)
PMU_UlpcompRefVoltageSel                          /home/zhouyongjian/wangshi/wmsdk_bundle-3.1.16/bin/wmsdk/libs/libdrv.a(mw300_pmu.o)
PMU_VbatBrndetCmd                                 /home/zhouyongjian/wangshi/wmsdk_bundle-3.1.16/bin/wmsdk/libs/libdrv.a(mw300_pmu.o)
                                                  /home/zhouyongjian/wangshi/wmsdk_bundle-3.1.16/bin/wmsdk/libs/libdrv.a(mdev_startup.o)
PMU_VbatBrndetIntCmd                              /home/zhouyongjian/wangshi/wmsdk_bundle-3.1.16/bin/wmsdk/libs/libdrv.a(mw300_pmu.o)
PMU_VbatBrndetRstCmd                              /home/zhouyongjian/wangshi/wmsdk_bundle-3.1.16/bin/wmsdk/libs/libdrv.a(mw300_pmu.o)
                                                  /home/zhouyongjian/wangshi/wmsdk_bundle-3.1.16/bin/wmsdk/libs/libdrv.a(mdev_startup.o)
PMU_WakeupSrcIntMask                              /home/zhouyongjian/wangshi/wmsdk_bundle-3.1.16/bin/wmsdk/libs/libdrv.a(mw300_pmu.o)
                                                  /home/zhouyongjian/wangshi/wmsdk_bundle-3.1.16/bin/wmsdk/libs/libdrv.a(mdev_pm.o)
PendSV_IRQHandler                                 /home/zhouyongjian/wangshi/wmsdk_bundle-3.1.16/bin/wmsdk/libs/libfreertos.a(port.o)
                                                  /home/zhouyongjian/wangshi/wmsdk_bundle-3.1.16/bin/wmsdk/libs/libdrv.a(mdev_startup.o)
QSPI_DmaCmd                                       /home/zhouyongjian/wangshi/wmsdk_bundle-3.1.16/bin/wmsdk/libs/libdrv.a(mw300_qspi.o)
QSPI_FlushFIFO                                    /home/zhouyongjian/wangshi/wmsdk_bundle-3.1.16/bin/wmsdk/libs/libdrv.a(mw300_qspi.o)
                                                  /home/zhouyongjian/wangshi/wmsdk_bundle-3.1.16/bin/wmsdk/libs/libdrv.a(mw300_flash.o)
QSPI_GetIntStatus                                 /home/zhouyongjian/wangshi/wmsdk_bundle-3.1.16/bin/wmsdk/libs/libdrv.a(mw300_qspi.o)
QSPI_GetStatus                                    /home/zhouyongjian/wangshi/wmsdk_bundle-3.1.16/bin/wmsdk/libs/libdrv.a(mw300_qspi.o)
QSPI_IRQHandler                                   /home/zhouyongjian/wangshi/wmsdk_bundle-3.1.16/bin/wmsdk/libs/libdrv.a(mw300_qspi.o)
                                                  /home/zhouyongjian/wangshi/wmsdk_bundle-3.1.16/bin/wmsdk/libs/libdrv.a(mdev_startup.o)
QSPI_Init                                         /home/zhouyongjian/wangshi/wmsdk_bundle-3.1.16/bin/wmsdk/libs/libdrv.a(mw300_qspi.o)
QSPI_IntClr                                       /home/zhouyongjian/wangshi/wmsdk_bundle-3.1.16/bin/wmsdk/libs/libdrv.a(mw300_qspi.o)
QSPI_IntMask                                      /home/zhouyongjian/wangshi/wmsdk_bundle-3.1.16/bin/wmsdk/libs/libdrv.a(mw300_qspi.o)
QSPI_IsTransferCompleted                          /home/zhouyongjian/wangshi/wmsdk_bundle-3.1.16/bin/wmsdk/libs/libdrv.a(mw300_qspi.o)
QSPI_ReadByte                                     /home/zhouyongjian/wangshi/wmsdk_bundle-3.1.16/bin/wmsdk/libs/libdrv.a(mw300_qspi.o)
                                                  /home/zhouyongjian/wangshi/wmsdk_bundle-3.1.16/bin/wmsdk/libs/libdrv.a(mw300_flash.o)
QSPI_ReadWord                                     /home/zhouyongjian/wangshi/wmsdk_bundle-3.1.16/bin/wmsdk/libs/libdrv.a(mw300_qspi.o)
QSPI_Reset                                        /home/zhouyongjian/wangshi/wmsdk_bundle-3.1.16/bin/wmsdk/libs/libdrv.a(mw300_qspi.o)
QSPI_SetAddr                                      /home/zhouyongjian/wangshi/wmsdk_bundle-3.1.16/bin/wmsdk/libs/libdrv.a(mw300_qspi.o)
                                                  /home/zhouyongjian/wangshi/wmsdk_bundle-3.1.16/bin/wmsdk/libs/libdrv.a(mw300_flash.o)
QSPI_SetAddrCnt                                   /home/zhouyongjian/wangshi/wmsdk_bundle-3.1.16/bin/wmsdk/libs/libdrv.a(mw300_qspi.o)
                                                  /home/zhouyongjian/wangshi/wmsdk_bundle-3.1.16/bin/wmsdk/libs/libdrv.a(mw300_flash.o)
QSPI_SetDInCnt                                    /home/zhouyongjian/wangshi/wmsdk_bundle-3.1.16/bin/wmsdk/libs/libdrv.a(mw300_qspi.o)
                                                  /home/zhouyongjian/wangshi/wmsdk_bundle-3.1.16/bin/wmsdk/libs/libdrv.a(mw300_flash.o)
QSPI_SetDummyCnt                                  /home/zhouyongjian/wangshi/wmsdk_bundle-3.1.16/bin/wmsdk/libs/libdrv.a(mw300_qspi.o)
                                                  /home/zhouyongjian/wangshi/wmsdk_bundle-3.1.16/bin/wmsdk/libs/libdrv.a(mw300_flash.o)
QSPI_SetHdrcnt                                    /home/zhouyongjian/wangshi/wmsdk_bundle-3.1.16/bin/wmsdk/libs/libdrv.a(mw300_qspi.o)
                                                  /home/zhouyongjian/wangshi/wmsdk_bundle-3.1.16/bin/wmsdk/libs/libdrv.a(mw300_flash.o)
QSPI_SetInstr                                     /home/zhouyongjian/wangshi/wmsdk_bundle-3.1.16/bin/wmsdk/libs/libdrv.a(mw300_qspi.o)
                                                  /home/zhouyongjian/wangshi/wmsdk_bundle-3.1.16/bin/wmsdk/libs/libdrv.a(mw300_flash.o)
QSPI_SetInstrCnt                                  /home/zhouyongjian/wangshi/wmsdk_bundle-3.1.16/bin/wmsdk/libs/libdrv.a(mw300_qspi.o)
QSPI_SetRMode                                     /home/zhouyongjian/wangshi/wmsdk_bundle-3.1.16/bin/wmsdk/libs/libdrv.a(mw300_qspi.o)
                                                  /home/zhouyongjian/wangshi/wmsdk_bundle-3.1.16/bin/wmsdk/libs/libdrv.a(mw300_flash.o)
QSPI_SetRModeCnt                                  /home/zhouyongjian/wangshi/wmsdk_bundle-3.1.16/bin/wmsdk/libs/libdrv.a(mw300_qspi.o)
                                                  /home/zhouyongjian/wangshi/wmsdk_bundle-3.1.16/bin/wmsdk/libs/libdrv.a(mw300_flash.o)
QSPI_SetSSEnable                                  /home/zhouyongjian/wangshi/wmsdk_bundle-3.1.16/bin/wmsdk/libs/libdrv.a(mw300_qspi.o)
                                                  /home/zhouyongjian/wangshi/wmsdk_bundle-3.1.16/bin/wmsdk/libs/libdrv.a(mw300_flash.o)
QSPI_StartTransfer                                /home/zhouyongjian/wangshi/wmsdk_bundle-3.1.16/bin/wmsdk/libs/libdrv.a(mw300_qspi.o)
                                                  /home/zhouyongjian/wangshi/wmsdk_bundle-3.1.16/bin/wmsdk/libs/libdrv.a(mw300_flash.o)
QSPI_StopTransfer                                 /home/zhouyongjian/wangshi/wmsdk_bundle-3.1.16/bin/wmsdk/libs/libdrv.a(mw300_qspi.o)
                                                  /home/zhouyongjian/wangshi/wmsdk_bundle-3.1.16/bin/wmsdk/libs/libdrv.a(mw300_flash.o)
QSPI_WriteByte                                    /home/zhouyongjian/wangshi/wmsdk_bundle-3.1.16/bin/wmsdk/libs/libdrv.a(mw300_qspi.o)
                                                  /home/zhouyongjian/wangshi/wmsdk_bundle-3.1.16/bin/wmsdk/libs/libdrv.a(mw300_flash.o)
QSPI_WriteWord                                    /home/zhouyongjian/wangshi/wmsdk_bundle-3.1.16/bin/wmsdk/libs/libdrv.a(mw300_qspi.o)
RC32M_GetIntStatus                                /home/zhouyongjian/wangshi/wmsdk_bundle-3.1.16/bin/wmsdk/libs/libdrv.a(mw300_clock.o)
RC32M_IRQHandler                                  /home/zhouyongjian/wangshi/wmsdk_bundle-3.1.16/bin/wmsdk/libs/libdrv.a(mw300_clock.o)
                                                  /home/zhouyongjian/wangshi/wmsdk_bundle-3.1.16/bin/wmsdk/libs/libdrv.a(mdev_startup.o)
RC32M_IntClr                                      /home/zhouyongjian/wangshi/wmsdk_bundle-3.1.16/bin/wmsdk/libs/libdrv.a(mw300_clock.o)
RC32M_IntMask                                     /home/zhouyongjian/wangshi/wmsdk_bundle-3.1.16/bin/wmsdk/libs/libdrv.a(mw300_clock.o)
RC32M_SelOutput32MHz                              /home/zhouyongjian/wangshi/wmsdk_bundle-3.1.16/bin/wmsdk/libs/libdrv.a(mw300_clock.o)
RTC_CounterReset                                  /home/zhouyongjian/wangshi/wmsdk_bundle-3.1.16/bin/wmsdk/libs/libdrv.a(mw300_rtc.o)
                                                  /home/zhouyongjian/wangshi/wmsdk_bundle-3.1.16/bin/wmsdk/libs/libdrv.a(mdev_rtc.o)
RTC_GetCntStatus                                  /home/zhouyongjian/wangshi/wmsdk_bundle-3.1.16/bin/wmsdk/libs/libdrv.a(mw300_rtc.o)
                                                  /home/zhouyongjian/wangshi/wmsdk_bundle-3.1.16/bin/wmsdk/libs/libdrv.a(mdev_rtc.o)
RTC_GetCounterUppVal                              /home/zhouyongjian/wangshi/wmsdk_bundle-3.1.16/bin/wmsdk/libs/libdrv.a(mw300_rtc.o)
                                                  /home/zhouyongjian/wangshi/wmsdk_bundle-3.1.16/bin/wmsdk/libs/libdrv.a(mdev_rtc.o)
RTC_GetCounterVal                                 /home/zhouyongjian/wangshi/wmsdk_bundle-3.1.16/bin/wmsdk/libs/libdrv.a(mw300_rtc.o)
                                                  /home/zhouyongjian/wangshi/wmsdk_bundle-3.1.16/bin/wmsdk/libs/libdrv.a(mdev_rtc.o)
RTC_GetStatus                                     /home/zhouyongjian/wangshi/wmsdk_bundle-3.1.16/bin/wmsdk/libs/libdrv.a(mw300_rtc.o)
RTC_IRQHandler                                    /home/zhouyongjian/wangshi/wmsdk_bundle-3.1.16/bin/wmsdk/libs/libdrv.a(mw300_rtc.o)
                                                  /home/zhouyongjian/wangshi/wmsdk_bundle-3.1.16/bin/wmsdk/libs/libdrv.a(mdev_startup.o)
RTC_Init                                          /home/zhouyongjian/wangshi/wmsdk_bundle-3.1.16/bin/wmsdk/libs/libdrv.a(mw300_rtc.o)
                                                  /home/zhouyongjian/wangshi/wmsdk_bundle-3.1.16/bin/wmsdk/libs/libdrv.a(mdev_rtc.o)
RTC_IntClr                                        /home/zhouyongjian/wangshi/wmsdk_bundle-3.1.16/bin/wmsdk/libs/libdrv.a(mw300_rtc.o)
                                                  /home/zhouyongjian/wangshi/wmsdk_bundle-3.1.16/bin/wmsdk/libs/libdrv.a(mdev_rtc.o)
RTC_IntMask                                       /home/zhouyongjian/wangshi/wmsdk_bundle-3.1.16/bin/wmsdk/libs/libdrv.a(mw300_rtc.o)
                                                  /home/zhouyongjian/wangshi/wmsdk_bundle-3.1.16/bin/wmsdk/libs/libdrv.a(mdev_rtc.o)
RTC_SetCounterAlarmVal                            /home/zhouyongjian/wangshi/wmsdk_bundle-3.1.16/bin/wmsdk/libs/libdrv.a(mw300_rtc.o)
                                                  /home/zhouyongjian/wangshi/wmsdk_bundle-3.1.16/bin/wmsdk/libs/libdrv.a(mdev_rtc.o)
RTC_SetCounterUppVal                              /home/zhouyongjian/wangshi/wmsdk_bundle-3.1.16/bin/wmsdk/libs/libdrv.a(mw300_rtc.o)
                                                  /home/zhouyongjian/wangshi/wmsdk_bundle-3.1.16/bin/wmsdk/libs/libdrv.a(mdev_rtc.o)
RTC_Start                                         /home/zhouyongjian/wangshi/wmsdk_bundle-3.1.16/bin/wmsdk/libs/libdrv.a(mw300_rtc.o)
                                                  /home/zhouyongjian/wangshi/wmsdk_bundle-3.1.16/bin/wmsdk/libs/libdrv.a(mdev_rtc.o)
RTC_Stop                                          /home/zhouyongjian/wangshi/wmsdk_bundle-3.1.16/bin/wmsdk/libs/libdrv.a(mw300_rtc.o)
                                                  /home/zhouyongjian/wangshi/wmsdk_bundle-3.1.16/bin/wmsdk/libs/libdrv.a(mdev_rtc.o)
Reset_IRQHandler                                  /home/zhouyongjian/wangshi/wmsdk_bundle-3.1.16/bin/wmsdk/libs/libdrv.a(mdev_startup.o)
Reset_IRQHandler_C                                /home/zhouyongjian/wangshi/wmsdk_bundle-3.1.16/bin/wmsdk/libs/libdrv.a(mdev_startup.o)
SDIO_IRQHandler                                   /home/zhouyongjian/wangshi/wmsdk_bundle-3.1.16/bin/wmsdk/libs/libdrv.a(mdev_startup.o)
SSP0_IRQHandler                                   /home/zhouyongjian/wangshi/wmsdk_bundle-3.1.16/bin/wmsdk/libs/libdrv.a(mdev_startup.o)
SSP1_IRQHandler                                   /home/zhouyongjian/wangshi/wmsdk_bundle-3.1.16/bin/wmsdk/libs/libdrv.a(mdev_startup.o)
SSP2_IRQHandler                                   /home/zhouyongjian/wangshi/wmsdk_bundle-3.1.16/bin/wmsdk/libs/libdrv.a(mdev_startup.o)
SVC_IRQHandler                                    /home/zhouyongjian/wangshi/wmsdk_bundle-3.1.16/bin/wmsdk/libs/libfreertos.a(port.o)
                                                  /home/zhouyongjian/wangshi/wmsdk_bundle-3.1.16/bin/wmsdk/libs/libdrv.a(mdev_startup.o)
Save_AllData_Flash                                obj/electric_measure.o
SysTick_IRQHandler                                /home/zhouyongjian/wangshi/wmsdk_bundle-3.1.16/bin/wmsdk/libs/libfreertos.a(port.o)
                                                  /home/zhouyongjian/wangshi/wmsdk_bundle-3.1.16/bin/wmsdk/libs/libdrv.a(mdev_startup.o)
TIM1_UPD_Interrupt                                obj/C_HLW8012_debug.o
                                                  obj/electric_measure.o
Timing_cb                                         obj/electric_measure.o
U16_AC_I                                          obj/C_HLW8012_debug.o
                                                  obj/electric_measure.o
U16_AC_P                                          obj/C_HLW8012_debug.o
                                                  obj/electric_measure.o
U16_AC_V                                          obj/C_HLW8012_debug.o
                                                  obj/electric_measure.o
U16_Cal_Times                                     obj/C_HLW8012_debug.o
U16_E_Pluse_CNT                                   obj/C_HLW8012_debug.o
U16_I_CNT                                         obj/C_HLW8012_debug.o
                                                  obj/electric_measure.o
U16_I_Last_CNT                                    obj/C_HLW8012_debug.o
U16_I_Last_OneCycleTime                           obj/C_HLW8012_debug.o
U16_I_OneCycleTime                                obj/C_HLW8012_debug.o
                                                  obj/electric_measure.o
U16_I_REF_Data                                    obj/C_HLW8012_debug.o
                                                  obj/electric_measure.o
U16_I_TotalTimes                                  obj/C_HLW8012_debug.o
                                                  obj/electric_measure.o
U16_P_CNT                                         obj/C_HLW8012_debug.o
                                                  obj/electric_measure.o
U16_P_Last_CNT                                    obj/C_HLW8012_debug.o
U16_P_Last_OneCycleTime                           obj/C_HLW8012_debug.o
U16_P_OneCycleTime                                obj/C_HLW8012_debug.o
                                                  obj/electric_measure.o
U16_P_REF_Data                                    obj/C_HLW8012_debug.o
                                                  obj/electric_measure.o
U16_P_TotalTimes                                  obj/C_HLW8012_debug.o
                                                  obj/electric_measure.o
U16_REF_001_E_Pluse_CNT                           obj/C_HLW8012_debug.o
                                                  obj/electric_measure.o
U16_VI_Test_Times                                 obj/C_HLW8012_debug.o
                                                  obj/electric_measure.o
U16_V_CNT                                         obj/C_HLW8012_debug.o
                                                  obj/electric_measure.o
U16_V_Last_CNT                                    obj/C_HLW8012_debug.o
U16_V_Last_OneCycleTime                           obj/C_HLW8012_debug.o
U16_V_OneCycleTime                                obj/C_HLW8012_debug.o
                                                  obj/electric_measure.o
U16_V_REF_Data                                    obj/C_HLW8012_debug.o
                                                  obj/electric_measure.o
U16_V_TotalTimes                                  obj/C_HLW8012_debug.o
                                                  obj/electric_measure.o
U32_AC_BACKUP_E                                   obj/C_HLW8012_debug.o
                                                  obj/electric_measure.o
U32_AC_E                                          obj/C_HLW8012_debug.o
                                                  obj/electric_measure.o
U32_AC_SAVE_E                                     obj/C_HLW8012_debug.o
                                                  obj/electric_measure.o
U32_Cal_Times                                     obj/C_HLW8012_debug.o
                                                  obj/electric_measure.o
U32_I_CURRENT_PLUSEWIDTH_TIME                     obj/C_HLW8012_debug.o
U32_I_REF_PLUSEWIDTH_TIME                         obj/C_HLW8012_debug.o
                                                  obj/electric_measure.o
U32_P_CURRENT_PLUSEWIDTH_TIME                     obj/C_HLW8012_debug.o
U32_P_REF_PLUSEWIDTH_TIME                         obj/C_HLW8012_debug.o
                                                  obj/electric_measure.o
U32_SaveTimes                                     obj/C_HLW8012_debug.o
U32_V_CURRENT_PLUSEWIDTH_TIME                     obj/C_HLW8012_debug.o
U32_V_REF_PLUSEWIDTH_TIME                         obj/C_HLW8012_debug.o
                                                  obj/electric_measure.o
U8_AC_COS                                         obj/C_HLW8012_debug.o
U8_CURR_WorkMode                                  obj/C_HLW8012_debug.o
                                                  obj/electric_measure.o
UART0_IRQHandler                                  /home/zhouyongjian/wangshi/wmsdk_bundle-3.1.16/bin/wmsdk/libs/libdrv.a(mw300_uart.o)
                                                  /home/zhouyongjian/wangshi/wmsdk_bundle-3.1.16/bin/wmsdk/libs/libdrv.a(mdev_startup.o)
UART1_IRQHandler                                  /home/zhouyongjian/wangshi/wmsdk_bundle-3.1.16/bin/wmsdk/libs/libdrv.a(mw300_uart.o)
                                                  /home/zhouyongjian/wangshi/wmsdk_bundle-3.1.16/bin/wmsdk/libs/libdrv.a(mdev_startup.o)
UART2_IRQHandler                                  /home/zhouyongjian/wangshi/wmsdk_bundle-3.1.16/bin/wmsdk/libs/libdrv.a(mw300_uart.o)
                                                  /home/zhouyongjian/wangshi/wmsdk_bundle-3.1.16/bin/wmsdk/libs/libdrv.a(mdev_startup.o)
UART_BaudConfig                                   /home/zhouyongjian/wangshi/wmsdk_bundle-3.1.16/bin/wmsdk/libs/libdrv.a(mw300_uart.o)
UART_Disable                                      /home/zhouyongjian/wangshi/wmsdk_bundle-3.1.16/bin/wmsdk/libs/libdrv.a(mw300_uart.o)
                                                  /home/zhouyongjian/wangshi/wmsdk_bundle-3.1.16/bin/wmsdk/libs/libdrv.a(mdev_uart.o)
UART_DmaCmd                                       /home/zhouyongjian/wangshi/wmsdk_bundle-3.1.16/bin/wmsdk/libs/libdrv.a(mw300_uart.o)
                                                  /home/zhouyongjian/wangshi/wmsdk_bundle-3.1.16/bin/wmsdk/libs/libdrv.a(mdev_uart.o)
UART_Enable                                       /home/zhouyongjian/wangshi/wmsdk_bundle-3.1.16/bin/wmsdk/libs/libdrv.a(mw300_uart.o)
                                                  /home/zhouyongjian/wangshi/wmsdk_bundle-3.1.16/bin/wmsdk/libs/libdrv.a(mdev_uart.o)
UART_FifoConfig                                   /home/zhouyongjian/wangshi/wmsdk_bundle-3.1.16/bin/wmsdk/libs/libdrv.a(mw300_uart.o)
                                                  /home/zhouyongjian/wangshi/wmsdk_bundle-3.1.16/bin/wmsdk/libs/libdrv.a(mdev_uart.o)
UART_GetAutoBaudCount                             /home/zhouyongjian/wangshi/wmsdk_bundle-3.1.16/bin/wmsdk/libs/libdrv.a(mw300_uart.o)
UART_GetLineStatus                                /home/zhouyongjian/wangshi/wmsdk_bundle-3.1.16/bin/wmsdk/libs/libdrv.a(mw300_uart.o)
                                                  /home/zhouyongjian/wangshi/wmsdk_bundle-3.1.16/bin/wmsdk/libs/libdrv.a(mdev_uart.o)
UART_GetModemStatus                               /home/zhouyongjian/wangshi/wmsdk_bundle-3.1.16/bin/wmsdk/libs/libdrv.a(mw300_uart.o)
UART_GetRxFIFOLevel                               /home/zhouyongjian/wangshi/wmsdk_bundle-3.1.16/bin/wmsdk/libs/libdrv.a(mw300_uart.o)
UART_Init                                         /home/zhouyongjian/wangshi/wmsdk_bundle-3.1.16/bin/wmsdk/libs/libdrv.a(mw300_uart.o)
                                                  /home/zhouyongjian/wangshi/wmsdk_bundle-3.1.16/bin/wmsdk/libs/libdrv.a(mdev_uart.o)
UART_IntHandler                                   /home/zhouyongjian/wangshi/wmsdk_bundle-3.1.16/bin/wmsdk/libs/libdrv.a(mw300_uart.o)
UART_IntMask                                      /home/zhouyongjian/wangshi/wmsdk_bundle-3.1.16/bin/wmsdk/libs/libdrv.a(mw300_uart.o)
                                                  /home/zhouyongjian/wangshi/wmsdk_bundle-3.1.16/bin/wmsdk/libs/libdrv.a(mdev_uart.o)
UART_IrConfig                                     /home/zhouyongjian/wangshi/wmsdk_bundle-3.1.16/bin/wmsdk/libs/libdrv.a(mw300_uart.o)
UART_RTS_Assert                                   /home/zhouyongjian/wangshi/wmsdk_bundle-3.1.16/bin/wmsdk/libs/libdrv.a(mw300_uart.o)
UART_RTS_Deassert                                 /home/zhouyongjian/wangshi/wmsdk_bundle-3.1.16/bin/wmsdk/libs/libdrv.a(mw300_uart.o)
UART_Receive9bits                                 /home/zhouyongjian/wangshi/wmsdk_bundle-3.1.16/bin/wmsdk/libs/libdrv.a(mw300_uart.o)
                                                  /home/zhouyongjian/wangshi/wmsdk_bundle-3.1.16/bin/wmsdk/libs/libdrv.a(mdev_uart.o)
UART_ReceiveData                                  /home/zhouyongjian/wangshi/wmsdk_bundle-3.1.16/bin/wmsdk/libs/libdrv.a(mw300_uart.o)
                                                  /home/zhouyongjian/wangshi/wmsdk_bundle-3.1.16/bin/wmsdk/libs/libdrv.a(mdev_uart.o)
UART_Send9bits                                    /home/zhouyongjian/wangshi/wmsdk_bundle-3.1.16/bin/wmsdk/libs/libdrv.a(mw300_uart.o)
                                                  /home/zhouyongjian/wangshi/wmsdk_bundle-3.1.16/bin/wmsdk/libs/libdrv.a(mdev_uart.o)
UART_SendData                                     /home/zhouyongjian/wangshi/wmsdk_bundle-3.1.16/bin/wmsdk/libs/libdrv.a(mw300_uart.o)
                                                  /home/zhouyongjian/wangshi/wmsdk_bundle-3.1.16/bin/wmsdk/libs/libdrv.a(mdev_uart.o)
UART_SetAutoBaudDL                                /home/zhouyongjian/wangshi/wmsdk_bundle-3.1.16/bin/wmsdk/libs/libdrv.a(mw300_uart.o)
UART_SetBreakCmd                                  /home/zhouyongjian/wangshi/wmsdk_bundle-3.1.16/bin/wmsdk/libs/libdrv.a(mw300_uart.o)
UART_SetDTRSignal                                 /home/zhouyongjian/wangshi/wmsdk_bundle-3.1.16/bin/wmsdk/libs/libdrv.a(mw300_uart.o)
UART_SetLoopBackMode                              /home/zhouyongjian/wangshi/wmsdk_bundle-3.1.16/bin/wmsdk/libs/libdrv.a(mw300_uart.o)
UART_SetOut1Signal                                /home/zhouyongjian/wangshi/wmsdk_bundle-3.1.16/bin/wmsdk/libs/libdrv.a(mw300_uart.o)
UART_SetOut2Signal                                /home/zhouyongjian/wangshi/wmsdk_bundle-3.1.16/bin/wmsdk/libs/libdrv.a(mw300_uart.o)
UART_SetStopBits                                  /home/zhouyongjian/wangshi/wmsdk_bundle-3.1.16/bin/wmsdk/libs/libdrv.a(mw300_uart.o)
                                                  /home/zhouyongjian/wangshi/wmsdk_bundle-3.1.16/bin/wmsdk/libs/libdrv.a(mdev_uart.o)
UART_WriteLine                                    /home/zhouyongjian/wangshi/wmsdk_bundle-3.1.16/bin/wmsdk/libs/libdrv.a(mw300_uart.o)
                                                  /home/zhouyongjian/wangshi/wmsdk_bundle-3.1.16/bin/wmsdk/libs/libwmstdio.a(wmstdio.o)
ULPCOMP_IRQHandler                                /home/zhouyongjian/wangshi/wmsdk_bundle-3.1.16/bin/wmsdk/libs/libdrv.a(mdev_startup.o)
USB_IRQHandler                                    /home/zhouyongjian/wangshi/wmsdk_bundle-3.1.16/bin/wmsdk/libs/libdrv.a(mdev_startup.o)
UsageFault_IRQHandler                             /home/zhouyongjian/wangshi/wmsdk_bundle-3.1.16/bin/wmsdk/libs/libdrv.a(mdev_startup.o)
WDT_IRQHandler                                    /home/zhouyongjian/wangshi/wmsdk_bundle-3.1.16/bin/wmsdk/libs/libdrv.a(mdev_startup.o)
WIFIWKUP_IRQHandler                               /home/zhouyongjian/wangshi/wmsdk_bundle-3.1.16/bin/wmsdk/libs/libdrv.a(mw300_pmu.o)
                                                  /home/zhouyongjian/wangshi/wmsdk_bundle-3.1.16/bin/wmsdk/libs/libdrv.a(mdev_startup.o)
__adddf3                                          /home/zhouyongjian/Intelligent_AC_Infrared/gcc-arm-none-eabi-4_8-2014q2/bin/../lib/gcc/arm-none-eabi/4.8.4/armv7e-m/libgcc.a(_arm_addsubdf3.o)
__aeabi_d2iz                                      /home/zhouyongjian/Intelligent_AC_Infrared/gcc-arm-none-eabi-4_8-2014q2/bin/../lib/gcc/arm-none-eabi/4.8.4/armv7e-m/libgcc.a(_arm_fixdfsi.o)
                                                  /home/zhouyongjian/wangshi/wmsdk_bundle-3.1.16/bin/wmsdk/libs/libdrv.a(mdev_startup.o)
__aeabi_dadd                                      /home/zhouyongjian/Intelligent_AC_Infrared/gcc-arm-none-eabi-4_8-2014q2/bin/../lib/gcc/arm-none-eabi/4.8.4/armv7e-m/libgcc.a(_arm_addsubdf3.o)
                                                  /home/zhouyongjian/wangshi/wmsdk_bundle-3.1.16/bin/wmsdk/libs/libdrv.a(mdev_startup.o)
__aeabi_ddiv                                      /home/zhouyongjian/Intelligent_AC_Infrared/gcc-arm-none-eabi-4_8-2014q2/bin/../lib/gcc/arm-none-eabi/4.8.4/armv7e-m/libgcc.a(_arm_muldivdf3.o)
                                                  /home/zhouyongjian/wangshi/wmsdk_bundle-3.1.16/bin/wmsdk/libs/libdrv.a(mdev_startup.o)
__aeabi_dmul                                      /home/zhouyongjian/Intelligent_AC_Infrared/gcc-arm-none-eabi-4_8-2014q2/bin/../lib/gcc/arm-none-eabi/4.8.4/armv7e-m/libgcc.a(_arm_muldivdf3.o)
__aeabi_drsub                                     /home/zhouyongjian/Intelligent_AC_Infrared/gcc-arm-none-eabi-4_8-2014q2/bin/../lib/gcc/arm-none-eabi/4.8.4/armv7e-m/libgcc.a(_arm_addsubdf3.o)
__aeabi_dsub                                      /home/zhouyongjian/Intelligent_AC_Infrared/gcc-arm-none-eabi-4_8-2014q2/bin/../lib/gcc/arm-none-eabi/4.8.4/armv7e-m/libgcc.a(_arm_addsubdf3.o)
__aeabi_f2d                                       /home/zhouyongjian/Intelligent_AC_Infrared/gcc-arm-none-eabi-4_8-2014q2/bin/../lib/gcc/arm-none-eabi/4.8.4/armv7e-m/libgcc.a(_arm_addsubdf3.o)
__aeabi_i2d                                       /home/zhouyongjian/Intelligent_AC_Infrared/gcc-arm-none-eabi-4_8-2014q2/bin/../lib/gcc/arm-none-eabi/4.8.4/armv7e-m/libgcc.a(_arm_addsubdf3.o)
                                                  /home/zhouyongjian/wangshi/wmsdk_bundle-3.1.16/bin/wmsdk/libs/libdrv.a(mdev_startup.o)
__aeabi_idiv0                                     /home/zhouyongjian/Intelligent_AC_Infrared/gcc-arm-none-eabi-4_8-2014q2/bin/../lib/gcc/arm-none-eabi/4.8.4/armv7e-m/libgcc.a(_dvmd_tls.o)
__aeabi_l2d                                       /home/zhouyongjian/Intelligent_AC_Infrared/gcc-arm-none-eabi-4_8-2014q2/bin/../lib/gcc/arm-none-eabi/4.8.4/armv7e-m/libgcc.a(_arm_addsubdf3.o)
__aeabi_ldiv0                                     /home/zhouyongjian/Intelligent_AC_Infrared/gcc-arm-none-eabi-4_8-2014q2/bin/../lib/gcc/arm-none-eabi/4.8.4/armv7e-m/libgcc.a(_dvmd_tls.o)
                                                  /home/zhouyongjian/Intelligent_AC_Infrared/gcc-arm-none-eabi-4_8-2014q2/bin/../lib/gcc/arm-none-eabi/4.8.4/armv7e-m/libgcc.a(_aeabi_uldivmod.o)
__aeabi_ui2d                                      /home/zhouyongjian/Intelligent_AC_Infrared/gcc-arm-none-eabi-4_8-2014q2/bin/../lib/gcc/arm-none-eabi/4.8.4/armv7e-m/libgcc.a(_arm_addsubdf3.o)
__aeabi_ul2d                                      /home/zhouyongjian/Intelligent_AC_Infrared/gcc-arm-none-eabi-4_8-2014q2/bin/../lib/gcc/arm-none-eabi/4.8.4/armv7e-m/libgcc.a(_arm_addsubdf3.o)
__aeabi_uldivmod                                  /home/zhouyongjian/Intelligent_AC_Infrared/gcc-arm-none-eabi-4_8-2014q2/bin/../lib/gcc/arm-none-eabi/4.8.4/armv7e-m/libgcc.a(_aeabi_uldivmod.o)
                                                  /home/zhouyongjian/wangshi/wmsdk_bundle-3.1.16/bin/wmsdk/libs/libc.a(vsnprintf.o)
                                                  /home/zhouyongjian/wangshi/wmsdk_bundle-3.1.16/bin/wmsdk/libs/libdrv.a(mw300_clock.o)
__console_wmprintf                                /home/zhouyongjian/wangshi/wmsdk_bundle-3.1.16/bin/wmsdk/libs/libwmstdio.a(wmstdio.o)
__ctypes                                          /home/zhouyongjian/wangshi/wmsdk_bundle-3.1.16/bin/wmsdk/libs/libc.a(ctypes.o)
                                                  /home/zhouyongjian/wangshi/wmsdk_bundle-3.1.16/bin/wmsdk/libs/libc.a(strcasecmp.o)
                                                  /home/zhouyongjian/wangshi/wmsdk_bundle-3.1.16/bin/wmsdk/libs/libcli.a(cli.o)
                                                  /home/zhouyongjian/wangshi/wmsdk_bundle-3.1.16/bin/wmsdk/libs/libc.a(strntoumax.o)
                                                  /home/zhouyongjian/wangshi/wmsdk_bundle-3.1.16/bin/wmsdk/libs/libc.a(vsscanf.o)
__divdf3                                          /home/zhouyongjian/Intelligent_AC_Infrared/gcc-arm-none-eabi-4_8-2014q2/bin/../lib/gcc/arm-none-eabi/4.8.4/armv7e-m/libgcc.a(_arm_muldivdf3.o)
__divdi3                                          /home/zhouyongjian/Intelligent_AC_Infrared/gcc-arm-none-eabi-4_8-2014q2/bin/../lib/gcc/arm-none-eabi/4.8.4/armv7e-m/libgcc.a(_divdi3.o)
                                                  /home/zhouyongjian/Intelligent_AC_Infrared/gcc-arm-none-eabi-4_8-2014q2/bin/../lib/gcc/arm-none-eabi/4.8.4/armv7e-m/libgcc.a(bpabi.o)
__extendsfdf2                                     /home/zhouyongjian/Intelligent_AC_Infrared/gcc-arm-none-eabi-4_8-2014q2/bin/../lib/gcc/arm-none-eabi/4.8.4/armv7e-m/libgcc.a(_arm_addsubdf3.o)
__fixdfsi                                         /home/zhouyongjian/Intelligent_AC_Infrared/gcc-arm-none-eabi-4_8-2014q2/bin/../lib/gcc/arm-none-eabi/4.8.4/armv7e-m/libgcc.a(_arm_fixdfsi.o)
__floatdidf                                       /home/zhouyongjian/Intelligent_AC_Infrared/gcc-arm-none-eabi-4_8-2014q2/bin/../lib/gcc/arm-none-eabi/4.8.4/armv7e-m/libgcc.a(_arm_addsubdf3.o)
__floatsidf                                       /home/zhouyongjian/Intelligent_AC_Infrared/gcc-arm-none-eabi-4_8-2014q2/bin/../lib/gcc/arm-none-eabi/4.8.4/armv7e-m/libgcc.a(_arm_addsubdf3.o)
__floatundidf                                     /home/zhouyongjian/Intelligent_AC_Infrared/gcc-arm-none-eabi-4_8-2014q2/bin/../lib/gcc/arm-none-eabi/4.8.4/armv7e-m/libgcc.a(_arm_addsubdf3.o)
__floatunsidf                                     /home/zhouyongjian/Intelligent_AC_Infrared/gcc-arm-none-eabi-4_8-2014q2/bin/../lib/gcc/arm-none-eabi/4.8.4/armv7e-m/libgcc.a(_arm_addsubdf3.o)
__gnu_ldivmod_helper                              /home/zhouyongjian/Intelligent_AC_Infrared/gcc-arm-none-eabi-4_8-2014q2/bin/../lib/gcc/arm-none-eabi/4.8.4/armv7e-m/libgcc.a(bpabi.o)
__gnu_uldivmod_helper                             /home/zhouyongjian/Intelligent_AC_Infrared/gcc-arm-none-eabi-4_8-2014q2/bin/../lib/gcc/arm-none-eabi/4.8.4/armv7e-m/libgcc.a(bpabi.o)
                                                  /home/zhouyongjian/Intelligent_AC_Infrared/gcc-arm-none-eabi-4_8-2014q2/bin/../lib/gcc/arm-none-eabi/4.8.4/armv7e-m/libgcc.a(_aeabi_uldivmod.o)
__muldf3                                          /home/zhouyongjian/Intelligent_AC_Infrared/gcc-arm-none-eabi-4_8-2014q2/bin/../lib/gcc/arm-none-eabi/4.8.4/armv7e-m/libgcc.a(_arm_muldivdf3.o)
__strxspn                                         /home/zhouyongjian/wangshi/wmsdk_bundle-3.1.16/bin/wmsdk/libs/libc.a(strxspn.o)
                                                  /home/zhouyongjian/wangshi/wmsdk_bundle-3.1.16/bin/wmsdk/libs/libc.a(strpbrk.o)
__subdf3                                          /home/zhouyongjian/Intelligent_AC_Infrared/gcc-arm-none-eabi-4_8-2014q2/bin/../lib/gcc/arm-none-eabi/4.8.4/armv7e-m/libgcc.a(_arm_addsubdf3.o)
__udivdi3                                         /home/zhouyongjian/Intelligent_AC_Infrared/gcc-arm-none-eabi-4_8-2014q2/bin/../lib/gcc/arm-none-eabi/4.8.4/armv7e-m/libgcc.a(_udivdi3.o)
                                                  /home/zhouyongjian/Intelligent_AC_Infrared/gcc-arm-none-eabi-4_8-2014q2/bin/../lib/gcc/arm-none-eabi/4.8.4/armv7e-m/libgcc.a(bpabi.o)
__vector_table                                    /home/zhouyongjian/wangshi/wmsdk_bundle-3.1.16/bin/wmsdk/libs/libdrv.a(mdev_startup.o)
_bss                                              /home/zhouyongjian/wangshi/wmsdk_bundle-3.1.16/bin/wmsdk/libs/libdrv.a(mdev_startup.o)
_ebss                                             /home/zhouyongjian/wangshi/wmsdk_bundle-3.1.16/bin/wmsdk/libs/libdrv.a(mdev_startup.o)
_estack                                           /home/zhouyongjian/wangshi/wmsdk_bundle-3.1.16/bin/wmsdk/libs/libdrv.a(mdev_startup.o)
_flashc_mem_start                                 /home/zhouyongjian/wangshi/wmsdk_bundle-3.1.16/bin/wmsdk/libs/libdrv.a(mdev_iflash.o)
_heap_end                                         /home/zhouyongjian/wangshi/wmsdk_bundle-3.1.16/bin/wmsdk/libs/libfreertos.a(heap_4.o)
_heap_start                                       /home/zhouyongjian/wangshi/wmsdk_bundle-3.1.16/bin/wmsdk/libs/libfreertos.a(heap_4.o)
_nvram_begin                                      /home/zhouyongjian/wangshi/wmsdk_bundle-3.1.16/bin/wmsdk/libs/libdrv.a(mdev_startup.o)
_nvram_end                                        /home/zhouyongjian/wangshi/wmsdk_bundle-3.1.16/bin/wmsdk/libs/libdrv.a(mdev_startup.o)
_nvram_start                                      /home/zhouyongjian/wangshi/wmsdk_bundle-3.1.16/bin/wmsdk/libs/libdrv.a(mdev_pm.o)
_os_delay                                         /home/zhouyongjian/wangshi/wmsdk_bundle-3.1.16/bin/wmsdk/libs/libos.a(os.o)
                                                  obj/board.o
                                                  /home/zhouyongjian/wangshi/wmsdk_bundle-3.1.16/bin/wmsdk/libs/libdrv.a(mdev_rtc.o)
                                                  /home/zhouyongjian/wangshi/wmsdk_bundle-3.1.16/bin/wmsdk/libs/libdrv.a(mdev_pm.o)
acompIntCb                                        /home/zhouyongjian/wangshi/wmsdk_bundle-3.1.16/bin/wmsdk/libs/libdrv.a(mw300_driver.o)
adc0IntCb                                         /home/zhouyongjian/wangshi/wmsdk_bundle-3.1.16/bin/wmsdk/libs/libdrv.a(mw300_driver.o)
aesIntCb                                          /home/zhouyongjian/wangshi/wmsdk_bundle-3.1.16/bin/wmsdk/libs/libdrv.a(mw300_driver.o)
alloc                                             /home/zhouyongjian/wangshi/wmsdk_bundle-3.1.16/bin/wmsdk/libs/libcli.a(cli_mem_simple.o)
app_start                                         /home/zhouyongjian/wangshi/wmsdk_bundle-3.1.16/bin/wmsdk/libs/libos.a(os.o)
arch_pm_init                                      /home/zhouyongjian/wangshi/wmsdk_bundle-3.1.16/bin/wmsdk/libs/libdrv.a(mdev_pm.o)
                                                  /home/zhouyongjian/wangshi/wmsdk_bundle-3.1.16/bin/wmsdk/libs/libpwrmgr.a(pwrmgr.o)
arch_reboot                                       /home/zhouyongjian/wangshi/wmsdk_bundle-3.1.16/bin/wmsdk/libs/libdrv.a(mdev_pm.o)
                                                  /home/zhouyongjian/wangshi/wmsdk_bundle-3.1.16/bin/wmsdk/libs/libpwrmgr.a(pwrmgr.o)
asm_mcu_pm3                                       /home/zhouyongjian/wangshi/wmsdk_bundle-3.1.16/bin/wmsdk/libs/libdrv.a(mdev_pm.o)
atoi                                              /home/zhouyongjian/wangshi/wmsdk_bundle-3.1.16/bin/wmsdk/libs/libc.a(atoi.o)
                                                  /home/zhouyongjian/wangshi/wmsdk_bundle-3.1.16/bin/wmsdk/libs/libpwrmgr.a(pwrmgr.o)
board_32k_osc                                     obj/board.o
                                                  /home/zhouyongjian/wangshi/wmsdk_bundle-3.1.16/bin/wmsdk/libs/libdrv.a(mdev_rtc.o)
board_32k_xtal                                    obj/board.o
                                                  /home/zhouyongjian/wangshi/wmsdk_bundle-3.1.16/bin/wmsdk/libs/libdrv.a(mdev_rtc.o)
board_button_1                                    obj/board.o
board_button_2                                    obj/board.o
board_button_3                                    obj/board.o
board_button_pressed                              obj/board.o
board_console_uart_id                             obj/board.o
board_cpu_freq                                    obj/board.o
                                                  /home/zhouyongjian/wangshi/wmsdk_bundle-3.1.16/bin/wmsdk/libs/libos.a(os.o)
                                                  /home/zhouyongjian/wangshi/wmsdk_bundle-3.1.16/bin/wmsdk/libs/libfreertos.a(port.o)
                                                  /home/zhouyongjian/wangshi/wmsdk_bundle-3.1.16/bin/wmsdk/libs/libdrv.a(mdev_startup.o)
board_gpio_power_on                               obj/board.o
                                                  /home/zhouyongjian/wangshi/wmsdk_bundle-3.1.16/bin/wmsdk/libs/libdrv.a(mdev_startup.o)
board_i2c_pin_config                              obj/board.o
board_led_1                                       obj/board.o
board_led_2                                       obj/board.o
board_led_3                                       obj/board.o
board_led_4                                       obj/board.o
board_led_off                                     obj/board.o
board_led_on                                      obj/board.o
board_main_osc                                    obj/board.o
board_main_xtal                                   obj/board.o
                                                  /home/zhouyongjian/wangshi/wmsdk_bundle-3.1.16/bin/wmsdk/libs/libdrv.a(mdev_startup.o)
board_rc32k_calib                                 obj/board.o
                                                  /home/zhouyongjian/wangshi/wmsdk_bundle-3.1.16/bin/wmsdk/libs/libdrv.a(mdev_rtc.o)
board_sdio_pdn                                    obj/board.o
board_sdio_pdn_support                            obj/board.o
board_sdio_pwr                                    obj/board.o
board_sdio_reset                                  obj/board.o
board_ssp_pin_config                              obj/board.o
board_supports_5GHz                               obj/board.o
board_uart_pin_config                             obj/board.o
                                                  /home/zhouyongjian/wangshi/wmsdk_bundle-3.1.16/bin/wmsdk/libs/libdrv.a(mdev_uart.o)
board_usb_pin_config                              obj/board.o
board_wakeup0_functional                          obj/board.o
                                                  /home/zhouyongjian/wangshi/wmsdk_bundle-3.1.16/bin/wmsdk/libs/libdrv.a(mdev_pm.o)
board_wakeup1_functional                          obj/board.o
                                                  /home/zhouyongjian/wangshi/wmsdk_bundle-3.1.16/bin/wmsdk/libs/libdrv.a(mdev_pm.o)
board_wifi_host_wakeup                            obj/board.o
boot_init                                         /home/zhouyongjian/wangshi/wmsdk_bundle-3.1.16/bin/wmsdk/libs/libutil.a(boot_flags.o)
                                                  /home/zhouyongjian/wangshi/wmsdk_bundle-3.1.16/bin/wmsdk/libs/libdrv.a(mdev_startup.o)
boot_report_flags                                 /home/zhouyongjian/wangshi/wmsdk_bundle-3.1.16/bin/wmsdk/libs/libutil.a(boot_flags.o)
buff1                                             /home/zhouyongjian/wangshi/wmsdk_bundle-3.1.16/bin/wmsdk/libs/libcli.a(cli_mem_simple.o)
buff2                                             /home/zhouyongjian/wangshi/wmsdk_bundle-3.1.16/bin/wmsdk/libs/libcli.a(cli_mem_simple.o)
c_stdio_funcs                                     /home/zhouyongjian/wangshi/wmsdk_bundle-3.1.16/bin/wmsdk/libs/libwmstdio.a(wmstdio.o)
                                                  /home/zhouyongjian/wangshi/wmsdk_bundle-3.1.16/bin/wmsdk/libs/libwmstdio.a(console.o)
cli_get_cmd_buffer                                /home/zhouyongjian/wangshi/wmsdk_bundle-3.1.16/bin/wmsdk/libs/libcli.a(cli.o)
cli_init                                          /home/zhouyongjian/wangshi/wmsdk_bundle-3.1.16/bin/wmsdk/libs/libcli.a(cli.o)
cli_install_UART_Tick                             /home/zhouyongjian/wangshi/wmsdk_bundle-3.1.16/bin/wmsdk/libs/libcli.a(cli.o)
cli_mem_cleanup                                   /home/zhouyongjian/wangshi/wmsdk_bundle-3.1.16/bin/wmsdk/libs/libcli.a(cli_mem_simple.o)
                                                  /home/zhouyongjian/wangshi/wmsdk_bundle-3.1.16/bin/wmsdk/libs/libcli.a(cli.o)
cli_mem_free                                      /home/zhouyongjian/wangshi/wmsdk_bundle-3.1.16/bin/wmsdk/libs/libcli.a(cli_mem_simple.o)
                                                  /home/zhouyongjian/wangshi/wmsdk_bundle-3.1.16/bin/wmsdk/libs/libcli.a(cli.o)
cli_mem_init                                      /home/zhouyongjian/wangshi/wmsdk_bundle-3.1.16/bin/wmsdk/libs/libcli.a(cli_mem_simple.o)
                                                  /home/zhouyongjian/wangshi/wmsdk_bundle-3.1.16/bin/wmsdk/libs/libcli.a(cli.o)
cli_mem_malloc                                    /home/zhouyongjian/wangshi/wmsdk_bundle-3.1.16/bin/wmsdk/libs/libcli.a(cli_mem_simple.o)
                                                  /home/zhouyongjian/wangshi/wmsdk_bundle-3.1.16/bin/wmsdk/libs/libcli.a(cli.o)
cli_mutex                                         /home/zhouyongjian/wangshi/wmsdk_bundle-3.1.16/bin/wmsdk/libs/libcli.a(cli.o)
cli_register_command                              /home/zhouyongjian/wangshi/wmsdk_bundle-3.1.16/bin/wmsdk/libs/libcli.a(cli.o)
                                                  /home/zhouyongjian/wangshi/wmsdk_bundle-3.1.16/bin/wmsdk/libs/libpwrmgr.a(pwrmgr.o)
cli_register_commands                             /home/zhouyongjian/wangshi/wmsdk_bundle-3.1.16/bin/wmsdk/libs/libcli.a(cli.o)
cli_remove_UART_Tick                              /home/zhouyongjian/wangshi/wmsdk_bundle-3.1.16/bin/wmsdk/libs/libcli.a(cli.o)
cli_start                                         /home/zhouyongjian/wangshi/wmsdk_bundle-3.1.16/bin/wmsdk/libs/libcli.a(cli.o)
cli_stop                                          /home/zhouyongjian/wangshi/wmsdk_bundle-3.1.16/bin/wmsdk/libs/libcli.a(cli.o)
cli_submit_cmd_buffer                             /home/zhouyongjian/wangshi/wmsdk_bundle-3.1.16/bin/wmsdk/libs/libcli.a(cli.o)
cli_unregister_command                            /home/zhouyongjian/wangshi/wmsdk_bundle-3.1.16/bin/wmsdk/libs/libcli.a(cli.o)
cli_unregister_commands                           /home/zhouyongjian/wangshi/wmsdk_bundle-3.1.16/bin/wmsdk/libs/libcli.a(cli.o)
crcIntCb                                          /home/zhouyongjian/wangshi/wmsdk_bundle-3.1.16/bin/wmsdk/libs/libdrv.a(mw300_driver.o)
critical_error                                    /home/zhouyongjian/wangshi/wmsdk_bundle-3.1.16/bin/wmsdk/libs/libutil.a(critical_error.o)
                                                  /home/zhouyongjian/wangshi/wmsdk_bundle-3.1.16/bin/wmsdk/libs/libdrv.a(mdev_startup.o)
critical_error_msg                                /home/zhouyongjian/wangshi/wmsdk_bundle-3.1.16/bin/wmsdk/libs/libutil.a(critical_error.o)
dacIntCb                                          /home/zhouyongjian/wangshi/wmsdk_bundle-3.1.16/bin/wmsdk/libs/libdrv.a(mw300_driver.o)
dmaCh0IntCb                                       /home/zhouyongjian/wangshi/wmsdk_bundle-3.1.16/bin/wmsdk/libs/libdrv.a(mw300_driver.o)
dmaCh10IntCb                                      /home/zhouyongjian/wangshi/wmsdk_bundle-3.1.16/bin/wmsdk/libs/libdrv.a(mw300_driver.o)
dmaCh11IntCb                                      /home/zhouyongjian/wangshi/wmsdk_bundle-3.1.16/bin/wmsdk/libs/libdrv.a(mw300_driver.o)
dmaCh12IntCb                                      /home/zhouyongjian/wangshi/wmsdk_bundle-3.1.16/bin/wmsdk/libs/libdrv.a(mw300_driver.o)
dmaCh13IntCb                                      /home/zhouyongjian/wangshi/wmsdk_bundle-3.1.16/bin/wmsdk/libs/libdrv.a(mw300_driver.o)
dmaCh14IntCb                                      /home/zhouyongjian/wangshi/wmsdk_bundle-3.1.16/bin/wmsdk/libs/libdrv.a(mw300_driver.o)
dmaCh15IntCb                                      /home/zhouyongjian/wangshi/wmsdk_bundle-3.1.16/bin/wmsdk/libs/libdrv.a(mw300_driver.o)
dmaCh16IntCb                                      /home/zhouyongjian/wangshi/wmsdk_bundle-3.1.16/bin/wmsdk/libs/libdrv.a(mw300_driver.o)
dmaCh17IntCb                                      /home/zhouyongjian/wangshi/wmsdk_bundle-3.1.16/bin/wmsdk/libs/libdrv.a(mw300_driver.o)
dmaCh18IntCb                                      /home/zhouyongjian/wangshi/wmsdk_bundle-3.1.16/bin/wmsdk/libs/libdrv.a(mw300_driver.o)
dmaCh19IntCb                                      /home/zhouyongjian/wangshi/wmsdk_bundle-3.1.16/bin/wmsdk/libs/libdrv.a(mw300_driver.o)
dmaCh1IntCb                                       /home/zhouyongjian/wangshi/wmsdk_bundle-3.1.16/bin/wmsdk/libs/libdrv.a(mw300_driver.o)
dmaCh20IntCb                                      /home/zhouyongjian/wangshi/wmsdk_bundle-3.1.16/bin/wmsdk/libs/libdrv.a(mw300_driver.o)
dmaCh21IntCb                                      /home/zhouyongjian/wangshi/wmsdk_bundle-3.1.16/bin/wmsdk/libs/libdrv.a(mw300_driver.o)
dmaCh22IntCb                                      /home/zhouyongjian/wangshi/wmsdk_bundle-3.1.16/bin/wmsdk/libs/libdrv.a(mw300_driver.o)
dmaCh23IntCb                                      /home/zhouyongjian/wangshi/wmsdk_bundle-3.1.16/bin/wmsdk/libs/libdrv.a(mw300_driver.o)
dmaCh24IntCb                                      /home/zhouyongjian/wangshi/wmsdk_bundle-3.1.16/bin/wmsdk/libs/libdrv.a(mw300_driver.o)
dmaCh25IntCb                                      /home/zhouyongjian/wangshi/wmsdk_bundle-3.1.16/bin/wmsdk/libs/libdrv.a(mw300_driver.o)
dmaCh26IntCb                                      /home/zhouyongjian/wangshi/wmsdk_bundle-3.1.16/bin/wmsdk/libs/libdrv.a(mw300_driver.o)
dmaCh27IntCb                                      /home/zhouyongjian/wangshi/wmsdk_bundle-3.1.16/bin/wmsdk/libs/libdrv.a(mw300_driver.o)
dmaCh28IntCb                                      /home/zhouyongjian/wangshi/wmsdk_bundle-3.1.16/bin/wmsdk/libs/libdrv.a(mw300_driver.o)
dmaCh29IntCb                                      /home/zhouyongjian/wangshi/wmsdk_bundle-3.1.16/bin/wmsdk/libs/libdrv.a(mw300_driver.o)
dmaCh2IntCb                                       /home/zhouyongjian/wangshi/wmsdk_bundle-3.1.16/bin/wmsdk/libs/libdrv.a(mw300_driver.o)
dmaCh30IntCb                                      /home/zhouyongjian/wangshi/wmsdk_bundle-3.1.16/bin/wmsdk/libs/libdrv.a(mw300_driver.o)
dmaCh31IntCb                                      /home/zhouyongjian/wangshi/wmsdk_bundle-3.1.16/bin/wmsdk/libs/libdrv.a(mw300_driver.o)
dmaCh3IntCb                                       /home/zhouyongjian/wangshi/wmsdk_bundle-3.1.16/bin/wmsdk/libs/libdrv.a(mw300_driver.o)
dmaCh4IntCb                                       /home/zhouyongjian/wangshi/wmsdk_bundle-3.1.16/bin/wmsdk/libs/libdrv.a(mw300_driver.o)
dmaCh5IntCb                                       /home/zhouyongjian/wangshi/wmsdk_bundle-3.1.16/bin/wmsdk/libs/libdrv.a(mw300_driver.o)
dmaCh6IntCb                                       /home/zhouyongjian/wangshi/wmsdk_bundle-3.1.16/bin/wmsdk/libs/libdrv.a(mw300_driver.o)
dmaCh7IntCb                                       /home/zhouyongjian/wangshi/wmsdk_bundle-3.1.16/bin/wmsdk/libs/libdrv.a(mw300_driver.o)
dmaCh8IntCb                                       /home/zhouyongjian/wangshi/wmsdk_bundle-3.1.16/bin/wmsdk/libs/libdrv.a(mw300_driver.o)
dmaCh9IntCb                                       /home/zhouyongjian/wangshi/wmsdk_bundle-3.1.16/bin/wmsdk/libs/libdrv.a(mw300_driver.o)
dma_drv_close                                     /home/zhouyongjian/wangshi/wmsdk_bundle-3.1.16/bin/wmsdk/libs/libdrv.a(mdev_dma.o)
                                                  /home/zhouyongjian/wangshi/wmsdk_bundle-3.1.16/bin/wmsdk/libs/libdrv.a(mdev_uart.o)
dma_drv_deinit                                    /home/zhouyongjian/wangshi/wmsdk_bundle-3.1.16/bin/wmsdk/libs/libdrv.a(mdev_dma.o)
dma_drv_init                                      /home/zhouyongjian/wangshi/wmsdk_bundle-3.1.16/bin/wmsdk/libs/libdrv.a(mdev_dma.o)
                                                  /home/zhouyongjian/wangshi/wmsdk_bundle-3.1.16/bin/wmsdk/libs/libdrv.a(mdev_uart.o)
dma_drv_open                                      /home/zhouyongjian/wangshi/wmsdk_bundle-3.1.16/bin/wmsdk/libs/libdrv.a(mdev_dma.o)
                                                  /home/zhouyongjian/wangshi/wmsdk_bundle-3.1.16/bin/wmsdk/libs/libdrv.a(mdev_uart.o)
dma_drv_set_cb                                    /home/zhouyongjian/wangshi/wmsdk_bundle-3.1.16/bin/wmsdk/libs/libdrv.a(mdev_dma.o)
dma_drv_transfer                                  /home/zhouyongjian/wangshi/wmsdk_bundle-3.1.16/bin/wmsdk/libs/libdrv.a(mdev_dma.o)
                                                  /home/zhouyongjian/wangshi/wmsdk_bundle-3.1.16/bin/wmsdk/libs/libdrv.a(mdev_uart.o)
dma_drv_wait_for_transfer_complete                /home/zhouyongjian/wangshi/wmsdk_bundle-3.1.16/bin/wmsdk/libs/libdrv.a(mdev_dma.o)
                                                  /home/zhouyongjian/wangshi/wmsdk_bundle-3.1.16/bin/wmsdk/libs/libdrv.a(mdev_uart.o)
empty_funcs                                       /home/zhouyongjian/wangshi/wmsdk_bundle-3.1.16/bin/wmsdk/libs/libwmstdio.a(wmstdio.o)
extpin0IntCb                                      /home/zhouyongjian/wangshi/wmsdk_bundle-3.1.16/bin/wmsdk/libs/libdrv.a(mw300_driver.o)
extpin0_cb                                        /home/zhouyongjian/wangshi/wmsdk_bundle-3.1.16/bin/wmsdk/libs/libdrv.a(mdev_pm.o)
extpin1IntCb                                      /home/zhouyongjian/wangshi/wmsdk_bundle-3.1.16/bin/wmsdk/libs/libdrv.a(mw300_driver.o)
extpin1_cb                                        /home/zhouyongjian/wangshi/wmsdk_bundle-3.1.16/bin/wmsdk/libs/libdrv.a(mdev_pm.o)
fl_dev_list                                       /home/zhouyongjian/wangshi/wmsdk_bundle-3.1.16/bin/wmsdk/libs/libdrv.a(mw300_flash.o)
flash_drv_close                                   /home/zhouyongjian/wangshi/wmsdk_bundle-3.1.16/bin/wmsdk/libs/libutil.a(flash.o)
                                                  obj/electric_measure.o
flash_drv_erase                                   /home/zhouyongjian/wangshi/wmsdk_bundle-3.1.16/bin/wmsdk/libs/libutil.a(flash.o)
                                                  obj/electric_measure.o
flash_drv_eraseall                                /home/zhouyongjian/wangshi/wmsdk_bundle-3.1.16/bin/wmsdk/libs/libutil.a(flash.o)
flash_drv_get_id                                  /home/zhouyongjian/wangshi/wmsdk_bundle-3.1.16/bin/wmsdk/libs/libutil.a(flash.o)
flash_drv_init                                    /home/zhouyongjian/wangshi/wmsdk_bundle-3.1.16/bin/wmsdk/libs/libutil.a(flash.o)
                                                  obj/electric_measure.o
flash_drv_open                                    /home/zhouyongjian/wangshi/wmsdk_bundle-3.1.16/bin/wmsdk/libs/libutil.a(flash.o)
                                                  obj/electric_measure.o
flash_drv_read                                    /home/zhouyongjian/wangshi/wmsdk_bundle-3.1.16/bin/wmsdk/libs/libutil.a(flash.o)
                                                  obj/electric_measure.o
flash_drv_write                                   /home/zhouyongjian/wangshi/wmsdk_bundle-3.1.16/bin/wmsdk/libs/libutil.a(flash.o)
                                                  obj/electric_measure.o
g_boot_flags                                      /home/zhouyongjian/wangshi/wmsdk_bundle-3.1.16/bin/wmsdk/libs/libutil.a(boot_flags.o)
                                                  /home/zhouyongjian/wangshi/wmsdk_bundle-3.1.16/bin/wmsdk/libs/libcli.a(cli.o)
g_os_idle_hooks                                   /home/zhouyongjian/wangshi/wmsdk_bundle-3.1.16/bin/wmsdk/libs/libos.a(os.o)
                                                  /home/zhouyongjian/wangshi/wmsdk_bundle-3.1.16/bin/wmsdk/libs/libcli.a(cli.o)
                                                  /home/zhouyongjian/wangshi/wmsdk_bundle-3.1.16/bin/wmsdk/libs/libdrv.a(mdev_pm.o)
g_os_tick_hooks                                   /home/zhouyongjian/wangshi/wmsdk_bundle-3.1.16/bin/wmsdk/libs/libos.a(os.o)
g_prev_version_fw                                 /home/zhouyongjian/wangshi/wmsdk_bundle-3.1.16/bin/wmsdk/libs/libutil.a(boot_flags.o)
g_rst_cause                                       /home/zhouyongjian/wangshi/wmsdk_bundle-3.1.16/bin/wmsdk/libs/libutil.a(boot_flags.o)
g_sys_lock                                        /home/zhouyongjian/wangshi/wmsdk_bundle-3.1.16/bin/wmsdk/libs/libos.a(os.o)
                                                  /home/zhouyongjian/wangshi/wmsdk_bundle-3.1.16/bin/wmsdk/libs/libpwrmgr.a(pwrmgr.o)
get_current_taskname                              /home/zhouyongjian/wangshi/wmsdk_bundle-3.1.16/bin/wmsdk/libs/libfreertos.a(tasks.o)
                                                  /home/zhouyongjian/wangshi/wmsdk_bundle-3.1.16/bin/wmsdk/libs/libdrv.a(mdev_startup.o)
getheapAllocInfo                                  /home/zhouyongjian/wangshi/wmsdk_bundle-3.1.16/bin/wmsdk/libs/libfreertos.a(heap_4.o)
gpio_IV                                           obj/electric_measure.o
                                                  obj/C_HLW8012_debug.o
gpio_OUT                                          obj/electric_measure.o
gpio_P                                            obj/electric_measure.o
gpio_dev                                          obj/electric_measure.o
                                                  obj/C_HLW8012_debug.o
gpio_drv_close                                    /home/zhouyongjian/wangshi/wmsdk_bundle-3.1.16/bin/wmsdk/libs/libdrv.a(mdev_gpio.o)
gpio_drv_get_io_domain                            /home/zhouyongjian/wangshi/wmsdk_bundle-3.1.16/bin/wmsdk/libs/libdrv.a(mdev_gpio.o)
gpio_drv_init                                     /home/zhouyongjian/wangshi/wmsdk_bundle-3.1.16/bin/wmsdk/libs/libdrv.a(mdev_gpio.o)
                                                  obj/electric_measure.o
gpio_drv_open                                     /home/zhouyongjian/wangshi/wmsdk_bundle-3.1.16/bin/wmsdk/libs/libdrv.a(mdev_gpio.o)
                                                  obj/electric_measure.o
gpio_drv_read                                     /home/zhouyongjian/wangshi/wmsdk_bundle-3.1.16/bin/wmsdk/libs/libdrv.a(mdev_gpio.o)
gpio_drv_set_cb                                   /home/zhouyongjian/wangshi/wmsdk_bundle-3.1.16/bin/wmsdk/libs/libdrv.a(mdev_gpio.o)
                                                  obj/electric_measure.o
gpio_drv_setdir                                   /home/zhouyongjian/wangshi/wmsdk_bundle-3.1.16/bin/wmsdk/libs/libdrv.a(mdev_gpio.o)
                                                  obj/electric_measure.o
gpio_drv_write                                    /home/zhouyongjian/wangshi/wmsdk_bundle-3.1.16/bin/wmsdk/libs/libdrv.a(mdev_gpio.o)
                                                  obj/C_HLW8012_debug.o
                                                  obj/electric_measure.o
gpt0IntCb                                         /home/zhouyongjian/wangshi/wmsdk_bundle-3.1.16/bin/wmsdk/libs/libdrv.a(mw300_driver.o)
gpt1IntCb                                         /home/zhouyongjian/wangshi/wmsdk_bundle-3.1.16/bin/wmsdk/libs/libdrv.a(mw300_driver.o)
gpt2IntCb                                         /home/zhouyongjian/wangshi/wmsdk_bundle-3.1.16/bin/wmsdk/libs/libdrv.a(mw300_driver.o)
gpt3IntCb                                         /home/zhouyongjian/wangshi/wmsdk_bundle-3.1.16/bin/wmsdk/libs/libdrv.a(mw300_driver.o)
gpt_dev                                           obj/electric_measure.o
gpt_drv_close                                     /home/zhouyongjian/wangshi/wmsdk_bundle-3.1.16/bin/wmsdk/libs/libdrv.a(mdev_gpt.o)
                                                  /home/zhouyongjian/wangshi/wmsdk_bundle-3.1.16/bin/wmsdk/libs/libdrv.a(mdev_rtc.o)
gpt_drv_init                                      /home/zhouyongjian/wangshi/wmsdk_bundle-3.1.16/bin/wmsdk/libs/libdrv.a(mdev_gpt.o)
                                                  obj/electric_measure.o
                                                  /home/zhouyongjian/wangshi/wmsdk_bundle-3.1.16/bin/wmsdk/libs/libdrv.a(mdev_rtc.o)
gpt_drv_open                                      /home/zhouyongjian/wangshi/wmsdk_bundle-3.1.16/bin/wmsdk/libs/libdrv.a(mdev_gpt.o)
                                                  obj/electric_measure.o
                                                  /home/zhouyongjian/wangshi/wmsdk_bundle-3.1.16/bin/wmsdk/libs/libdrv.a(mdev_rtc.o)
gpt_drv_pwm                                       /home/zhouyongjian/wangshi/wmsdk_bundle-3.1.16/bin/wmsdk/libs/libdrv.a(mdev_gpt.o)
                                                  /home/zhouyongjian/wangshi/wmsdk_bundle-3.1.16/bin/wmsdk/libs/libdrv.a(mdev_rtc.o)
gpt_drv_set                                       /home/zhouyongjian/wangshi/wmsdk_bundle-3.1.16/bin/wmsdk/libs/libdrv.a(mdev_gpt.o)
                                                  obj/electric_measure.o
                                                  /home/zhouyongjian/wangshi/wmsdk_bundle-3.1.16/bin/wmsdk/libs/libdrv.a(mdev_rtc.o)
gpt_drv_setcb                                     /home/zhouyongjian/wangshi/wmsdk_bundle-3.1.16/bin/wmsdk/libs/libdrv.a(mdev_gpt.o)
                                                  obj/electric_measure.o
gpt_drv_start                                     /home/zhouyongjian/wangshi/wmsdk_bundle-3.1.16/bin/wmsdk/libs/libdrv.a(mdev_gpt.o)
                                                  obj/electric_measure.o
                                                  /home/zhouyongjian/wangshi/wmsdk_bundle-3.1.16/bin/wmsdk/libs/libdrv.a(mdev_rtc.o)
gpt_drv_stop                                      /home/zhouyongjian/wangshi/wmsdk_bundle-3.1.16/bin/wmsdk/libs/libdrv.a(mdev_gpt.o)
                                                  /home/zhouyongjian/wangshi/wmsdk_bundle-3.1.16/bin/wmsdk/libs/libdrv.a(mdev_rtc.o)
hwrtc_init                                        /home/zhouyongjian/wangshi/wmsdk_bundle-3.1.16/bin/wmsdk/libs/libwmtime.a(hwrtc.o)
hwrtc_time_get                                    /home/zhouyongjian/wangshi/wmsdk_bundle-3.1.16/bin/wmsdk/libs/libwmtime.a(hwrtc.o)
hwrtc_time_set                                    /home/zhouyongjian/wangshi/wmsdk_bundle-3.1.16/bin/wmsdk/libs/libwmtime.a(hwrtc.o)
hwrtc_time_update                                 /home/zhouyongjian/wangshi/wmsdk_bundle-3.1.16/bin/wmsdk/libs/libwmtime.a(hwrtc.o)
                                                  /home/zhouyongjian/wangshi/wmsdk_bundle-3.1.16/bin/wmsdk/libs/libpwrmgr.a(pwrmgr.o)
i2c0IntCb                                         /home/zhouyongjian/wangshi/wmsdk_bundle-3.1.16/bin/wmsdk/libs/libdrv.a(mw300_driver.o)
i2c1IntCb                                         /home/zhouyongjian/wangshi/wmsdk_bundle-3.1.16/bin/wmsdk/libs/libdrv.a(mw300_driver.o)
iflash_drv_close                                  /home/zhouyongjian/wangshi/wmsdk_bundle-3.1.16/bin/wmsdk/libs/libdrv.a(mdev_iflash.o)
                                                  /home/zhouyongjian/wangshi/wmsdk_bundle-3.1.16/bin/wmsdk/libs/libutil.a(flash.o)
iflash_drv_erase                                  /home/zhouyongjian/wangshi/wmsdk_bundle-3.1.16/bin/wmsdk/libs/libdrv.a(mdev_iflash.o)
                                                  /home/zhouyongjian/wangshi/wmsdk_bundle-3.1.16/bin/wmsdk/libs/libutil.a(flash.o)
iflash_drv_eraseall                               /home/zhouyongjian/wangshi/wmsdk_bundle-3.1.16/bin/wmsdk/libs/libdrv.a(mdev_iflash.o)
                                                  /home/zhouyongjian/wangshi/wmsdk_bundle-3.1.16/bin/wmsdk/libs/libutil.a(flash.o)
iflash_drv_get_id                                 /home/zhouyongjian/wangshi/wmsdk_bundle-3.1.16/bin/wmsdk/libs/libdrv.a(mdev_iflash.o)
                                                  /home/zhouyongjian/wangshi/wmsdk_bundle-3.1.16/bin/wmsdk/libs/libutil.a(flash.o)
iflash_drv_init                                   /home/zhouyongjian/wangshi/wmsdk_bundle-3.1.16/bin/wmsdk/libs/libdrv.a(mdev_iflash.o)
                                                  /home/zhouyongjian/wangshi/wmsdk_bundle-3.1.16/bin/wmsdk/libs/libutil.a(flash.o)
iflash_drv_open                                   /home/zhouyongjian/wangshi/wmsdk_bundle-3.1.16/bin/wmsdk/libs/libdrv.a(mdev_iflash.o)
                                                  /home/zhouyongjian/wangshi/wmsdk_bundle-3.1.16/bin/wmsdk/libs/libutil.a(flash.o)
iflash_drv_read                                   /home/zhouyongjian/wangshi/wmsdk_bundle-3.1.16/bin/wmsdk/libs/libdrv.a(mdev_iflash.o)
                                                  /home/zhouyongjian/wangshi/wmsdk_bundle-3.1.16/bin/wmsdk/libs/libutil.a(flash.o)
iflash_drv_write                                  /home/zhouyongjian/wangshi/wmsdk_bundle-3.1.16/bin/wmsdk/libs/libdrv.a(mdev_iflash.o)
                                                  /home/zhouyongjian/wangshi/wmsdk_bundle-3.1.16/bin/wmsdk/libs/libutil.a(flash.o)
iflash_flashc_to_qspi_erase                       /home/zhouyongjian/wangshi/wmsdk_bundle-3.1.16/bin/wmsdk/libs/libdrv.a(mdev_iflash.o)
iflash_flashc_to_qspi_eraseall                    /home/zhouyongjian/wangshi/wmsdk_bundle-3.1.16/bin/wmsdk/libs/libdrv.a(mdev_iflash.o)
iflash_flashc_to_qspi_read                        /home/zhouyongjian/wangshi/wmsdk_bundle-3.1.16/bin/wmsdk/libs/libdrv.a(mdev_iflash.o)
iflash_flashc_to_qspi_read_jedecid                /home/zhouyongjian/wangshi/wmsdk_bundle-3.1.16/bin/wmsdk/libs/libdrv.a(mdev_iflash.o)
iflash_flashc_to_qspi_read_uniqid                 /home/zhouyongjian/wangshi/wmsdk_bundle-3.1.16/bin/wmsdk/libs/libdrv.a(mdev_iflash.o)
iflash_flashc_to_qspi_write                       /home/zhouyongjian/wangshi/wmsdk_bundle-3.1.16/bin/wmsdk/libs/libdrv.a(mdev_iflash.o)
install_int_callback                              /home/zhouyongjian/wangshi/wmsdk_bundle-3.1.16/bin/wmsdk/libs/libdrv.a(mw300_driver.o)
                                                  /home/zhouyongjian/wangshi/wmsdk_bundle-3.1.16/bin/wmsdk/libs/libdrv.a(mdev_uart.o)
                                                  /home/zhouyongjian/wangshi/wmsdk_bundle-3.1.16/bin/wmsdk/libs/libdrv.a(mdev_gpt.o)
                                                  /home/zhouyongjian/wangshi/wmsdk_bundle-3.1.16/bin/wmsdk/libs/libdrv.a(mdev_rtc.o)
                                                  /home/zhouyongjian/wangshi/wmsdk_bundle-3.1.16/bin/wmsdk/libs/libdrv.a(mdev_pm.o)
intCbfArra                                        /home/zhouyongjian/wangshi/wmsdk_bundle-3.1.16/bin/wmsdk/libs/libdrv.a(mw300_driver.o)
                                                  /home/zhouyongjian/wangshi/wmsdk_bundle-3.1.16/bin/wmsdk/libs/libdrv.a(mw300_qspi.o)
                                                  /home/zhouyongjian/wangshi/wmsdk_bundle-3.1.16/bin/wmsdk/libs/libdrv.a(mw300_uart.o)
                                                  /home/zhouyongjian/wangshi/wmsdk_bundle-3.1.16/bin/wmsdk/libs/libdrv.a(mw300_gpio.o)
                                                  /home/zhouyongjian/wangshi/wmsdk_bundle-3.1.16/bin/wmsdk/libs/libdrv.a(mw300_gpt.o)
                                                  /home/zhouyongjian/wangshi/wmsdk_bundle-3.1.16/bin/wmsdk/libs/libdrv.a(mw300_rtc.o)
                                                  /home/zhouyongjian/wangshi/wmsdk_bundle-3.1.16/bin/wmsdk/libs/libdrv.a(mw300_pmu.o)
                                                  /home/zhouyongjian/wangshi/wmsdk_bundle-3.1.16/bin/wmsdk/libs/libdrv.a(mw300_clock.o)
is_pm_init_done                                   /home/zhouyongjian/wangshi/wmsdk_bundle-3.1.16/bin/wmsdk/libs/libpwrmgr.a(pwrmgr.o)
                                                  /home/zhouyongjian/wangshi/wmsdk_bundle-3.1.16/bin/wmsdk/libs/libdrv.a(mdev_pm.o)
led_on_off                                        obj/board.o
ll_printf                                         /home/zhouyongjian/wangshi/wmsdk_bundle-3.1.16/bin/wmsdk/libs/libwmstdio.a(wmstdio.o)
                                                  /home/zhouyongjian/wangshi/wmsdk_bundle-3.1.16/bin/wmsdk/libs/libdrv.a(mdev_uart.o)
                                                  /home/zhouyongjian/wangshi/wmsdk_bundle-3.1.16/bin/wmsdk/libs/libos.a(os.o)
                                                  /home/zhouyongjian/wangshi/wmsdk_bundle-3.1.16/bin/wmsdk/libs/libdrv.a(mdev_startup.o)
main                                              obj/electric_measure.o
                                                  /home/zhouyongjian/wangshi/wmsdk_bundle-3.1.16/bin/wmsdk/libs/libos.a(os.o)
mcu_pm2                                           /home/zhouyongjian/wangshi/wmsdk_bundle-3.1.16/bin/wmsdk/libs/libdrv.a(mdev_pm.o)
mdev_deregister                                   /home/zhouyongjian/wangshi/wmsdk_bundle-3.1.16/bin/wmsdk/libs/libmdev.a(mdev.o)
                                                  /home/zhouyongjian/wangshi/wmsdk_bundle-3.1.16/bin/wmsdk/libs/libdrv.a(mdev_dma.o)
                                                  /home/zhouyongjian/wangshi/wmsdk_bundle-3.1.16/bin/wmsdk/libs/libdrv.a(mdev_uart.o)
mdev_get_handle                                   /home/zhouyongjian/wangshi/wmsdk_bundle-3.1.16/bin/wmsdk/libs/libmdev.a(mdev.o)
                                                  /home/zhouyongjian/wangshi/wmsdk_bundle-3.1.16/bin/wmsdk/libs/libdrv.a(mdev_iflash.o)
                                                  /home/zhouyongjian/wangshi/wmsdk_bundle-3.1.16/bin/wmsdk/libs/libdrv.a(mdev_uart.o)
                                                  /home/zhouyongjian/wangshi/wmsdk_bundle-3.1.16/bin/wmsdk/libs/libdrv.a(mdev_gpio.o)
                                                  /home/zhouyongjian/wangshi/wmsdk_bundle-3.1.16/bin/wmsdk/libs/libdrv.a(mdev_gpt.o)
                                                  /home/zhouyongjian/wangshi/wmsdk_bundle-3.1.16/bin/wmsdk/libs/libdrv.a(mdev_rtc.o)
mdev_register                                     /home/zhouyongjian/wangshi/wmsdk_bundle-3.1.16/bin/wmsdk/libs/libmdev.a(mdev.o)
                                                  /home/zhouyongjian/wangshi/wmsdk_bundle-3.1.16/bin/wmsdk/libs/libdrv.a(mdev_iflash.o)
                                                  /home/zhouyongjian/wangshi/wmsdk_bundle-3.1.16/bin/wmsdk/libs/libdrv.a(mdev_dma.o)
                                                  /home/zhouyongjian/wangshi/wmsdk_bundle-3.1.16/bin/wmsdk/libs/libdrv.a(mdev_uart.o)
                                                  /home/zhouyongjian/wangshi/wmsdk_bundle-3.1.16/bin/wmsdk/libs/libdrv.a(mdev_gpio.o)
                                                  /home/zhouyongjian/wangshi/wmsdk_bundle-3.1.16/bin/wmsdk/libs/libdrv.a(mdev_gpt.o)
                                                  /home/zhouyongjian/wangshi/wmsdk_bundle-3.1.16/bin/wmsdk/libs/libdrv.a(mdev_rtc.o)
memcmp                                            /home/zhouyongjian/wangshi/wmsdk_bundle-3.1.16/bin/wmsdk/libs/libc.a(memcmp.o)
                                                  /home/zhouyongjian/wangshi/wmsdk_bundle-3.1.16/bin/wmsdk/libs/libc.a(memmem.o)
                                                  /home/zhouyongjian/wangshi/wmsdk_bundle-3.1.16/bin/wmsdk/libs/libfreertos.a(tasks.o)
memcpy                                            /home/zhouyongjian/Intelligent_AC_Infrared/gcc-arm-none-eabi-4_8-2014q2/bin/../lib/gcc/arm-none-eabi/4.8.4/../../../../arm-none-eabi/lib/armv7e-m/libg.a(lib_a-memcpy.o)
                                                  /home/zhouyongjian/wangshi/wmsdk_bundle-3.1.16/bin/wmsdk/libs/libdrv.a(mdev_iflash.o)
                                                  /home/zhouyongjian/wangshi/wmsdk_bundle-3.1.16/bin/wmsdk/libs/libcli.a(cli.o)
                                                  /home/zhouyongjian/wangshi/wmsdk_bundle-3.1.16/bin/wmsdk/libs/libfreertos.a(heap_4.o)
                                                  /home/zhouyongjian/wangshi/wmsdk_bundle-3.1.16/bin/wmsdk/libs/libfreertos.a(queue.o)
memmem                                            /home/zhouyongjian/wangshi/wmsdk_bundle-3.1.16/bin/wmsdk/libs/libc.a(memmem.o)
                                                  /home/zhouyongjian/wangshi/wmsdk_bundle-3.1.16/bin/wmsdk/libs/libc.a(strstr.o)
memmove                                           /home/zhouyongjian/Intelligent_AC_Infrared/gcc-arm-none-eabi-4_8-2014q2/bin/../lib/gcc/arm-none-eabi/4.8.4/../../../../arm-none-eabi/lib/armv7e-m/libg.a(lib_a-memmove.o)
                                                  /home/zhouyongjian/wangshi/wmsdk_bundle-3.1.16/bin/wmsdk/libs/libcli.a(cli.o)
memset                                            /home/zhouyongjian/Intelligent_AC_Infrared/gcc-arm-none-eabi-4_8-2014q2/bin/../lib/gcc/arm-none-eabi/4.8.4/../../../../arm-none-eabi/lib/armv7e-m/libg.a(lib_a-memset.o)
                                                  /home/zhouyongjian/wangshi/wmsdk_bundle-3.1.16/bin/wmsdk/libs/libcli.a(cli.o)
                                                  /home/zhouyongjian/wangshi/wmsdk_bundle-3.1.16/bin/wmsdk/libs/libc.a(strxspn.o)
                                                  /home/zhouyongjian/wangshi/wmsdk_bundle-3.1.16/bin/wmsdk/libs/libc.a(strncpy.o)
                                                  /home/zhouyongjian/wangshi/wmsdk_bundle-3.1.16/bin/wmsdk/libs/libc.a(vsscanf.o)
                                                  /home/zhouyongjian/wangshi/wmsdk_bundle-3.1.16/bin/wmsdk/libs/libos.a(os.o)
                                                  /home/zhouyongjian/wangshi/wmsdk_bundle-3.1.16/bin/wmsdk/libs/libfreertos.a(heap_4.o)
                                                  /home/zhouyongjian/wangshi/wmsdk_bundle-3.1.16/bin/wmsdk/libs/libfreertos.a(tasks.o)
                                                  /home/zhouyongjian/wangshi/wmsdk_bundle-3.1.16/bin/wmsdk/libs/libdrv.a(mdev_pm.o)
                                                  /home/zhouyongjian/wangshi/wmsdk_bundle-3.1.16/bin/wmsdk/libs/libdrv.a(mdev_startup.o)
mpuIntCb                                          /home/zhouyongjian/wangshi/wmsdk_bundle-3.1.16/bin/wmsdk/libs/libdrv.a(mw300_driver.o)
nvram_saved_sp_addr                               /home/zhouyongjian/wangshi/wmsdk_bundle-3.1.16/bin/wmsdk/libs/libdrv.a(mdev_pm.o)
os_disable_all_interrupts                         /home/zhouyongjian/wangshi/wmsdk_bundle-3.1.16/bin/wmsdk/libs/libos.a(os.o)
                                                  /home/zhouyongjian/wangshi/wmsdk_bundle-3.1.16/bin/wmsdk/libs/libdrv.a(mdev_pm.o)
os_dump_threadinfo                                /home/zhouyongjian/wangshi/wmsdk_bundle-3.1.16/bin/wmsdk/libs/libos.a(os.o)
os_enable_all_interrupts                          /home/zhouyongjian/wangshi/wmsdk_bundle-3.1.16/bin/wmsdk/libs/libos.a(os.o)
                                                  /home/zhouyongjian/wangshi/wmsdk_bundle-3.1.16/bin/wmsdk/libs/libdrv.a(mdev_pm.o)
os_event_flags_create                             /home/zhouyongjian/wangshi/wmsdk_bundle-3.1.16/bin/wmsdk/libs/libos.a(os.o)
os_event_flags_delete                             /home/zhouyongjian/wangshi/wmsdk_bundle-3.1.16/bin/wmsdk/libs/libos.a(os.o)
os_event_flags_get                                /home/zhouyongjian/wangshi/wmsdk_bundle-3.1.16/bin/wmsdk/libs/libos.a(os.o)
os_event_flags_set                                /home/zhouyongjian/wangshi/wmsdk_bundle-3.1.16/bin/wmsdk/libs/libos.a(os.o)
os_get_timestamp                                  /home/zhouyongjian/wangshi/wmsdk_bundle-3.1.16/bin/wmsdk/libs/libos.a(os.o)
os_init                                           /home/zhouyongjian/wangshi/wmsdk_bundle-3.1.16/bin/wmsdk/libs/libos.a(os.o)
                                                  /home/zhouyongjian/wangshi/wmsdk_bundle-3.1.16/bin/wmsdk/libs/libdrv.a(mdev_startup.o)
os_queue_create                                   /home/zhouyongjian/wangshi/wmsdk_bundle-3.1.16/bin/wmsdk/libs/libos.a(os.o)
                                                  /home/zhouyongjian/wangshi/wmsdk_bundle-3.1.16/bin/wmsdk/libs/libcli.a(cli.o)
os_rwlock_create                                  /home/zhouyongjian/wangshi/wmsdk_bundle-3.1.16/bin/wmsdk/libs/libos.a(os.o)
os_rwlock_create_with_cb                          /home/zhouyongjian/wangshi/wmsdk_bundle-3.1.16/bin/wmsdk/libs/libos.a(os.o)
os_rwlock_delete                                  /home/zhouyongjian/wangshi/wmsdk_bundle-3.1.16/bin/wmsdk/libs/libos.a(os.o)
os_rwlock_read_lock                               /home/zhouyongjian/wangshi/wmsdk_bundle-3.1.16/bin/wmsdk/libs/libos.a(os.o)
os_rwlock_read_unlock                             /home/zhouyongjian/wangshi/wmsdk_bundle-3.1.16/bin/wmsdk/libs/libos.a(os.o)
os_rwlock_write_lock                              /home/zhouyongjian/wangshi/wmsdk_bundle-3.1.16/bin/wmsdk/libs/libos.a(os.o)
os_rwlock_write_unlock                            /home/zhouyongjian/wangshi/wmsdk_bundle-3.1.16/bin/wmsdk/libs/libos.a(os.o)
os_thread_create                                  /home/zhouyongjian/wangshi/wmsdk_bundle-3.1.16/bin/wmsdk/libs/libos.a(os.o)
                                                  /home/zhouyongjian/wangshi/wmsdk_bundle-3.1.16/bin/wmsdk/libs/libcli.a(cli.o)
os_thread_stackmark                               /home/zhouyongjian/wangshi/wmsdk_bundle-3.1.16/bin/wmsdk/libs/libos.a(os.o)
os_timer_create                                   /home/zhouyongjian/wangshi/wmsdk_bundle-3.1.16/bin/wmsdk/libs/libos.a(os.o)
pMdevList                                         /home/zhouyongjian/wangshi/wmsdk_bundle-3.1.16/bin/wmsdk/libs/libmdev.a(mdev.o)
pm3_entryaddr                                     /home/zhouyongjian/wangshi/wmsdk_bundle-3.1.16/bin/wmsdk/libs/libdrv.a(mdev_pm.o)
pm4_sig                                           /home/zhouyongjian/wangshi/wmsdk_bundle-3.1.16/bin/wmsdk/libs/libdrv.a(mdev_pm.o)
                                                  /home/zhouyongjian/wangshi/wmsdk_bundle-3.1.16/bin/wmsdk/libs/libdrv.a(mdev_startup.o)
pm_change_event                                   /home/zhouyongjian/wangshi/wmsdk_bundle-3.1.16/bin/wmsdk/libs/libpwrmgr.a(pwrmgr.o)
pm_cli_init                                       /home/zhouyongjian/wangshi/wmsdk_bundle-3.1.16/bin/wmsdk/libs/libpwrmgr.a(pwrmgr.o)
pm_deregister_cb                                  /home/zhouyongjian/wangshi/wmsdk_bundle-3.1.16/bin/wmsdk/libs/libpwrmgr.a(pwrmgr.o)
pm_init                                           /home/zhouyongjian/wangshi/wmsdk_bundle-3.1.16/bin/wmsdk/libs/libpwrmgr.a(pwrmgr.o)
pm_invoke_ps_callback                             /home/zhouyongjian/wangshi/wmsdk_bundle-3.1.16/bin/wmsdk/libs/libpwrmgr.a(pwrmgr.o)
                                                  /home/zhouyongjian/wangshi/wmsdk_bundle-3.1.16/bin/wmsdk/libs/libdrv.a(mdev_pm.o)
pm_mcu_cfg                                        /home/zhouyongjian/wangshi/wmsdk_bundle-3.1.16/bin/wmsdk/libs/libdrv.a(mdev_pm.o)
                                                  /home/zhouyongjian/wangshi/wmsdk_bundle-3.1.16/bin/wmsdk/libs/libpwrmgr.a(pwrmgr.o)
pm_mcu_cli_init                                   /home/zhouyongjian/wangshi/wmsdk_bundle-3.1.16/bin/wmsdk/libs/libpwrmgr.a(pwrmgr.o)
pm_mcu_get_mode                                   /home/zhouyongjian/wangshi/wmsdk_bundle-3.1.16/bin/wmsdk/libs/libdrv.a(mdev_pm.o)
pm_mcu_io_cfg                                     /home/zhouyongjian/wangshi/wmsdk_bundle-3.1.16/bin/wmsdk/libs/libdrv.a(mdev_pm.o)
                                                  /home/zhouyongjian/wangshi/wmsdk_bundle-3.1.16/bin/wmsdk/libs/libpwrmgr.a(pwrmgr.o)
pm_mcu_is_enabled                                 /home/zhouyongjian/wangshi/wmsdk_bundle-3.1.16/bin/wmsdk/libs/libdrv.a(mdev_pm.o)
pm_mcu_state                                      /home/zhouyongjian/wangshi/wmsdk_bundle-3.1.16/bin/wmsdk/libs/libdrv.a(mdev_pm.o)
                                                  /home/zhouyongjian/wangshi/wmsdk_bundle-3.1.16/bin/wmsdk/libs/libpwrmgr.a(pwrmgr.o)
pm_pm0_in_idle                                    /home/zhouyongjian/wangshi/wmsdk_bundle-3.1.16/bin/wmsdk/libs/libdrv.a(mdev_pm.o)
pm_reboot_soc                                     /home/zhouyongjian/wangshi/wmsdk_bundle-3.1.16/bin/wmsdk/libs/libpwrmgr.a(pwrmgr.o)
pm_register_cb                                    /home/zhouyongjian/wangshi/wmsdk_bundle-3.1.16/bin/wmsdk/libs/libpwrmgr.a(pwrmgr.o)
                                                  /home/zhouyongjian/wangshi/wmsdk_bundle-3.1.16/bin/wmsdk/libs/libdrv.a(mdev_uart.o)
                                                  /home/zhouyongjian/wangshi/wmsdk_bundle-3.1.16/bin/wmsdk/libs/libdrv.a(mdev_rtc.o)
pm_wakeup_source                                  /home/zhouyongjian/wangshi/wmsdk_bundle-3.1.16/bin/wmsdk/libs/libdrv.a(mdev_pm.o)
prvHeapInit                                       /home/zhouyongjian/wangshi/wmsdk_bundle-3.1.16/bin/wmsdk/libs/libfreertos.a(heap_4.o)
ps_wait                                           /home/zhouyongjian/wangshi/wmsdk_bundle-3.1.16/bin/wmsdk/libs/libdrv.a(mdev_pm.o)
pvPortMalloc                                      /home/zhouyongjian/wangshi/wmsdk_bundle-3.1.16/bin/wmsdk/libs/libfreertos.a(heap_4.o)
                                                  /home/zhouyongjian/wangshi/wmsdk_bundle-3.1.16/bin/wmsdk/libs/libdrv.a(mdev_uart.o)
                                                  /home/zhouyongjian/wangshi/wmsdk_bundle-3.1.16/bin/wmsdk/libs/libos.a(os.o)
                                                  /home/zhouyongjian/wangshi/wmsdk_bundle-3.1.16/bin/wmsdk/libs/libfreertos.a(timers.o)
                                                  /home/zhouyongjian/wangshi/wmsdk_bundle-3.1.16/bin/wmsdk/libs/libfreertos.a(tasks.o)
                                                  /home/zhouyongjian/wangshi/wmsdk_bundle-3.1.16/bin/wmsdk/libs/libfreertos.a(queue.o)
pvPortReAlloc                                     /home/zhouyongjian/wangshi/wmsdk_bundle-3.1.16/bin/wmsdk/libs/libfreertos.a(heap_4.o)
pvTimerGetTimerID                                 /home/zhouyongjian/wangshi/wmsdk_bundle-3.1.16/bin/wmsdk/libs/libfreertos.a(timers.o)
pxCurrentTCB                                      /home/zhouyongjian/wangshi/wmsdk_bundle-3.1.16/bin/wmsdk/libs/libfreertos.a(tasks.o)
                                                  /home/zhouyongjian/wangshi/wmsdk_bundle-3.1.16/bin/wmsdk/libs/libfreertos.a(port.o)
pxPortInitialiseStack                             /home/zhouyongjian/wangshi/wmsdk_bundle-3.1.16/bin/wmsdk/libs/libfreertos.a(port.o)
                                                  /home/zhouyongjian/wangshi/wmsdk_bundle-3.1.16/bin/wmsdk/libs/libfreertos.a(tasks.o)
qspiIntCb                                         /home/zhouyongjian/wangshi/wmsdk_bundle-3.1.16/bin/wmsdk/libs/libdrv.a(mw300_driver.o)
rc32mIntCb                                        /home/zhouyongjian/wangshi/wmsdk_bundle-3.1.16/bin/wmsdk/libs/libdrv.a(mw300_driver.o)
read_dma                                          /home/zhouyongjian/wangshi/wmsdk_bundle-3.1.16/bin/wmsdk/libs/libdrv.a(mdev_uart.o)
rtcIntCb                                          /home/zhouyongjian/wangshi/wmsdk_bundle-3.1.16/bin/wmsdk/libs/libdrv.a(mw300_driver.o)
rtc_drv_close                                     /home/zhouyongjian/wangshi/wmsdk_bundle-3.1.16/bin/wmsdk/libs/libdrv.a(mdev_rtc.o)
rtc_drv_get                                       /home/zhouyongjian/wangshi/wmsdk_bundle-3.1.16/bin/wmsdk/libs/libdrv.a(mdev_rtc.o)
                                                  /home/zhouyongjian/wangshi/wmsdk_bundle-3.1.16/bin/wmsdk/libs/libwmtime.a(hwrtc.o)
                                                  /home/zhouyongjian/wangshi/wmsdk_bundle-3.1.16/bin/wmsdk/libs/libdrv.a(mdev_pm.o)
rtc_drv_get_uppval                                /home/zhouyongjian/wangshi/wmsdk_bundle-3.1.16/bin/wmsdk/libs/libdrv.a(mdev_rtc.o)
                                                  /home/zhouyongjian/wangshi/wmsdk_bundle-3.1.16/bin/wmsdk/libs/libwmtime.a(hwrtc.o)
rtc_drv_init                                      /home/zhouyongjian/wangshi/wmsdk_bundle-3.1.16/bin/wmsdk/libs/libdrv.a(mdev_rtc.o)
                                                  /home/zhouyongjian/wangshi/wmsdk_bundle-3.1.16/bin/wmsdk/libs/libwmtime.a(hwrtc.o)
                                                  /home/zhouyongjian/wangshi/wmsdk_bundle-3.1.16/bin/wmsdk/libs/libpwrmgr.a(pwrmgr.o)
rtc_drv_open                                      /home/zhouyongjian/wangshi/wmsdk_bundle-3.1.16/bin/wmsdk/libs/libdrv.a(mdev_rtc.o)
                                                  /home/zhouyongjian/wangshi/wmsdk_bundle-3.1.16/bin/wmsdk/libs/libwmtime.a(hwrtc.o)
                                                  /home/zhouyongjian/wangshi/wmsdk_bundle-3.1.16/bin/wmsdk/libs/libdrv.a(mdev_pm.o)
rtc_drv_reset                                     /home/zhouyongjian/wangshi/wmsdk_bundle-3.1.16/bin/wmsdk/libs/libdrv.a(mdev_rtc.o)
                                                  /home/zhouyongjian/wangshi/wmsdk_bundle-3.1.16/bin/wmsdk/libs/libwmtime.a(hwrtc.o)
rtc_drv_set                                       /home/zhouyongjian/wangshi/wmsdk_bundle-3.1.16/bin/wmsdk/libs/libdrv.a(mdev_rtc.o)
                                                  /home/zhouyongjian/wangshi/wmsdk_bundle-3.1.16/bin/wmsdk/libs/libwmtime.a(hwrtc.o)
rtc_drv_set_alarm                                 /home/zhouyongjian/wangshi/wmsdk_bundle-3.1.16/bin/wmsdk/libs/libdrv.a(mdev_rtc.o)
                                                  /home/zhouyongjian/wangshi/wmsdk_bundle-3.1.16/bin/wmsdk/libs/libdrv.a(mdev_pm.o)
rtc_drv_set_alarm_cb                              /home/zhouyongjian/wangshi/wmsdk_bundle-3.1.16/bin/wmsdk/libs/libdrv.a(mdev_rtc.o)
                                                  /home/zhouyongjian/wangshi/wmsdk_bundle-3.1.16/bin/wmsdk/libs/libdrv.a(mdev_pm.o)
rtc_drv_set_cb                                    /home/zhouyongjian/wangshi/wmsdk_bundle-3.1.16/bin/wmsdk/libs/libdrv.a(mdev_rtc.o)
                                                  /home/zhouyongjian/wangshi/wmsdk_bundle-3.1.16/bin/wmsdk/libs/libwmtime.a(hwrtc.o)
rtc_drv_start                                     /home/zhouyongjian/wangshi/wmsdk_bundle-3.1.16/bin/wmsdk/libs/libdrv.a(mdev_rtc.o)
                                                  /home/zhouyongjian/wangshi/wmsdk_bundle-3.1.16/bin/wmsdk/libs/libwmtime.a(hwrtc.o)
rtc_drv_stop                                      /home/zhouyongjian/wangshi/wmsdk_bundle-3.1.16/bin/wmsdk/libs/libdrv.a(mdev_rtc.o)
rtc_xtal32k_ps_cb                                 /home/zhouyongjian/wangshi/wmsdk_bundle-3.1.16/bin/wmsdk/libs/libdrv.a(mdev_rtc.o)
sdioIntCb                                         /home/zhouyongjian/wangshi/wmsdk_bundle-3.1.16/bin/wmsdk/libs/libdrv.a(mw300_driver.o)
serial_console_flush                              /home/zhouyongjian/wangshi/wmsdk_bundle-3.1.16/bin/wmsdk/libs/libwmstdio.a(console.o)
serial_console_funcs                              /home/zhouyongjian/wangshi/wmsdk_bundle-3.1.16/bin/wmsdk/libs/libwmstdio.a(console.o)
serial_console_get_portid                         /home/zhouyongjian/wangshi/wmsdk_bundle-3.1.16/bin/wmsdk/libs/libwmstdio.a(console.o)
                                                  /home/zhouyongjian/wangshi/wmsdk_bundle-3.1.16/bin/wmsdk/libs/libwmstdio.a(wmstdio.o)
serial_console_getchar                            /home/zhouyongjian/wangshi/wmsdk_bundle-3.1.16/bin/wmsdk/libs/libwmstdio.a(console.o)
serial_console_init                               /home/zhouyongjian/wangshi/wmsdk_bundle-3.1.16/bin/wmsdk/libs/libwmstdio.a(console.o)
                                                  /home/zhouyongjian/wangshi/wmsdk_bundle-3.1.16/bin/wmsdk/libs/libwmstdio.a(wmstdio.o)
serial_console_printf                             /home/zhouyongjian/wangshi/wmsdk_bundle-3.1.16/bin/wmsdk/libs/libwmstdio.a(console.o)
                                                  /home/zhouyongjian/wangshi/wmsdk_bundle-3.1.16/bin/wmsdk/libs/libwmstdio.a(wmstdio.o)
serial_console_putchar                            /home/zhouyongjian/wangshi/wmsdk_bundle-3.1.16/bin/wmsdk/libs/libwmstdio.a(console.o)
snprintf                                          /home/zhouyongjian/wangshi/wmsdk_bundle-3.1.16/bin/wmsdk/libs/libc.a(snprintf.o)
                                                  /home/zhouyongjian/wangshi/wmsdk_bundle-3.1.16/bin/wmsdk/libs/libdrv.a(mdev_uart.o)
                                                  /home/zhouyongjian/wangshi/wmsdk_bundle-3.1.16/bin/wmsdk/libs/libfreertos.a(tasks.o)
sprintf                                           /home/zhouyongjian/wangshi/wmsdk_bundle-3.1.16/bin/wmsdk/libs/libc.a(sprintf.o)
                                                  /home/zhouyongjian/wangshi/wmsdk_bundle-3.1.16/bin/wmsdk/libs/libfreertos.a(tasks.o)
sscanf                                            /home/zhouyongjian/wangshi/wmsdk_bundle-3.1.16/bin/wmsdk/libs/libc.a(sscanf.o)
                                                  /home/zhouyongjian/wangshi/wmsdk_bundle-3.1.16/bin/wmsdk/libs/libos.a(os.o)
ssp0IntCb                                         /home/zhouyongjian/wangshi/wmsdk_bundle-3.1.16/bin/wmsdk/libs/libdrv.a(mw300_driver.o)
ssp1IntCb                                         /home/zhouyongjian/wangshi/wmsdk_bundle-3.1.16/bin/wmsdk/libs/libdrv.a(mw300_driver.o)
ssp2IntCb                                         /home/zhouyongjian/wangshi/wmsdk_bundle-3.1.16/bin/wmsdk/libs/libdrv.a(mw300_driver.o)
strcasecmp                                        /home/zhouyongjian/wangshi/wmsdk_bundle-3.1.16/bin/wmsdk/libs/libc.a(strcasecmp.o)
                                                  /home/zhouyongjian/wangshi/wmsdk_bundle-3.1.16/bin/wmsdk/libs/libcli.a(cli.o)
strcat                                            /home/zhouyongjian/wangshi/wmsdk_bundle-3.1.16/bin/wmsdk/libs/libc.a(strcat.o)
                                                  /home/zhouyongjian/wangshi/wmsdk_bundle-3.1.16/bin/wmsdk/libs/libfreertos.a(tasks.o)
strchr                                            /home/zhouyongjian/wangshi/wmsdk_bundle-3.1.16/bin/wmsdk/libs/libc.a(strchr.o)
                                                  /home/zhouyongjian/wangshi/wmsdk_bundle-3.1.16/bin/wmsdk/libs/libcli.a(cli.o)
                                                  /home/zhouyongjian/wangshi/wmsdk_bundle-3.1.16/bin/wmsdk/libs/libc.a(strcat.o)
strcmp                                            /home/zhouyongjian/wangshi/wmsdk_bundle-3.1.16/bin/wmsdk/libs/libc.a(strcmp.o)
                                                  /home/zhouyongjian/wangshi/wmsdk_bundle-3.1.16/bin/wmsdk/libs/libcli.a(cli.o)
                                                  /home/zhouyongjian/wangshi/wmsdk_bundle-3.1.16/bin/wmsdk/libs/libmdev.a(mdev.o)
strcpy                                            /home/zhouyongjian/wangshi/wmsdk_bundle-3.1.16/bin/wmsdk/libs/libc.a(strcpy.o)
                                                  /home/zhouyongjian/wangshi/wmsdk_bundle-3.1.16/bin/wmsdk/libs/libc.a(strcat.o)
strlen                                            /home/zhouyongjian/wangshi/wmsdk_bundle-3.1.16/bin/wmsdk/libs/libc.a(strlen.o)
                                                  /home/zhouyongjian/wangshi/wmsdk_bundle-3.1.16/bin/wmsdk/libs/libcli.a(cli.o)
                                                  /home/zhouyongjian/wangshi/wmsdk_bundle-3.1.16/bin/wmsdk/libs/libc.a(strstr.o)
                                                  /home/zhouyongjian/wangshi/wmsdk_bundle-3.1.16/bin/wmsdk/libs/libc.a(vsnprintf.o)
                                                  /home/zhouyongjian/wangshi/wmsdk_bundle-3.1.16/bin/wmsdk/libs/libwmstdio.a(console.o)
                                                  /home/zhouyongjian/wangshi/wmsdk_bundle-3.1.16/bin/wmsdk/libs/libos.a(os.o)
                                                  /home/zhouyongjian/wangshi/wmsdk_bundle-3.1.16/bin/wmsdk/libs/libfreertos.a(tasks.o)
strncmp                                           /home/zhouyongjian/wangshi/wmsdk_bundle-3.1.16/bin/wmsdk/libs/libc.a(strncmp.o)
                                                  /home/zhouyongjian/wangshi/wmsdk_bundle-3.1.16/bin/wmsdk/libs/libcli.a(cli.o)
                                                  /home/zhouyongjian/wangshi/wmsdk_bundle-3.1.16/bin/wmsdk/libs/libos.a(os.o)
strncpy                                           /home/zhouyongjian/wangshi/wmsdk_bundle-3.1.16/bin/wmsdk/libs/libc.a(strncpy.o)
                                                  /home/zhouyongjian/wangshi/wmsdk_bundle-3.1.16/bin/wmsdk/libs/libos.a(os.o)
                                                  /home/zhouyongjian/wangshi/wmsdk_bundle-3.1.16/bin/wmsdk/libs/libfreertos.a(tasks.o)
strntoumax                                        /home/zhouyongjian/wangshi/wmsdk_bundle-3.1.16/bin/wmsdk/libs/libc.a(strntoumax.o)
                                                  /home/zhouyongjian/wangshi/wmsdk_bundle-3.1.16/bin/wmsdk/libs/libc.a(vsscanf.o)
                                                  /home/zhouyongjian/wangshi/wmsdk_bundle-3.1.16/bin/wmsdk/libs/libc.a(atoi.o)
strpbrk                                           /home/zhouyongjian/wangshi/wmsdk_bundle-3.1.16/bin/wmsdk/libs/libc.a(strpbrk.o)
                                                  /home/zhouyongjian/wangshi/wmsdk_bundle-3.1.16/bin/wmsdk/libs/libc.a(strsep.o)
strsep                                            /home/zhouyongjian/wangshi/wmsdk_bundle-3.1.16/bin/wmsdk/libs/libc.a(strsep.o)
                                                  /home/zhouyongjian/wangshi/wmsdk_bundle-3.1.16/bin/wmsdk/libs/libc.a(strtok_r.o)
strstr                                            /home/zhouyongjian/wangshi/wmsdk_bundle-3.1.16/bin/wmsdk/libs/libc.a(strstr.o)
                                                  /home/zhouyongjian/wangshi/wmsdk_bundle-3.1.16/bin/wmsdk/libs/libos.a(os.o)
strtok                                            /home/zhouyongjian/wangshi/wmsdk_bundle-3.1.16/bin/wmsdk/libs/libc.a(strtok.o)
                                                  /home/zhouyongjian/wangshi/wmsdk_bundle-3.1.16/bin/wmsdk/libs/libos.a(os.o)
strtok_r                                          /home/zhouyongjian/wangshi/wmsdk_bundle-3.1.16/bin/wmsdk/libs/libc.a(strtok_r.o)
                                                  /home/zhouyongjian/wangshi/wmsdk_bundle-3.1.16/bin/wmsdk/libs/libc.a(strtok.o)
tcalib                                            /home/zhouyongjian/wangshi/wmsdk_bundle-3.1.16/bin/wmsdk/libs/libwmtime.a(hwrtc.o)
                                                  /home/zhouyongjian/wangshi/wmsdk_bundle-3.1.16/bin/wmsdk/libs/libdrv.a(mdev_pm.o)
uart0IntCb                                        /home/zhouyongjian/wangshi/wmsdk_bundle-3.1.16/bin/wmsdk/libs/libdrv.a(mw300_driver.o)
uart1IntCb                                        /home/zhouyongjian/wangshi/wmsdk_bundle-3.1.16/bin/wmsdk/libs/libdrv.a(mw300_driver.o)
uart2IntCb                                        /home/zhouyongjian/wangshi/wmsdk_bundle-3.1.16/bin/wmsdk/libs/libdrv.a(mw300_driver.o)
uart_drv_blocking_read                            /home/zhouyongjian/wangshi/wmsdk_bundle-3.1.16/bin/wmsdk/libs/libdrv.a(mdev_uart.o)
uart_drv_close                                    /home/zhouyongjian/wangshi/wmsdk_bundle-3.1.16/bin/wmsdk/libs/libdrv.a(mdev_uart.o)
uart_drv_deinit                                   /home/zhouyongjian/wangshi/wmsdk_bundle-3.1.16/bin/wmsdk/libs/libdrv.a(mdev_uart.o)
uart_drv_dma_rd_blk_size                          /home/zhouyongjian/wangshi/wmsdk_bundle-3.1.16/bin/wmsdk/libs/libdrv.a(mdev_uart.o)
uart_drv_get_portid                               /home/zhouyongjian/wangshi/wmsdk_bundle-3.1.16/bin/wmsdk/libs/libdrv.a(mdev_uart.o)
                                                  /home/zhouyongjian/wangshi/wmsdk_bundle-3.1.16/bin/wmsdk/libs/libwmstdio.a(console.o)
uart_drv_init                                     /home/zhouyongjian/wangshi/wmsdk_bundle-3.1.16/bin/wmsdk/libs/libdrv.a(mdev_uart.o)
                                                  /home/zhouyongjian/wangshi/wmsdk_bundle-3.1.16/bin/wmsdk/libs/libwmstdio.a(wmstdio.o)
uart_drv_open                                     /home/zhouyongjian/wangshi/wmsdk_bundle-3.1.16/bin/wmsdk/libs/libdrv.a(mdev_uart.o)
                                                  /home/zhouyongjian/wangshi/wmsdk_bundle-3.1.16/bin/wmsdk/libs/libwmstdio.a(console.o)
uart_drv_read                                     /home/zhouyongjian/wangshi/wmsdk_bundle-3.1.16/bin/wmsdk/libs/libdrv.a(mdev_uart.o)
                                                  /home/zhouyongjian/wangshi/wmsdk_bundle-3.1.16/bin/wmsdk/libs/libwmstdio.a(console.o)
uart_drv_rx_buf_reset                             /home/zhouyongjian/wangshi/wmsdk_bundle-3.1.16/bin/wmsdk/libs/libdrv.a(mdev_uart.o)
uart_drv_rxbuf_size                               /home/zhouyongjian/wangshi/wmsdk_bundle-3.1.16/bin/wmsdk/libs/libdrv.a(mdev_uart.o)
uart_drv_set_opts                                 /home/zhouyongjian/wangshi/wmsdk_bundle-3.1.16/bin/wmsdk/libs/libdrv.a(mdev_uart.o)
uart_drv_tx_flush                                 /home/zhouyongjian/wangshi/wmsdk_bundle-3.1.16/bin/wmsdk/libs/libdrv.a(mdev_uart.o)
                                                  /home/zhouyongjian/wangshi/wmsdk_bundle-3.1.16/bin/wmsdk/libs/libwmstdio.a(console.o)
uart_drv_write                                    /home/zhouyongjian/wangshi/wmsdk_bundle-3.1.16/bin/wmsdk/libs/libdrv.a(mdev_uart.o)
                                                  /home/zhouyongjian/wangshi/wmsdk_bundle-3.1.16/bin/wmsdk/libs/libwmstdio.a(console.o)
uart_drv_xfer_mode                                /home/zhouyongjian/wangshi/wmsdk_bundle-3.1.16/bin/wmsdk/libs/libdrv.a(mdev_uart.o)
uart_ps_cb                                        /home/zhouyongjian/wangshi/wmsdk_bundle-3.1.16/bin/wmsdk/libs/libdrv.a(mdev_uart.o)
ulKernelPriority                                  /home/zhouyongjian/wangshi/wmsdk_bundle-3.1.16/bin/wmsdk/libs/libfreertos.a(port.o)
ulTaskEndTrace                                    /home/zhouyongjian/wangshi/wmsdk_bundle-3.1.16/bin/wmsdk/libs/libfreertos.a(tasks.o)
update_time                                       /home/zhouyongjian/wangshi/wmsdk_bundle-3.1.16/bin/wmsdk/libs/libdrv.a(mdev_pm.o)
usbIntCb                                          /home/zhouyongjian/wangshi/wmsdk_bundle-3.1.16/bin/wmsdk/libs/libdrv.a(mw300_driver.o)
user_app_init                                     /home/zhouyongjian/wangshi/wmsdk_bundle-3.1.16/bin/wmsdk/libs/libos.a(os.o)
uxQueueMessagesWaiting                            /home/zhouyongjian/wangshi/wmsdk_bundle-3.1.16/bin/wmsdk/libs/libfreertos.a(queue.o)
                                                  /home/zhouyongjian/wangshi/wmsdk_bundle-3.1.16/bin/wmsdk/libs/libpwrmgr.a(pwrmgr.o)
uxQueueMessagesWaitingFromISR                     /home/zhouyongjian/wangshi/wmsdk_bundle-3.1.16/bin/wmsdk/libs/libfreertos.a(queue.o)
uxTaskGetNumberOfTasks                            /home/zhouyongjian/wangshi/wmsdk_bundle-3.1.16/bin/wmsdk/libs/libfreertos.a(tasks.o)
uxTaskGetStackHighWaterMark                       /home/zhouyongjian/wangshi/wmsdk_bundle-3.1.16/bin/wmsdk/libs/libfreertos.a(tasks.o)
uxTaskPriorityGet                                 /home/zhouyongjian/wangshi/wmsdk_bundle-3.1.16/bin/wmsdk/libs/libfreertos.a(tasks.o)
vApplicationIdleHook                              /home/zhouyongjian/wangshi/wmsdk_bundle-3.1.16/bin/wmsdk/libs/libos.a(os.o)
                                                  /home/zhouyongjian/wangshi/wmsdk_bundle-3.1.16/bin/wmsdk/libs/libfreertos.a(tasks.o)
vApplicationMallocFailedHook                      /home/zhouyongjian/wangshi/wmsdk_bundle-3.1.16/bin/wmsdk/libs/libos.a(os.o)
vApplicationStackOverflowHook                     /home/zhouyongjian/wangshi/wmsdk_bundle-3.1.16/bin/wmsdk/libs/libos.a(os.o)
                                                  /home/zhouyongjian/wangshi/wmsdk_bundle-3.1.16/bin/wmsdk/libs/libfreertos.a(tasks.o)
vApplicationTickHook                              /home/zhouyongjian/wangshi/wmsdk_bundle-3.1.16/bin/wmsdk/libs/libos.a(os.o)
                                                  /home/zhouyongjian/wangshi/wmsdk_bundle-3.1.16/bin/wmsdk/libs/libfreertos.a(tasks.o)
vGetTaskNamesInList                               /home/zhouyongjian/wangshi/wmsdk_bundle-3.1.16/bin/wmsdk/libs/libfreertos.a(tasks.o)
vGetWaiterListFromHandle                          /home/zhouyongjian/wangshi/wmsdk_bundle-3.1.16/bin/wmsdk/libs/libfreertos.a(queue.o)
vHeapSelfTest                                     /home/zhouyongjian/wangshi/wmsdk_bundle-3.1.16/bin/wmsdk/libs/libfreertos.a(heap_4.o)
vListInitialise                                   /home/zhouyongjian/wangshi/wmsdk_bundle-3.1.16/bin/wmsdk/libs/libfreertos.a(list.o)
                                                  /home/zhouyongjian/wangshi/wmsdk_bundle-3.1.16/bin/wmsdk/libs/libfreertos.a(timers.o)
                                                  /home/zhouyongjian/wangshi/wmsdk_bundle-3.1.16/bin/wmsdk/libs/libfreertos.a(tasks.o)
                                                  /home/zhouyongjian/wangshi/wmsdk_bundle-3.1.16/bin/wmsdk/libs/libfreertos.a(queue.o)
vListInitialiseItem                               /home/zhouyongjian/wangshi/wmsdk_bundle-3.1.16/bin/wmsdk/libs/libfreertos.a(list.o)
                                                  /home/zhouyongjian/wangshi/wmsdk_bundle-3.1.16/bin/wmsdk/libs/libfreertos.a(timers.o)
                                                  /home/zhouyongjian/wangshi/wmsdk_bundle-3.1.16/bin/wmsdk/libs/libfreertos.a(tasks.o)
vListInsert                                       /home/zhouyongjian/wangshi/wmsdk_bundle-3.1.16/bin/wmsdk/libs/libfreertos.a(list.o)
                                                  /home/zhouyongjian/wangshi/wmsdk_bundle-3.1.16/bin/wmsdk/libs/libfreertos.a(timers.o)
                                                  /home/zhouyongjian/wangshi/wmsdk_bundle-3.1.16/bin/wmsdk/libs/libfreertos.a(tasks.o)
vListInsertEnd                                    /home/zhouyongjian/wangshi/wmsdk_bundle-3.1.16/bin/wmsdk/libs/libfreertos.a(list.o)
                                                  /home/zhouyongjian/wangshi/wmsdk_bundle-3.1.16/bin/wmsdk/libs/libfreertos.a(tasks.o)
vListRemove                                       /home/zhouyongjian/wangshi/wmsdk_bundle-3.1.16/bin/wmsdk/libs/libfreertos.a(list.o)
                                                  /home/zhouyongjian/wangshi/wmsdk_bundle-3.1.16/bin/wmsdk/libs/libfreertos.a(timers.o)
                                                  /home/zhouyongjian/wangshi/wmsdk_bundle-3.1.16/bin/wmsdk/libs/libfreertos.a(tasks.o)
vPortBiggestFreeBlockSize                         /home/zhouyongjian/wangshi/wmsdk_bundle-3.1.16/bin/wmsdk/libs/libfreertos.a(heap_4.o)
vPortEndScheduler                                 /home/zhouyongjian/wangshi/wmsdk_bundle-3.1.16/bin/wmsdk/libs/libfreertos.a(port.o)
                                                  /home/zhouyongjian/wangshi/wmsdk_bundle-3.1.16/bin/wmsdk/libs/libfreertos.a(tasks.o)
vPortEnterCritical                                /home/zhouyongjian/wangshi/wmsdk_bundle-3.1.16/bin/wmsdk/libs/libfreertos.a(port.o)
                                                  /home/zhouyongjian/wangshi/wmsdk_bundle-3.1.16/bin/wmsdk/libs/libos.a(os.o)
                                                  /home/zhouyongjian/wangshi/wmsdk_bundle-3.1.16/bin/wmsdk/libs/libmdev.a(mdev.o)
                                                  /home/zhouyongjian/wangshi/wmsdk_bundle-3.1.16/bin/wmsdk/libs/libfreertos.a(timers.o)
                                                  /home/zhouyongjian/wangshi/wmsdk_bundle-3.1.16/bin/wmsdk/libs/libfreertos.a(tasks.o)
                                                  /home/zhouyongjian/wangshi/wmsdk_bundle-3.1.16/bin/wmsdk/libs/libfreertos.a(queue.o)
vPortExitCritical                                 /home/zhouyongjian/wangshi/wmsdk_bundle-3.1.16/bin/wmsdk/libs/libfreertos.a(port.o)
                                                  /home/zhouyongjian/wangshi/wmsdk_bundle-3.1.16/bin/wmsdk/libs/libos.a(os.o)
                                                  /home/zhouyongjian/wangshi/wmsdk_bundle-3.1.16/bin/wmsdk/libs/libmdev.a(mdev.o)
                                                  /home/zhouyongjian/wangshi/wmsdk_bundle-3.1.16/bin/wmsdk/libs/libfreertos.a(timers.o)
                                                  /home/zhouyongjian/wangshi/wmsdk_bundle-3.1.16/bin/wmsdk/libs/libfreertos.a(tasks.o)
                                                  /home/zhouyongjian/wangshi/wmsdk_bundle-3.1.16/bin/wmsdk/libs/libfreertos.a(queue.o)
vPortFree                                         /home/zhouyongjian/wangshi/wmsdk_bundle-3.1.16/bin/wmsdk/libs/libfreertos.a(heap_4.o)
                                                  /home/zhouyongjian/wangshi/wmsdk_bundle-3.1.16/bin/wmsdk/libs/libdrv.a(mdev_uart.o)
                                                  /home/zhouyongjian/wangshi/wmsdk_bundle-3.1.16/bin/wmsdk/libs/libos.a(os.o)
                                                  /home/zhouyongjian/wangshi/wmsdk_bundle-3.1.16/bin/wmsdk/libs/libfreertos.a(timers.o)
                                                  /home/zhouyongjian/wangshi/wmsdk_bundle-3.1.16/bin/wmsdk/libs/libfreertos.a(tasks.o)
                                                  /home/zhouyongjian/wangshi/wmsdk_bundle-3.1.16/bin/wmsdk/libs/libfreertos.a(queue.o)
vPortInitialiseBlocks                             /home/zhouyongjian/wangshi/wmsdk_bundle-3.1.16/bin/wmsdk/libs/libfreertos.a(heap_4.o)
vPortStartFirstTask                               /home/zhouyongjian/wangshi/wmsdk_bundle-3.1.16/bin/wmsdk/libs/libfreertos.a(port.o)
vPortYieldFromISR                                 /home/zhouyongjian/wangshi/wmsdk_bundle-3.1.16/bin/wmsdk/libs/libfreertos.a(port.o)
                                                  /home/zhouyongjian/wangshi/wmsdk_bundle-3.1.16/bin/wmsdk/libs/libdrv.a(mdev_iflash.o)
                                                  /home/zhouyongjian/wangshi/wmsdk_bundle-3.1.16/bin/wmsdk/libs/libdrv.a(mdev_dma.o)
                                                  /home/zhouyongjian/wangshi/wmsdk_bundle-3.1.16/bin/wmsdk/libs/libdrv.a(mdev_uart.o)
                                                  /home/zhouyongjian/wangshi/wmsdk_bundle-3.1.16/bin/wmsdk/libs/libdrv.a(mdev_gpio.o)
                                                  /home/zhouyongjian/wangshi/wmsdk_bundle-3.1.16/bin/wmsdk/libs/libcli.a(cli.o)
                                                  /home/zhouyongjian/wangshi/wmsdk_bundle-3.1.16/bin/wmsdk/libs/libwmstdio.a(wmstdio.o)
                                                  /home/zhouyongjian/wangshi/wmsdk_bundle-3.1.16/bin/wmsdk/libs/libpwrmgr.a(pwrmgr.o)
                                                  /home/zhouyongjian/wangshi/wmsdk_bundle-3.1.16/bin/wmsdk/libs/libos.a(os.o)
                                                  /home/zhouyongjian/wangshi/wmsdk_bundle-3.1.16/bin/wmsdk/libs/libfreertos.a(timers.o)
                                                  /home/zhouyongjian/wangshi/wmsdk_bundle-3.1.16/bin/wmsdk/libs/libfreertos.a(tasks.o)
                                                  /home/zhouyongjian/wangshi/wmsdk_bundle-3.1.16/bin/wmsdk/libs/libfreertos.a(queue.o)
                                                  /home/zhouyongjian/wangshi/wmsdk_bundle-3.1.16/bin/wmsdk/libs/libdrv.a(mdev_gpt.o)
vQueueDelete                                      /home/zhouyongjian/wangshi/wmsdk_bundle-3.1.16/bin/wmsdk/libs/libfreertos.a(queue.o)
                                                  /home/zhouyongjian/wangshi/wmsdk_bundle-3.1.16/bin/wmsdk/libs/libdrv.a(mdev_dma.o)
                                                  /home/zhouyongjian/wangshi/wmsdk_bundle-3.1.16/bin/wmsdk/libs/libdrv.a(mdev_uart.o)
                                                  /home/zhouyongjian/wangshi/wmsdk_bundle-3.1.16/bin/wmsdk/libs/libcli.a(cli.o)
                                                  /home/zhouyongjian/wangshi/wmsdk_bundle-3.1.16/bin/wmsdk/libs/libos.a(os.o)
vQueueWaitForMessageRestricted                    /home/zhouyongjian/wangshi/wmsdk_bundle-3.1.16/bin/wmsdk/libs/libfreertos.a(queue.o)
                                                  /home/zhouyongjian/wangshi/wmsdk_bundle-3.1.16/bin/wmsdk/libs/libfreertos.a(timers.o)
vTaskDelay                                        /home/zhouyongjian/wangshi/wmsdk_bundle-3.1.16/bin/wmsdk/libs/libfreertos.a(tasks.o)
                                                  /home/zhouyongjian/wangshi/wmsdk_bundle-3.1.16/bin/wmsdk/libs/libcli.a(cli.o)
                                                  /home/zhouyongjian/wangshi/wmsdk_bundle-3.1.16/bin/wmsdk/libs/libos.a(os.o)
vTaskDelayAbort                                   /home/zhouyongjian/wangshi/wmsdk_bundle-3.1.16/bin/wmsdk/libs/libfreertos.a(tasks.o)
vTaskDelayUntil                                   /home/zhouyongjian/wangshi/wmsdk_bundle-3.1.16/bin/wmsdk/libs/libfreertos.a(tasks.o)
vTaskDelete                                       /home/zhouyongjian/wangshi/wmsdk_bundle-3.1.16/bin/wmsdk/libs/libfreertos.a(tasks.o)
                                                  /home/zhouyongjian/wangshi/wmsdk_bundle-3.1.16/bin/wmsdk/libs/libcli.a(cli.o)
                                                  /home/zhouyongjian/wangshi/wmsdk_bundle-3.1.16/bin/wmsdk/libs/libos.a(os.o)
vTaskEndScheduler                                 /home/zhouyongjian/wangshi/wmsdk_bundle-3.1.16/bin/wmsdk/libs/libfreertos.a(tasks.o)
vTaskIncrementTick                                /home/zhouyongjian/wangshi/wmsdk_bundle-3.1.16/bin/wmsdk/libs/libfreertos.a(tasks.o)
                                                  /home/zhouyongjian/wangshi/wmsdk_bundle-3.1.16/bin/wmsdk/libs/libfreertos.a(port.o)
vTaskList                                         /home/zhouyongjian/wangshi/wmsdk_bundle-3.1.16/bin/wmsdk/libs/libfreertos.a(tasks.o)
                                                  /home/zhouyongjian/wangshi/wmsdk_bundle-3.1.16/bin/wmsdk/libs/libos.a(os.o)
vTaskMissedYield                                  /home/zhouyongjian/wangshi/wmsdk_bundle-3.1.16/bin/wmsdk/libs/libfreertos.a(tasks.o)
                                                  /home/zhouyongjian/wangshi/wmsdk_bundle-3.1.16/bin/wmsdk/libs/libfreertos.a(queue.o)
vTaskPlaceOnEventList                             /home/zhouyongjian/wangshi/wmsdk_bundle-3.1.16/bin/wmsdk/libs/libfreertos.a(tasks.o)
                                                  /home/zhouyongjian/wangshi/wmsdk_bundle-3.1.16/bin/wmsdk/libs/libfreertos.a(queue.o)
vTaskPlaceOnEventListRestricted                   /home/zhouyongjian/wangshi/wmsdk_bundle-3.1.16/bin/wmsdk/libs/libfreertos.a(tasks.o)
                                                  /home/zhouyongjian/wangshi/wmsdk_bundle-3.1.16/bin/wmsdk/libs/libfreertos.a(queue.o)
vTaskPriorityDisinherit                           /home/zhouyongjian/wangshi/wmsdk_bundle-3.1.16/bin/wmsdk/libs/libfreertos.a(tasks.o)
                                                  /home/zhouyongjian/wangshi/wmsdk_bundle-3.1.16/bin/wmsdk/libs/libfreertos.a(queue.o)
vTaskPriorityInherit                              /home/zhouyongjian/wangshi/wmsdk_bundle-3.1.16/bin/wmsdk/libs/libfreertos.a(tasks.o)
                                                  /home/zhouyongjian/wangshi/wmsdk_bundle-3.1.16/bin/wmsdk/libs/libfreertos.a(queue.o)
vTaskPrioritySet                                  /home/zhouyongjian/wangshi/wmsdk_bundle-3.1.16/bin/wmsdk/libs/libfreertos.a(tasks.o)
vTaskResume                                       /home/zhouyongjian/wangshi/wmsdk_bundle-3.1.16/bin/wmsdk/libs/libfreertos.a(tasks.o)
vTaskSetTimeOutState                              /home/zhouyongjian/wangshi/wmsdk_bundle-3.1.16/bin/wmsdk/libs/libfreertos.a(tasks.o)
                                                  /home/zhouyongjian/wangshi/wmsdk_bundle-3.1.16/bin/wmsdk/libs/libfreertos.a(queue.o)
vTaskStartScheduler                               /home/zhouyongjian/wangshi/wmsdk_bundle-3.1.16/bin/wmsdk/libs/libfreertos.a(tasks.o)
                                                  /home/zhouyongjian/wangshi/wmsdk_bundle-3.1.16/bin/wmsdk/libs/libos.a(os.o)
vTaskStartTrace                                   /home/zhouyongjian/wangshi/wmsdk_bundle-3.1.16/bin/wmsdk/libs/libfreertos.a(tasks.o)
vTaskSuspend                                      /home/zhouyongjian/wangshi/wmsdk_bundle-3.1.16/bin/wmsdk/libs/libfreertos.a(tasks.o)
                                                  /home/zhouyongjian/wangshi/wmsdk_bundle-3.1.16/bin/wmsdk/libs/libcli.a(cli.o)
                                                  /home/zhouyongjian/wangshi/wmsdk_bundle-3.1.16/bin/wmsdk/libs/libos.a(os.o)
vTaskSuspendAll                                   /home/zhouyongjian/wangshi/wmsdk_bundle-3.1.16/bin/wmsdk/libs/libfreertos.a(tasks.o)
                                                  /home/zhouyongjian/wangshi/wmsdk_bundle-3.1.16/bin/wmsdk/libs/libfreertos.a(heap_4.o)
                                                  /home/zhouyongjian/wangshi/wmsdk_bundle-3.1.16/bin/wmsdk/libs/libfreertos.a(timers.o)
                                                  /home/zhouyongjian/wangshi/wmsdk_bundle-3.1.16/bin/wmsdk/libs/libfreertos.a(queue.o)
vTaskSwitchContext                                /home/zhouyongjian/wangshi/wmsdk_bundle-3.1.16/bin/wmsdk/libs/libfreertos.a(tasks.o)
                                                  /home/zhouyongjian/wangshi/wmsdk_bundle-3.1.16/bin/wmsdk/libs/libfreertos.a(port.o)
vsnprintf                                         /home/zhouyongjian/wangshi/wmsdk_bundle-3.1.16/bin/wmsdk/libs/libc.a(vsnprintf.o)
                                                  /home/zhouyongjian/wangshi/wmsdk_bundle-3.1.16/bin/wmsdk/libs/libc.a(sprintf.o)
                                                  /home/zhouyongjian/wangshi/wmsdk_bundle-3.1.16/bin/wmsdk/libs/libc.a(snprintf.o)
                                                  /home/zhouyongjian/wangshi/wmsdk_bundle-3.1.16/bin/wmsdk/libs/libwmstdio.a(wmstdio.o)
vsscanf                                           /home/zhouyongjian/wangshi/wmsdk_bundle-3.1.16/bin/wmsdk/libs/libc.a(vsscanf.o)
                                                  /home/zhouyongjian/wangshi/wmsdk_bundle-3.1.16/bin/wmsdk/libs/libc.a(sscanf.o)
wakelock_get                                      /home/zhouyongjian/wangshi/wmsdk_bundle-3.1.16/bin/wmsdk/libs/libpwrmgr.a(pwrmgr.o)
wakelock_get_debug                                /home/zhouyongjian/wangshi/wmsdk_bundle-3.1.16/bin/wmsdk/libs/libpwrmgr.a(pwrmgr.o)
wakelock_isheld                                   /home/zhouyongjian/wangshi/wmsdk_bundle-3.1.16/bin/wmsdk/libs/libpwrmgr.a(pwrmgr.o)
                                                  /home/zhouyongjian/wangshi/wmsdk_bundle-3.1.16/bin/wmsdk/libs/libdrv.a(mdev_pm.o)
wakelock_put                                      /home/zhouyongjian/wangshi/wmsdk_bundle-3.1.16/bin/wmsdk/libs/libpwrmgr.a(pwrmgr.o)
wakelock_put_debug                                /home/zhouyongjian/wangshi/wmsdk_bundle-3.1.16/bin/wmsdk/libs/libpwrmgr.a(pwrmgr.o)
wdtIntCb                                          /home/zhouyongjian/wangshi/wmsdk_bundle-3.1.16/bin/wmsdk/libs/libdrv.a(mw300_driver.o)
wifiwakeupIntCb                                   /home/zhouyongjian/wangshi/wmsdk_bundle-3.1.16/bin/wmsdk/libs/libdrv.a(mw300_driver.o)
wmprintf                                          /home/zhouyongjian/wangshi/wmsdk_bundle-3.1.16/bin/wmsdk/libs/libwmstdio.a(wmstdio.o)
                                                  /home/zhouyongjian/wangshi/wmsdk_bundle-3.1.16/bin/wmsdk/libs/libdrv.a(mdev_iflash.o)
                                                  /home/zhouyongjian/wangshi/wmsdk_bundle-3.1.16/bin/wmsdk/libs/libdrv.a(mdev_dma.o)
                                                  /home/zhouyongjian/wangshi/wmsdk_bundle-3.1.16/bin/wmsdk/libs/libdrv.a(mdev_uart.o)
                                                  /home/zhouyongjian/wangshi/wmsdk_bundle-3.1.16/bin/wmsdk/libs/libdrv.a(mdev_gpio.o)
                                                  /home/zhouyongjian/wangshi/wmsdk_bundle-3.1.16/bin/wmsdk/libs/libcli.a(cli.o)
                                                  obj/electric_measure.o
                                                  /home/zhouyongjian/wangshi/wmsdk_bundle-3.1.16/bin/wmsdk/libs/libutil.a(critical_error.o)
                                                  /home/zhouyongjian/wangshi/wmsdk_bundle-3.1.16/bin/wmsdk/libs/libutil.a(boot_flags.o)
                                                  /home/zhouyongjian/wangshi/wmsdk_bundle-3.1.16/bin/wmsdk/libs/libpwrmgr.a(pwrmgr.o)
                                                  /home/zhouyongjian/wangshi/wmsdk_bundle-3.1.16/bin/wmsdk/libs/libos.a(os.o)
                                                  /home/zhouyongjian/wangshi/wmsdk_bundle-3.1.16/bin/wmsdk/libs/libdrv.a(mdev_gpt.o)
                                                  /home/zhouyongjian/wangshi/wmsdk_bundle-3.1.16/bin/wmsdk/libs/libdrv.a(mdev_rtc.o)
                                                  /home/zhouyongjian/wangshi/wmsdk_bundle-3.1.16/bin/wmsdk/libs/libdrv.a(mdev_pm.o)
wmstdio_flush                                     /home/zhouyongjian/wangshi/wmsdk_bundle-3.1.16/bin/wmsdk/libs/libwmstdio.a(wmstdio.o)
                                                  /home/zhouyongjian/wangshi/wmsdk_bundle-3.1.16/bin/wmsdk/libs/libcli.a(cli.o)
wmstdio_getchar                                   /home/zhouyongjian/wangshi/wmsdk_bundle-3.1.16/bin/wmsdk/libs/libwmstdio.a(wmstdio.o)
                                                  /home/zhouyongjian/wangshi/wmsdk_bundle-3.1.16/bin/wmsdk/libs/libcli.a(cli.o)
wmstdio_getconsole_port                           /home/zhouyongjian/wangshi/wmsdk_bundle-3.1.16/bin/wmsdk/libs/libwmstdio.a(wmstdio.o)
wmstdio_init                                      /home/zhouyongjian/wangshi/wmsdk_bundle-3.1.16/bin/wmsdk/libs/libwmstdio.a(wmstdio.o)
wmstdio_putchar                                   /home/zhouyongjian/wangshi/wmsdk_bundle-3.1.16/bin/wmsdk/libs/libwmstdio.a(wmstdio.o)
xPortGetFreeHeapSize                              /home/zhouyongjian/wangshi/wmsdk_bundle-3.1.16/bin/wmsdk/libs/libfreertos.a(heap_4.o)
xPortStartScheduler                               /home/zhouyongjian/wangshi/wmsdk_bundle-3.1.16/bin/wmsdk/libs/libfreertos.a(port.o)
                                                  /home/zhouyongjian/wangshi/wmsdk_bundle-3.1.16/bin/wmsdk/libs/libfreertos.a(tasks.o)
xQueueCreate                                      /home/zhouyongjian/wangshi/wmsdk_bundle-3.1.16/bin/wmsdk/libs/libfreertos.a(queue.o)
                                                  /home/zhouyongjian/wangshi/wmsdk_bundle-3.1.16/bin/wmsdk/libs/libdrv.a(mdev_dma.o)
                                                  /home/zhouyongjian/wangshi/wmsdk_bundle-3.1.16/bin/wmsdk/libs/libdrv.a(mdev_uart.o)
                                                  /home/zhouyongjian/wangshi/wmsdk_bundle-3.1.16/bin/wmsdk/libs/libos.a(os.o)
                                                  /home/zhouyongjian/wangshi/wmsdk_bundle-3.1.16/bin/wmsdk/libs/libfreertos.a(timers.o)
xQueueCreateCountingSemaphore                     /home/zhouyongjian/wangshi/wmsdk_bundle-3.1.16/bin/wmsdk/libs/libfreertos.a(queue.o)
                                                  /home/zhouyongjian/wangshi/wmsdk_bundle-3.1.16/bin/wmsdk/libs/libpwrmgr.a(pwrmgr.o)
xQueueCreateMutex                                 /home/zhouyongjian/wangshi/wmsdk_bundle-3.1.16/bin/wmsdk/libs/libfreertos.a(queue.o)
                                                  /home/zhouyongjian/wangshi/wmsdk_bundle-3.1.16/bin/wmsdk/libs/libdrv.a(mdev_iflash.o)
                                                  /home/zhouyongjian/wangshi/wmsdk_bundle-3.1.16/bin/wmsdk/libs/libdrv.a(mdev_dma.o)
                                                  /home/zhouyongjian/wangshi/wmsdk_bundle-3.1.16/bin/wmsdk/libs/libdrv.a(mdev_uart.o)
                                                  /home/zhouyongjian/wangshi/wmsdk_bundle-3.1.16/bin/wmsdk/libs/libdrv.a(mdev_gpio.o)
                                                  /home/zhouyongjian/wangshi/wmsdk_bundle-3.1.16/bin/wmsdk/libs/libcli.a(cli.o)
                                                  /home/zhouyongjian/wangshi/wmsdk_bundle-3.1.16/bin/wmsdk/libs/libwmstdio.a(wmstdio.o)
                                                  /home/zhouyongjian/wangshi/wmsdk_bundle-3.1.16/bin/wmsdk/libs/libos.a(os.o)
                                                  /home/zhouyongjian/wangshi/wmsdk_bundle-3.1.16/bin/wmsdk/libs/libdrv.a(mdev_gpt.o)
xQueueGenericReceive                              /home/zhouyongjian/wangshi/wmsdk_bundle-3.1.16/bin/wmsdk/libs/libfreertos.a(queue.o)
                                                  /home/zhouyongjian/wangshi/wmsdk_bundle-3.1.16/bin/wmsdk/libs/libdrv.a(mdev_iflash.o)
                                                  /home/zhouyongjian/wangshi/wmsdk_bundle-3.1.16/bin/wmsdk/libs/libdrv.a(mdev_dma.o)
                                                  /home/zhouyongjian/wangshi/wmsdk_bundle-3.1.16/bin/wmsdk/libs/libdrv.a(mdev_uart.o)
                                                  /home/zhouyongjian/wangshi/wmsdk_bundle-3.1.16/bin/wmsdk/libs/libdrv.a(mdev_gpio.o)
                                                  /home/zhouyongjian/wangshi/wmsdk_bundle-3.1.16/bin/wmsdk/libs/libcli.a(cli.o)
                                                  /home/zhouyongjian/wangshi/wmsdk_bundle-3.1.16/bin/wmsdk/libs/libwmstdio.a(wmstdio.o)
                                                  /home/zhouyongjian/wangshi/wmsdk_bundle-3.1.16/bin/wmsdk/libs/libpwrmgr.a(pwrmgr.o)
                                                  /home/zhouyongjian/wangshi/wmsdk_bundle-3.1.16/bin/wmsdk/libs/libos.a(os.o)
                                                  /home/zhouyongjian/wangshi/wmsdk_bundle-3.1.16/bin/wmsdk/libs/libfreertos.a(timers.o)
                                                  /home/zhouyongjian/wangshi/wmsdk_bundle-3.1.16/bin/wmsdk/libs/libdrv.a(mdev_gpt.o)
xQueueGenericSend                                 /home/zhouyongjian/wangshi/wmsdk_bundle-3.1.16/bin/wmsdk/libs/libfreertos.a(queue.o)
                                                  /home/zhouyongjian/wangshi/wmsdk_bundle-3.1.16/bin/wmsdk/libs/libdrv.a(mdev_iflash.o)
                                                  /home/zhouyongjian/wangshi/wmsdk_bundle-3.1.16/bin/wmsdk/libs/libdrv.a(mdev_dma.o)
                                                  /home/zhouyongjian/wangshi/wmsdk_bundle-3.1.16/bin/wmsdk/libs/libdrv.a(mdev_uart.o)
                                                  /home/zhouyongjian/wangshi/wmsdk_bundle-3.1.16/bin/wmsdk/libs/libdrv.a(mdev_gpio.o)
                                                  /home/zhouyongjian/wangshi/wmsdk_bundle-3.1.16/bin/wmsdk/libs/libcli.a(cli.o)
                                                  /home/zhouyongjian/wangshi/wmsdk_bundle-3.1.16/bin/wmsdk/libs/libwmstdio.a(wmstdio.o)
                                                  /home/zhouyongjian/wangshi/wmsdk_bundle-3.1.16/bin/wmsdk/libs/libpwrmgr.a(pwrmgr.o)
                                                  /home/zhouyongjian/wangshi/wmsdk_bundle-3.1.16/bin/wmsdk/libs/libos.a(os.o)
                                                  /home/zhouyongjian/wangshi/wmsdk_bundle-3.1.16/bin/wmsdk/libs/libfreertos.a(timers.o)
                                                  /home/zhouyongjian/wangshi/wmsdk_bundle-3.1.16/bin/wmsdk/libs/libdrv.a(mdev_gpt.o)
xQueueGenericSendFromISR                          /home/zhouyongjian/wangshi/wmsdk_bundle-3.1.16/bin/wmsdk/libs/libfreertos.a(queue.o)
                                                  /home/zhouyongjian/wangshi/wmsdk_bundle-3.1.16/bin/wmsdk/libs/libdrv.a(mdev_iflash.o)
                                                  /home/zhouyongjian/wangshi/wmsdk_bundle-3.1.16/bin/wmsdk/libs/libdrv.a(mdev_dma.o)
                                                  /home/zhouyongjian/wangshi/wmsdk_bundle-3.1.16/bin/wmsdk/libs/libdrv.a(mdev_uart.o)
                                                  /home/zhouyongjian/wangshi/wmsdk_bundle-3.1.16/bin/wmsdk/libs/libdrv.a(mdev_gpio.o)
                                                  /home/zhouyongjian/wangshi/wmsdk_bundle-3.1.16/bin/wmsdk/libs/libcli.a(cli.o)
                                                  /home/zhouyongjian/wangshi/wmsdk_bundle-3.1.16/bin/wmsdk/libs/libwmstdio.a(wmstdio.o)
                                                  /home/zhouyongjian/wangshi/wmsdk_bundle-3.1.16/bin/wmsdk/libs/libpwrmgr.a(pwrmgr.o)
                                                  /home/zhouyongjian/wangshi/wmsdk_bundle-3.1.16/bin/wmsdk/libs/libos.a(os.o)
                                                  /home/zhouyongjian/wangshi/wmsdk_bundle-3.1.16/bin/wmsdk/libs/libfreertos.a(timers.o)
                                                  /home/zhouyongjian/wangshi/wmsdk_bundle-3.1.16/bin/wmsdk/libs/libdrv.a(mdev_gpt.o)
xQueueGiveMutexRecursive                          /home/zhouyongjian/wangshi/wmsdk_bundle-3.1.16/bin/wmsdk/libs/libfreertos.a(queue.o)
xQueueIsQueueEmptyFromISR                         /home/zhouyongjian/wangshi/wmsdk_bundle-3.1.16/bin/wmsdk/libs/libfreertos.a(queue.o)
xQueueIsQueueFullFromISR                          /home/zhouyongjian/wangshi/wmsdk_bundle-3.1.16/bin/wmsdk/libs/libfreertos.a(queue.o)
xQueueReceiveFromISR                              /home/zhouyongjian/wangshi/wmsdk_bundle-3.1.16/bin/wmsdk/libs/libfreertos.a(queue.o)
xQueueTakeMutexRecursive                          /home/zhouyongjian/wangshi/wmsdk_bundle-3.1.16/bin/wmsdk/libs/libfreertos.a(queue.o)
xTaskCheckForTimeOut                              /home/zhouyongjian/wangshi/wmsdk_bundle-3.1.16/bin/wmsdk/libs/libfreertos.a(tasks.o)
                                                  /home/zhouyongjian/wangshi/wmsdk_bundle-3.1.16/bin/wmsdk/libs/libfreertos.a(queue.o)
xTaskGenericCreate                                /home/zhouyongjian/wangshi/wmsdk_bundle-3.1.16/bin/wmsdk/libs/libfreertos.a(tasks.o)
                                                  /home/zhouyongjian/wangshi/wmsdk_bundle-3.1.16/bin/wmsdk/libs/libos.a(os.o)
                                                  /home/zhouyongjian/wangshi/wmsdk_bundle-3.1.16/bin/wmsdk/libs/libfreertos.a(timers.o)
xTaskGetCurrentTaskHandle                         /home/zhouyongjian/wangshi/wmsdk_bundle-3.1.16/bin/wmsdk/libs/libfreertos.a(tasks.o)
                                                  /home/zhouyongjian/wangshi/wmsdk_bundle-3.1.16/bin/wmsdk/libs/libfreertos.a(queue.o)
xTaskGetSchedulerState                            /home/zhouyongjian/wangshi/wmsdk_bundle-3.1.16/bin/wmsdk/libs/libfreertos.a(tasks.o)
                                                  /home/zhouyongjian/wangshi/wmsdk_bundle-3.1.16/bin/wmsdk/libs/libfreertos.a(timers.o)
xTaskGetTickCount                                 /home/zhouyongjian/wangshi/wmsdk_bundle-3.1.16/bin/wmsdk/libs/libfreertos.a(tasks.o)
                                                  /home/zhouyongjian/wangshi/wmsdk_bundle-3.1.16/bin/wmsdk/libs/libos.a(os.o)
                                                  /home/zhouyongjian/wangshi/wmsdk_bundle-3.1.16/bin/wmsdk/libs/libfreertos.a(timers.o)
xTaskGetTickCountFromISR                          /home/zhouyongjian/wangshi/wmsdk_bundle-3.1.16/bin/wmsdk/libs/libfreertos.a(tasks.o)
xTaskGetTotalTickCount                            /home/zhouyongjian/wangshi/wmsdk_bundle-3.1.16/bin/wmsdk/libs/libfreertos.a(tasks.o)
xTaskGetUnblockTime                               /home/zhouyongjian/wangshi/wmsdk_bundle-3.1.16/bin/wmsdk/libs/libfreertos.a(tasks.o)
                                                  /home/zhouyongjian/wangshi/wmsdk_bundle-3.1.16/bin/wmsdk/libs/libdrv.a(mdev_pm.o)
xTaskIsTaskSuspended                              /home/zhouyongjian/wangshi/wmsdk_bundle-3.1.16/bin/wmsdk/libs/libfreertos.a(tasks.o)
xTaskRemoveFromEventList                          /home/zhouyongjian/wangshi/wmsdk_bundle-3.1.16/bin/wmsdk/libs/libfreertos.a(tasks.o)
                                                  /home/zhouyongjian/wangshi/wmsdk_bundle-3.1.16/bin/wmsdk/libs/libfreertos.a(queue.o)
xTaskResumeAll                                    /home/zhouyongjian/wangshi/wmsdk_bundle-3.1.16/bin/wmsdk/libs/libfreertos.a(tasks.o)
                                                  /home/zhouyongjian/wangshi/wmsdk_bundle-3.1.16/bin/wmsdk/libs/libfreertos.a(heap_4.o)
                                                  /home/zhouyongjian/wangshi/wmsdk_bundle-3.1.16/bin/wmsdk/libs/libfreertos.a(timers.o)
                                                  /home/zhouyongjian/wangshi/wmsdk_bundle-3.1.16/bin/wmsdk/libs/libfreertos.a(queue.o)
xTaskResumeFromISR                                /home/zhouyongjian/wangshi/wmsdk_bundle-3.1.16/bin/wmsdk/libs/libfreertos.a(tasks.o)
xTaskUpdateTickCount                              /home/zhouyongjian/wangshi/wmsdk_bundle-3.1.16/bin/wmsdk/libs/libfreertos.a(tasks.o)
                                                  /home/zhouyongjian/wangshi/wmsdk_bundle-3.1.16/bin/wmsdk/libs/libdrv.a(mdev_pm.o)
xTimerCreate                                      /home/zhouyongjian/wangshi/wmsdk_bundle-3.1.16/bin/wmsdk/libs/libfreertos.a(timers.o)
                                                  /home/zhouyongjian/wangshi/wmsdk_bundle-3.1.16/bin/wmsdk/libs/libos.a(os.o)
xTimerCreateTimerTask                             /home/zhouyongjian/wangshi/wmsdk_bundle-3.1.16/bin/wmsdk/libs/libfreertos.a(timers.o)
                                                  /home/zhouyongjian/wangshi/wmsdk_bundle-3.1.16/bin/wmsdk/libs/libfreertos.a(tasks.o)
xTimerGenericCommand                              /home/zhouyongjian/wangshi/wmsdk_bundle-3.1.16/bin/wmsdk/libs/libfreertos.a(timers.o)
                                                  /home/zhouyongjian/wangshi/wmsdk_bundle-3.1.16/bin/wmsdk/libs/libos.a(os.o)
xTimerIsTimerActive                               /home/zhouyongjian/wangshi/wmsdk_bundle-3.1.16/bin/wmsdk/libs/libfreertos.a(timers.o)
