Archive member included because of file (symbol)

/home/wang/wmsdk_bundle-3.1.16/bin/wmsdk/libs/libdrv.a(mdev_startup.o)
                              (Reset_IRQHandler)
/home/wang/wmsdk_bundle-3.1.16/bin/wmsdk/libs/libdrv.a(mdev_pm.o)
                              /home/wang/wmsdk_bundle-3.1.16/bin/wmsdk/libs/libdrv.a(mdev_startup.o) (pm4_sig)
/home/wang/wmsdk_bundle-3.1.16/bin/wmsdk/libs/libdrv.a(mw300_clock.o)
                              /home/wang/wmsdk_bundle-3.1.16/bin/wmsdk/libs/libdrv.a(mdev_startup.o) (CLK_SystemClkSrc)
/home/wang/wmsdk_bundle-3.1.16/bin/wmsdk/libs/libdrv.a(mw300_driver.o)
                              /home/wang/wmsdk_bundle-3.1.16/bin/wmsdk/libs/libdrv.a(mdev_pm.o) (install_int_callback)
/home/wang/wmsdk_bundle-3.1.16/bin/wmsdk/libs/libdrv.a(mw300_pmu.o)
                              /home/wang/wmsdk_bundle-3.1.16/bin/wmsdk/libs/libdrv.a(mdev_pm.o) (PMU_SetSleepMode)
/home/wang/wmsdk_bundle-3.1.16/bin/wmsdk/libs/libdrv.a(mdev_rtc.o)
                              /home/wang/wmsdk_bundle-3.1.16/bin/wmsdk/libs/libdrv.a(mdev_pm.o) (rtc_drv_set_alarm_cb)
/home/wang/wmsdk_bundle-3.1.16/bin/wmsdk/libs/libdrv.a(mw300_pinmux.o)
                              /home/wang/wmsdk_bundle-3.1.16/bin/wmsdk/libs/libdrv.a(mdev_rtc.o) (GPIO_PinMuxFun)
/home/wang/wmsdk_bundle-3.1.16/bin/wmsdk/libs/libdrv.a(mw300_rtc.o)
                              /home/wang/wmsdk_bundle-3.1.16/bin/wmsdk/libs/libdrv.a(mdev_rtc.o) (RTC_CounterReset)
/home/wang/wmsdk_bundle-3.1.16/bin/wmsdk/libs/libdrv.a(mdev_gpt.o)
                              /home/wang/wmsdk_bundle-3.1.16/bin/wmsdk/libs/libdrv.a(mdev_rtc.o) (gpt_drv_open)
/home/wang/wmsdk_bundle-3.1.16/bin/wmsdk/libs/libdrv.a(mw300_gpt.o)
                              /home/wang/wmsdk_bundle-3.1.16/bin/wmsdk/libs/libdrv.a(mdev_gpt.o) (GPT_Init)
/home/wang/wmsdk_bundle-3.1.16/bin/wmsdk/libs/libfreertos.a(queue.o)
                              /home/wang/wmsdk_bundle-3.1.16/bin/wmsdk/libs/libdrv.a(mdev_gpt.o) (xQueueGenericSend)
/home/wang/wmsdk_bundle-3.1.16/bin/wmsdk/libs/libfreertos.a(tasks.o)
                              /home/wang/wmsdk_bundle-3.1.16/bin/wmsdk/libs/libfreertos.a(queue.o) (vTaskSuspendAll)
/home/wang/wmsdk_bundle-3.1.16/bin/wmsdk/libs/libfreertos.a(timers.o)
                              /home/wang/wmsdk_bundle-3.1.16/bin/wmsdk/libs/libfreertos.a(tasks.o) (xTimerCreateTimerTask)
/home/wang/wmsdk_bundle-3.1.16/bin/wmsdk/libs/libfreertos.a(port.o)
                              /home/wang/wmsdk_bundle-3.1.16/bin/wmsdk/libs/libfreertos.a(tasks.o) (pxPortInitialiseStack)
/home/wang/wmsdk_bundle-3.1.16/bin/wmsdk/libs/libfreertos.a(heap_4.o)
                              /home/wang/wmsdk_bundle-3.1.16/bin/wmsdk/libs/libfreertos.a(queue.o) (pvPortMalloc)
/home/wang/wmsdk_bundle-3.1.16/bin/wmsdk/libs/libfreertos.a(list.o)
                              /home/wang/wmsdk_bundle-3.1.16/bin/wmsdk/libs/libfreertos.a(queue.o) (vListInitialise)
/home/wang/wmsdk_bundle-3.1.16/bin/wmsdk/libs/libmdev.a(mdev.o)
                              /home/wang/wmsdk_bundle-3.1.16/bin/wmsdk/libs/libdrv.a(mdev_rtc.o) (mdev_register)
/home/wang/wmsdk_bundle-3.1.16/bin/wmsdk/libs/libos.a(os.o)
                              /home/wang/wmsdk_bundle-3.1.16/bin/wmsdk/libs/libfreertos.a(tasks.o) (vApplicationStackOverflowHook)
/home/wang/wmsdk_bundle-3.1.16/bin/wmsdk/libs/libpwrmgr.a(pwrmgr.o)
                              /home/wang/wmsdk_bundle-3.1.16/bin/wmsdk/libs/libdrv.a(mdev_rtc.o) (pm_register_cb)
/home/wang/wmsdk_bundle-3.1.16/bin/wmsdk/libs/libutil.a(boot_flags.o)
                              /home/wang/wmsdk_bundle-3.1.16/bin/wmsdk/libs/libdrv.a(mdev_startup.o) (boot_init)
/home/wang/wmsdk_bundle-3.1.16/bin/wmsdk/libs/libutil.a(critical_error.o)
                              /home/wang/wmsdk_bundle-3.1.16/bin/wmsdk/libs/libdrv.a(mdev_startup.o) (critical_error)
/home/wang/wmsdk_bundle-3.1.16/bin/wmsdk/libs/libwmstdio.a(wmstdio.o)
                              /home/wang/wmsdk_bundle-3.1.16/bin/wmsdk/libs/libdrv.a(mdev_pm.o) (wmprintf)
/home/wang/wmsdk_bundle-3.1.16/bin/wmsdk/libs/libwmstdio.a(console.o)
                              /home/wang/wmsdk_bundle-3.1.16/bin/wmsdk/libs/libwmstdio.a(wmstdio.o) (serial_console_printf)
/home/wang/wmsdk_bundle-3.1.16/bin/wmsdk/libs/libwmtime.a(hwrtc.o)
                              /home/wang/wmsdk_bundle-3.1.16/bin/wmsdk/libs/libpwrmgr.a(pwrmgr.o) (hwrtc_time_update)
/home/wang/wmsdk_bundle-3.1.16/bin/wmsdk/libs/libc.a(atoi.o)
                              /home/wang/wmsdk_bundle-3.1.16/bin/wmsdk/libs/libpwrmgr.a(pwrmgr.o) (atoi)
/home/wang/wmsdk_bundle-3.1.16/bin/wmsdk/libs/libc.a(memcmp.o)
                              /home/wang/wmsdk_bundle-3.1.16/bin/wmsdk/libs/libfreertos.a(tasks.o) (memcmp)
/home/wang/wmsdk_bundle-3.1.16/bin/wmsdk/libs/libc.a(snprintf.o)
                              /home/wang/wmsdk_bundle-3.1.16/bin/wmsdk/libs/libfreertos.a(tasks.o) (snprintf)
/home/wang/wmsdk_bundle-3.1.16/bin/wmsdk/libs/libc.a(sprintf.o)
                              /home/wang/wmsdk_bundle-3.1.16/bin/wmsdk/libs/libfreertos.a(tasks.o) (sprintf)
/home/wang/wmsdk_bundle-3.1.16/bin/wmsdk/libs/libc.a(sscanf.o)
                              /home/wang/wmsdk_bundle-3.1.16/bin/wmsdk/libs/libos.a(os.o) (sscanf)
/home/wang/wmsdk_bundle-3.1.16/bin/wmsdk/libs/libc.a(vsnprintf.o)
                              /home/wang/wmsdk_bundle-3.1.16/bin/wmsdk/libs/libwmstdio.a(wmstdio.o) (vsnprintf)
/home/wang/wmsdk_bundle-3.1.16/bin/wmsdk/libs/libc.a(vsscanf.o)
                              /home/wang/wmsdk_bundle-3.1.16/bin/wmsdk/libs/libc.a(sscanf.o) (vsscanf)
/home/wang/wmsdk_bundle-3.1.16/bin/wmsdk/libs/libc.a(strcmp.o)
                              /home/wang/wmsdk_bundle-3.1.16/bin/wmsdk/libs/libmdev.a(mdev.o) (strcmp)
/home/wang/wmsdk_bundle-3.1.16/bin/wmsdk/libs/libc.a(strncmp.o)
                              /home/wang/wmsdk_bundle-3.1.16/bin/wmsdk/libs/libos.a(os.o) (strncmp)
/home/wang/wmsdk_bundle-3.1.16/bin/wmsdk/libs/libc.a(strncpy.o)
                              /home/wang/wmsdk_bundle-3.1.16/bin/wmsdk/libs/libfreertos.a(tasks.o) (strncpy)
/home/wang/wmsdk_bundle-3.1.16/bin/wmsdk/libs/libc.a(strcat.o)
                              /home/wang/wmsdk_bundle-3.1.16/bin/wmsdk/libs/libfreertos.a(tasks.o) (strcat)
/home/wang/wmsdk_bundle-3.1.16/bin/wmsdk/libs/libc.a(strlen.o)
                              /home/wang/wmsdk_bundle-3.1.16/bin/wmsdk/libs/libfreertos.a(tasks.o) (strlen)
/home/wang/wmsdk_bundle-3.1.16/bin/wmsdk/libs/libc.a(strchr.o)
                              /home/wang/wmsdk_bundle-3.1.16/bin/wmsdk/libs/libc.a(strcat.o) (strchr)
/home/wang/wmsdk_bundle-3.1.16/bin/wmsdk/libs/libc.a(strstr.o)
                              /home/wang/wmsdk_bundle-3.1.16/bin/wmsdk/libs/libos.a(os.o) (strstr)
/home/wang/wmsdk_bundle-3.1.16/bin/wmsdk/libs/libc.a(strtok.o)
                              /home/wang/wmsdk_bundle-3.1.16/bin/wmsdk/libs/libos.a(os.o) (strtok)
/home/wang/wmsdk_bundle-3.1.16/bin/wmsdk/libs/libc.a(strtok_r.o)
                              /home/wang/wmsdk_bundle-3.1.16/bin/wmsdk/libs/libc.a(strtok.o) (strtok_r)
/home/wang/wmsdk_bundle-3.1.16/bin/wmsdk/libs/libc.a(strntoumax.o)
                              /home/wang/wmsdk_bundle-3.1.16/bin/wmsdk/libs/libc.a(atoi.o) (strntoumax)
/home/wang/wmsdk_bundle-3.1.16/bin/wmsdk/libs/libc.a(ctypes.o)
                              /home/wang/wmsdk_bundle-3.1.16/bin/wmsdk/libs/libc.a(vsscanf.o) (__ctypes)
/home/wang/wmsdk_bundle-3.1.16/bin/wmsdk/libs/libc.a(memmem.o)
                              /home/wang/wmsdk_bundle-3.1.16/bin/wmsdk/libs/libc.a(strstr.o) (memmem)
/home/wang/wmsdk_bundle-3.1.16/bin/wmsdk/libs/libc.a(strcpy.o)
                              /home/wang/wmsdk_bundle-3.1.16/bin/wmsdk/libs/libc.a(strcat.o) (strcpy)
/home/wang/wmsdk_bundle-3.1.16/bin/wmsdk/libs/libc.a(strsep.o)
                              /home/wang/wmsdk_bundle-3.1.16/bin/wmsdk/libs/libc.a(strtok_r.o) (strsep)
/home/wang/wmsdk_bundle-3.1.16/bin/wmsdk/libs/libc.a(strpbrk.o)
                              /home/wang/wmsdk_bundle-3.1.16/bin/wmsdk/libs/libc.a(strsep.o) (strpbrk)
/home/wang/wmsdk_bundle-3.1.16/bin/wmsdk/libs/libc.a(strxspn.o)
                              /home/wang/wmsdk_bundle-3.1.16/bin/wmsdk/libs/libc.a(strpbrk.o) (__strxspn)
/home/wang/wmsdk_bundle-3.1.16/bin/wmsdk/libs/libcli.a(cli.o)
                              /home/wang/wmsdk_bundle-3.1.16/bin/wmsdk/libs/libpwrmgr.a(pwrmgr.o) (cli_register_command)
/home/wang/wmsdk_bundle-3.1.16/bin/wmsdk/libs/libcli.a(cli_mem_simple.o)
                              /home/wang/wmsdk_bundle-3.1.16/bin/wmsdk/libs/libcli.a(cli.o) (cli_mem_cleanup)
/home/wang/wmsdk_bundle-3.1.16/bin/wmsdk/libs/libdrv.a(mw300_gpio.o)
                              obj/board.o (GPIO_SetPinDir)
/home/wang/wmsdk_bundle-3.1.16/bin/wmsdk/libs/libdrv.a(mw300_uart.o)
                              /home/wang/wmsdk_bundle-3.1.16/bin/wmsdk/libs/libwmstdio.a(wmstdio.o) (UART_WriteLine)
/home/wang/wmsdk_bundle-3.1.16/bin/wmsdk/libs/libdrv.a(mdev_uart.o)
                              /home/wang/wmsdk_bundle-3.1.16/bin/wmsdk/libs/libwmstdio.a(console.o) (uart_drv_open)
/home/wang/wmsdk_bundle-3.1.16/bin/wmsdk/libs/libdrv.a(mdev_dma.o)
                              /home/wang/wmsdk_bundle-3.1.16/bin/wmsdk/libs/libdrv.a(mdev_uart.o) (dma_drv_init)
/home/wang/wmsdk_bundle-3.1.16/bin/wmsdk/libs/libdrv.a(mw300_dma.o)
                              /home/wang/wmsdk_bundle-3.1.16/bin/wmsdk/libs/libdrv.a(mdev_uart.o) (DMA_ChannelInit)
/home/wang/wmsdk_bundle-3.1.16/bin/wmsdk/libs/libutil.a(flash.o)
                              obj/audio_read_write.o (flash_drv_erase)
/home/wang/wmsdk_bundle-3.1.16/bin/wmsdk/libs/libc.a(strcasecmp.o)
                              /home/wang/wmsdk_bundle-3.1.16/bin/wmsdk/libs/libcli.a(cli.o) (strcasecmp)
/home/wang/wmsdk_bundle-3.1.16/bin/wmsdk/libs/libdrv.a(mdev_iflash.o)
                              /home/wang/wmsdk_bundle-3.1.16/bin/wmsdk/libs/libutil.a(flash.o) (iflash_drv_open)
/home/wang/wmsdk_bundle-3.1.16/bin/wmsdk/libs/libdrv.a(mw300_flash.o)
                              /home/wang/wmsdk_bundle-3.1.16/bin/wmsdk/libs/libdrv.a(mdev_iflash.o) (FLASH_ResetFastReadQuad)
/home/wang/wmsdk_bundle-3.1.16/bin/wmsdk/libs/libdrv.a(mw300_qspi.o)
                              /home/wang/wmsdk_bundle-3.1.16/bin/wmsdk/libs/libdrv.a(mw300_flash.o) (QSPI_FlushFIFO)
/home/wang/work/gcc-arm-none-eabi-4_8-2014q2/bin/../lib/gcc/arm-none-eabi/4.8.4/armv7e-m/libgcc.a(_arm_addsubdf3.o)
                              /home/wang/wmsdk_bundle-3.1.16/bin/wmsdk/libs/libdrv.a(mdev_startup.o) (__aeabi_dadd)
/home/wang/work/gcc-arm-none-eabi-4_8-2014q2/bin/../lib/gcc/arm-none-eabi/4.8.4/armv7e-m/libgcc.a(_arm_muldivdf3.o)
                              /home/wang/wmsdk_bundle-3.1.16/bin/wmsdk/libs/libdrv.a(mdev_startup.o) (__aeabi_ddiv)
/home/wang/work/gcc-arm-none-eabi-4_8-2014q2/bin/../lib/gcc/arm-none-eabi/4.8.4/armv7e-m/libgcc.a(_arm_fixdfsi.o)
                              /home/wang/wmsdk_bundle-3.1.16/bin/wmsdk/libs/libdrv.a(mdev_startup.o) (__aeabi_d2iz)
/home/wang/work/gcc-arm-none-eabi-4_8-2014q2/bin/../lib/gcc/arm-none-eabi/4.8.4/armv7e-m/libgcc.a(_aeabi_uldivmod.o)
                              /home/wang/wmsdk_bundle-3.1.16/bin/wmsdk/libs/libdrv.a(mw300_clock.o) (__aeabi_uldivmod)
/home/wang/work/gcc-arm-none-eabi-4_8-2014q2/bin/../lib/gcc/arm-none-eabi/4.8.4/armv7e-m/libgcc.a(bpabi.o)
                              /home/wang/work/gcc-arm-none-eabi-4_8-2014q2/bin/../lib/gcc/arm-none-eabi/4.8.4/armv7e-m/libgcc.a(_aeabi_uldivmod.o) (__gnu_uldivmod_helper)
/home/wang/work/gcc-arm-none-eabi-4_8-2014q2/bin/../lib/gcc/arm-none-eabi/4.8.4/armv7e-m/libgcc.a(_dvmd_tls.o)
                              /home/wang/work/gcc-arm-none-eabi-4_8-2014q2/bin/../lib/gcc/arm-none-eabi/4.8.4/armv7e-m/libgcc.a(_aeabi_uldivmod.o) (__aeabi_ldiv0)
/home/wang/work/gcc-arm-none-eabi-4_8-2014q2/bin/../lib/gcc/arm-none-eabi/4.8.4/armv7e-m/libgcc.a(_divdi3.o)
                              /home/wang/work/gcc-arm-none-eabi-4_8-2014q2/bin/../lib/gcc/arm-none-eabi/4.8.4/armv7e-m/libgcc.a(bpabi.o) (__divdi3)
/home/wang/work/gcc-arm-none-eabi-4_8-2014q2/bin/../lib/gcc/arm-none-eabi/4.8.4/armv7e-m/libgcc.a(_udivdi3.o)
                              /home/wang/work/gcc-arm-none-eabi-4_8-2014q2/bin/../lib/gcc/arm-none-eabi/4.8.4/armv7e-m/libgcc.a(bpabi.o) (__udivdi3)
/home/wang/work/gcc-arm-none-eabi-4_8-2014q2/bin/../lib/gcc/arm-none-eabi/4.8.4/../../../../arm-none-eabi/lib/armv7e-m/libg.a(lib_a-memcpy.o)
                              /home/wang/wmsdk_bundle-3.1.16/bin/wmsdk/libs/libfreertos.a(queue.o) (memcpy)
/home/wang/work/gcc-arm-none-eabi-4_8-2014q2/bin/../lib/gcc/arm-none-eabi/4.8.4/../../../../arm-none-eabi/lib/armv7e-m/libg.a(lib_a-memmove.o)
                              /home/wang/wmsdk_bundle-3.1.16/bin/wmsdk/libs/libcli.a(cli.o) (memmove)
/home/wang/work/gcc-arm-none-eabi-4_8-2014q2/bin/../lib/gcc/arm-none-eabi/4.8.4/../../../../arm-none-eabi/lib/armv7e-m/libg.a(lib_a-memset.o)
                              /home/wang/wmsdk_bundle-3.1.16/bin/wmsdk/libs/libdrv.a(mdev_startup.o) (memset)

Discarded input sections

 .text          0x00000000        0x0 /home/wang/wmsdk_bundle-3.1.16/bin/wmsdk/libs/libdrv.a(mdev_startup.o)
 .data          0x00000000        0x0 /home/wang/wmsdk_bundle-3.1.16/bin/wmsdk/libs/libdrv.a(mdev_startup.o)
 .bss           0x00000000        0x0 /home/wang/wmsdk_bundle-3.1.16/bin/wmsdk/libs/libdrv.a(mdev_startup.o)
 .text          0x00000000        0x0 /home/wang/wmsdk_bundle-3.1.16/bin/wmsdk/libs/libdrv.a(mdev_pm.o)
 .data          0x00000000        0x0 /home/wang/wmsdk_bundle-3.1.16/bin/wmsdk/libs/libdrv.a(mdev_pm.o)
 .bss           0x00000000        0x0 /home/wang/wmsdk_bundle-3.1.16/bin/wmsdk/libs/libdrv.a(mdev_pm.o)
 .text.os_setup_idle_function
                0x00000000       0x38 /home/wang/wmsdk_bundle-3.1.16/bin/wmsdk/libs/libdrv.a(mdev_pm.o)
 .text.os_remove_idle_function
                0x00000000       0x24 /home/wang/wmsdk_bundle-3.1.16/bin/wmsdk/libs/libdrv.a(mdev_pm.o)
 .text.populate_wakeup_reason
                0x00000000       0x34 /home/wang/wmsdk_bundle-3.1.16/bin/wmsdk/libs/libdrv.a(mdev_pm.o)
 .text.extpin0_cb
                0x00000000       0x10 /home/wang/wmsdk_bundle-3.1.16/bin/wmsdk/libs/libdrv.a(mdev_pm.o)
 .text.extpin1_cb
                0x00000000       0x10 /home/wang/wmsdk_bundle-3.1.16/bin/wmsdk/libs/libdrv.a(mdev_pm.o)
 .text.dummy_rtc_cb
                0x00000000       0x10 /home/wang/wmsdk_bundle-3.1.16/bin/wmsdk/libs/libdrv.a(mdev_pm.o)
 .text.idle_hook
                0x00000000        0xc /home/wang/wmsdk_bundle-3.1.16/bin/wmsdk/libs/libdrv.a(mdev_pm.o)
 .text.prepare_for_low_power
                0x00000000      0x160 /home/wang/wmsdk_bundle-3.1.16/bin/wmsdk/libs/libdrv.a(mdev_pm.o)
 .text.switch_on_io_domains
                0x00000000       0x24 /home/wang/wmsdk_bundle-3.1.16/bin/wmsdk/libs/libdrv.a(mdev_pm.o)
 .text.update_time
                0x00000000       0x3c /home/wang/wmsdk_bundle-3.1.16/bin/wmsdk/libs/libdrv.a(mdev_pm.o)
 .text.asm_mcu_pm3
                0x00000000       0xd4 /home/wang/wmsdk_bundle-3.1.16/bin/wmsdk/libs/libdrv.a(mdev_pm.o)
 .text.ps_wait  0x00000000       0x10 /home/wang/wmsdk_bundle-3.1.16/bin/wmsdk/libs/libdrv.a(mdev_pm.o)
 .text.mcu_pm3  0x00000000      0x2b4 /home/wang/wmsdk_bundle-3.1.16/bin/wmsdk/libs/libdrv.a(mdev_pm.o)
 .text.mcu_pm2  0x00000000       0x60 /home/wang/wmsdk_bundle-3.1.16/bin/wmsdk/libs/libdrv.a(mdev_pm.o)
 .text.pm_idle_hook
                0x00000000       0x68 /home/wang/wmsdk_bundle-3.1.16/bin/wmsdk/libs/libdrv.a(mdev_pm.o)
 .text.pm_mcu_io_cfg
                0x00000000        0xc /home/wang/wmsdk_bundle-3.1.16/bin/wmsdk/libs/libdrv.a(mdev_pm.o)
 .text.pm_mcu_cfg
                0x00000000       0x58 /home/wang/wmsdk_bundle-3.1.16/bin/wmsdk/libs/libdrv.a(mdev_pm.o)
 .text.pm_mcu_state
                0x00000000       0x60 /home/wang/wmsdk_bundle-3.1.16/bin/wmsdk/libs/libdrv.a(mdev_pm.o)
 .text.pm_wakeup_source
                0x00000000        0xc /home/wang/wmsdk_bundle-3.1.16/bin/wmsdk/libs/libdrv.a(mdev_pm.o)
 .text.pm_mcu_is_enabled
                0x00000000        0xc /home/wang/wmsdk_bundle-3.1.16/bin/wmsdk/libs/libdrv.a(mdev_pm.o)
 .text.pm_mcu_get_mode
                0x00000000        0xc /home/wang/wmsdk_bundle-3.1.16/bin/wmsdk/libs/libdrv.a(mdev_pm.o)
 .text.arch_pm_init
                0x00000000       0xa4 /home/wang/wmsdk_bundle-3.1.16/bin/wmsdk/libs/libdrv.a(mdev_pm.o)
 .text.arch_reboot
                0x00000000       0x34 /home/wang/wmsdk_bundle-3.1.16/bin/wmsdk/libs/libdrv.a(mdev_pm.o)
 .text.pm_pm0_in_idle
                0x00000000       0x1c /home/wang/wmsdk_bundle-3.1.16/bin/wmsdk/libs/libdrv.a(mdev_pm.o)
 .bss.pm_state  0x00000000       0x10 /home/wang/wmsdk_bundle-3.1.16/bin/wmsdk/libs/libdrv.a(mdev_pm.o)
 .bss.rtc_dev   0x00000000        0x4 /home/wang/wmsdk_bundle-3.1.16/bin/wmsdk/libs/libdrv.a(mdev_pm.o)
 .bss.pm3_entryaddr
                0x00000000        0x4 /home/wang/wmsdk_bundle-3.1.16/bin/wmsdk/libs/libdrv.a(mdev_pm.o)
 .bss.curr_rtc_ticks
                0x00000000        0x4 /home/wang/wmsdk_bundle-3.1.16/bin/wmsdk/libs/libdrv.a(mdev_pm.o)
 .bss.sys_regs  0x00000000       0xac /home/wang/wmsdk_bundle-3.1.16/bin/wmsdk/libs/libdrv.a(mdev_pm.o)
 .rodata.str1.1
                0x00000000       0x46 /home/wang/wmsdk_bundle-3.1.16/bin/wmsdk/libs/libdrv.a(mdev_pm.o)
 .nvram         0x00000000        0x4 /home/wang/wmsdk_bundle-3.1.16/bin/wmsdk/libs/libdrv.a(mdev_pm.o)
 .bss.wakeup_reason
                0x00000000        0x4 /home/wang/wmsdk_bundle-3.1.16/bin/wmsdk/libs/libdrv.a(mdev_pm.o)
 .text          0x00000000        0x0 /home/wang/wmsdk_bundle-3.1.16/bin/wmsdk/libs/libdrv.a(mw300_clock.o)
 .data          0x00000000        0x0 /home/wang/wmsdk_bundle-3.1.16/bin/wmsdk/libs/libdrv.a(mw300_clock.o)
 .bss           0x00000000        0x0 /home/wang/wmsdk_bundle-3.1.16/bin/wmsdk/libs/libdrv.a(mw300_clock.o)
 .text.CLK_GAUClkSrc
                0x00000000       0x4c /home/wang/wmsdk_bundle-3.1.16/bin/wmsdk/libs/libdrv.a(mw300_clock.o)
 .text.CLK_RTCClkSrc
                0x00000000       0x2c /home/wang/wmsdk_bundle-3.1.16/bin/wmsdk/libs/libdrv.a(mw300_clock.o)
 .text.CLK_PDMClkSrc
                0x00000000       0x30 /home/wang/wmsdk_bundle-3.1.16/bin/wmsdk/libs/libdrv.a(mw300_clock.o)
 .text.CLK_GPTInternalClkSrc
                0x00000000      0x1a8 /home/wang/wmsdk_bundle-3.1.16/bin/wmsdk/libs/libdrv.a(mw300_clock.o)
 .text.CLK_SSPClkSrc
                0x00000000       0x7c /home/wang/wmsdk_bundle-3.1.16/bin/wmsdk/libs/libdrv.a(mw300_clock.o)
 .text.CLK_AupllRefClkSrc
                0x00000000       0x30 /home/wang/wmsdk_bundle-3.1.16/bin/wmsdk/libs/libdrv.a(mw300_clock.o)
 .text.CLK_AupllEnable
                0x00000000       0x7c /home/wang/wmsdk_bundle-3.1.16/bin/wmsdk/libs/libdrv.a(mw300_clock.o)
 .text.CLK_AupllDisable
                0x00000000       0x10 /home/wang/wmsdk_bundle-3.1.16/bin/wmsdk/libs/libdrv.a(mw300_clock.o)
 .text.CLK_SetAupllPostDiv
                0x00000000       0x20 /home/wang/wmsdk_bundle-3.1.16/bin/wmsdk/libs/libdrv.a(mw300_clock.o)
 .text.CLK_Xtal32KEnable
                0x00000000       0x30 /home/wang/wmsdk_bundle-3.1.16/bin/wmsdk/libs/libdrv.a(mw300_clock.o)
 .text.CLK_Xtal32KDisable
                0x00000000       0x14 /home/wang/wmsdk_bundle-3.1.16/bin/wmsdk/libs/libdrv.a(mw300_clock.o)
 .text.CLK_RC32MEnable
                0x00000000       0x18 /home/wang/wmsdk_bundle-3.1.16/bin/wmsdk/libs/libdrv.a(mw300_clock.o)
 .text.CLK_RC32MDisable
                0x00000000       0x18 /home/wang/wmsdk_bundle-3.1.16/bin/wmsdk/libs/libdrv.a(mw300_clock.o)
 .text.CLK_RC32KEnable
                0x00000000       0x14 /home/wang/wmsdk_bundle-3.1.16/bin/wmsdk/libs/libdrv.a(mw300_clock.o)
 .text.CLK_RC32KDisable
                0x00000000       0x14 /home/wang/wmsdk_bundle-3.1.16/bin/wmsdk/libs/libdrv.a(mw300_clock.o)
 .text.CLK_ModuleClkDisable
                0x00000000      0x188 /home/wang/wmsdk_bundle-3.1.16/bin/wmsdk/libs/libdrv.a(mw300_clock.o)
 .text.CLK_GetModuleClkDivider
                0x00000000      0x120 /home/wang/wmsdk_bundle-3.1.16/bin/wmsdk/libs/libdrv.a(mw300_clock.o)
 .text.CLK_RefClkDisable
                0x00000000       0x38 /home/wang/wmsdk_bundle-3.1.16/bin/wmsdk/libs/libdrv.a(mw300_clock.o)
 .text.RC32M_SelOutput32MHz
                0x00000000       0x24 /home/wang/wmsdk_bundle-3.1.16/bin/wmsdk/libs/libdrv.a(mw300_clock.o)
 .text.CLK_RC32KCalibration
                0x00000000      0x104 /home/wang/wmsdk_bundle-3.1.16/bin/wmsdk/libs/libdrv.a(mw300_clock.o)
 .text.RC32M_GetIntStatus
                0x00000000       0x24 /home/wang/wmsdk_bundle-3.1.16/bin/wmsdk/libs/libdrv.a(mw300_clock.o)
 .text.RC32M_IntMask
                0x00000000       0x24 /home/wang/wmsdk_bundle-3.1.16/bin/wmsdk/libs/libdrv.a(mw300_clock.o)
 .text.RC32M_IntClr
                0x00000000       0x24 /home/wang/wmsdk_bundle-3.1.16/bin/wmsdk/libs/libdrv.a(mw300_clock.o)
 .text          0x00000000        0x0 /home/wang/wmsdk_bundle-3.1.16/bin/wmsdk/libs/libdrv.a(mw300_driver.o)
 .data          0x00000000        0x0 /home/wang/wmsdk_bundle-3.1.16/bin/wmsdk/libs/libdrv.a(mw300_driver.o)
 .bss           0x00000000        0x0 /home/wang/wmsdk_bundle-3.1.16/bin/wmsdk/libs/libdrv.a(mw300_driver.o)
 .text          0x00000000        0x0 /home/wang/wmsdk_bundle-3.1.16/bin/wmsdk/libs/libdrv.a(mw300_pmu.o)
 .data          0x00000000        0x0 /home/wang/wmsdk_bundle-3.1.16/bin/wmsdk/libs/libdrv.a(mw300_pmu.o)
 .bss           0x00000000        0x0 /home/wang/wmsdk_bundle-3.1.16/bin/wmsdk/libs/libdrv.a(mw300_pmu.o)
 .text.PMU_SetSleepMode
                0x00000000       0x24 /home/wang/wmsdk_bundle-3.1.16/bin/wmsdk/libs/libdrv.a(mw300_pmu.o)
 .text.PMU_GetSleepMode
                0x00000000       0x10 /home/wang/wmsdk_bundle-3.1.16/bin/wmsdk/libs/libdrv.a(mw300_pmu.o)
 .text.PMU_ClearWakeupSrcInt
                0x00000000       0x48 /home/wang/wmsdk_bundle-3.1.16/bin/wmsdk/libs/libdrv.a(mw300_pmu.o)
 .text.PMU_GetLastWakeupStatus
                0x00000000       0x48 /home/wang/wmsdk_bundle-3.1.16/bin/wmsdk/libs/libdrv.a(mw300_pmu.o)
 .text.PMU_WakeupSrcIntMask
                0x00000000       0x7c /home/wang/wmsdk_bundle-3.1.16/bin/wmsdk/libs/libdrv.a(mw300_pmu.o)
 .text.PMU_PowerOffVDDIO
                0x00000000       0x54 /home/wang/wmsdk_bundle-3.1.16/bin/wmsdk/libs/libdrv.a(mw300_pmu.o)
 .text.PMU_PowerDownVDDIO
                0x00000000       0x54 /home/wang/wmsdk_bundle-3.1.16/bin/wmsdk/libs/libdrv.a(mw300_pmu.o)
 .text.PMU_PowerNormalVDDIO
                0x00000000       0x54 /home/wang/wmsdk_bundle-3.1.16/bin/wmsdk/libs/libdrv.a(mw300_pmu.o)
 .text.PMU_ConfigVDDIOLevel
                0x00000000       0xa4 /home/wang/wmsdk_bundle-3.1.16/bin/wmsdk/libs/libdrv.a(mw300_pmu.o)
 .text.PMU_ConfigExtraInterrupt
                0x00000000      0x2d4 /home/wang/wmsdk_bundle-3.1.16/bin/wmsdk/libs/libdrv.a(mw300_pmu.o)
 .text.PMU_UlpcompModeSelect
                0x00000000       0x14 /home/wang/wmsdk_bundle-3.1.16/bin/wmsdk/libs/libdrv.a(mw300_pmu.o)
 .text.PMU_UlpcompRefVoltageSel
                0x00000000       0x14 /home/wang/wmsdk_bundle-3.1.16/bin/wmsdk/libs/libdrv.a(mw300_pmu.o)
 .text.PMU_UlpcompHysteresisSel
                0x00000000       0x14 /home/wang/wmsdk_bundle-3.1.16/bin/wmsdk/libs/libdrv.a(mw300_pmu.o)
 .text.PMU_UlpcompCmd
                0x00000000       0x1c /home/wang/wmsdk_bundle-3.1.16/bin/wmsdk/libs/libdrv.a(mw300_pmu.o)
 .text.PMU_GetUlpcompStatus
                0x00000000       0x10 /home/wang/wmsdk_bundle-3.1.16/bin/wmsdk/libs/libdrv.a(mw300_pmu.o)
 .text.PMU_GetUlpcompOutValue
                0x00000000       0x10 /home/wang/wmsdk_bundle-3.1.16/bin/wmsdk/libs/libdrv.a(mw300_pmu.o)
 .text.PMU_ConfigVbatBrndet
                0x00000000       0x34 /home/wang/wmsdk_bundle-3.1.16/bin/wmsdk/libs/libdrv.a(mw300_pmu.o)
 .text.PMU_GetVbatBrndetStatus
                0x00000000       0x10 /home/wang/wmsdk_bundle-3.1.16/bin/wmsdk/libs/libdrv.a(mw300_pmu.o)
 .text.PMU_GetVbatBrndetOutValue
                0x00000000       0x10 /home/wang/wmsdk_bundle-3.1.16/bin/wmsdk/libs/libdrv.a(mw300_pmu.o)
 .text.PMU_VbatBrndetIntCmd
                0x00000000       0x18 /home/wang/wmsdk_bundle-3.1.16/bin/wmsdk/libs/libdrv.a(mw300_pmu.o)
 .text.PMU_PowerDownWLAN
                0x00000000       0x14 /home/wang/wmsdk_bundle-3.1.16/bin/wmsdk/libs/libdrv.a(mw300_pmu.o)
 .text.PMU_MCIWakeupWLANEnable
                0x00000000       0x14 /home/wang/wmsdk_bundle-3.1.16/bin/wmsdk/libs/libdrv.a(mw300_pmu.o)
 .text.PMU_MCIWakeupWLANDisable
                0x00000000       0x14 /home/wang/wmsdk_bundle-3.1.16/bin/wmsdk/libs/libdrv.a(mw300_pmu.o)
 .text          0x00000000        0x0 /home/wang/wmsdk_bundle-3.1.16/bin/wmsdk/libs/libdrv.a(mdev_rtc.o)
 .data          0x00000000        0x0 /home/wang/wmsdk_bundle-3.1.16/bin/wmsdk/libs/libdrv.a(mdev_rtc.o)
 .bss           0x00000000        0x0 /home/wang/wmsdk_bundle-3.1.16/bin/wmsdk/libs/libdrv.a(mdev_rtc.o)
 .text.rtc_xtal32k_ps_cb
                0x00000000       0x1e /home/wang/wmsdk_bundle-3.1.16/bin/wmsdk/libs/libdrv.a(mdev_rtc.o)
 .text.rtc_drv_set_alarm_cb
                0x00000000       0x30 /home/wang/wmsdk_bundle-3.1.16/bin/wmsdk/libs/libdrv.a(mdev_rtc.o)
 .text.rtc_drv_set_cb
                0x00000000       0x2c /home/wang/wmsdk_bundle-3.1.16/bin/wmsdk/libs/libdrv.a(mdev_rtc.o)
 .text.rtc_drv_set
                0x00000000       0x14 /home/wang/wmsdk_bundle-3.1.16/bin/wmsdk/libs/libdrv.a(mdev_rtc.o)
 .text.rtc_drv_reset
                0x00000000        0x4 /home/wang/wmsdk_bundle-3.1.16/bin/wmsdk/libs/libdrv.a(mdev_rtc.o)
 .text.rtc_drv_get
                0x00000000       0x28 /home/wang/wmsdk_bundle-3.1.16/bin/wmsdk/libs/libdrv.a(mdev_rtc.o)
 .text.rtc_drv_set_alarm
                0x00000000       0x1c /home/wang/wmsdk_bundle-3.1.16/bin/wmsdk/libs/libdrv.a(mdev_rtc.o)
 .text.rtc_drv_get_uppval
                0x00000000        0x4 /home/wang/wmsdk_bundle-3.1.16/bin/wmsdk/libs/libdrv.a(mdev_rtc.o)
 .text.rtc_drv_stop
                0x00000000        0x4 /home/wang/wmsdk_bundle-3.1.16/bin/wmsdk/libs/libdrv.a(mdev_rtc.o)
 .text.rtc_drv_start
                0x00000000        0x4 /home/wang/wmsdk_bundle-3.1.16/bin/wmsdk/libs/libdrv.a(mdev_rtc.o)
 .text.rtc_drv_close
                0x00000000        0x4 /home/wang/wmsdk_bundle-3.1.16/bin/wmsdk/libs/libdrv.a(mdev_rtc.o)
 .text.rtc_drv_open
                0x00000000       0x24 /home/wang/wmsdk_bundle-3.1.16/bin/wmsdk/libs/libdrv.a(mdev_rtc.o)
 .text.rtc_drv_init
                0x00000000      0x1a0 /home/wang/wmsdk_bundle-3.1.16/bin/wmsdk/libs/libdrv.a(mdev_rtc.o)
 .rodata.str1.1
                0x00000000       0x62 /home/wang/wmsdk_bundle-3.1.16/bin/wmsdk/libs/libdrv.a(mdev_rtc.o)
 .bss.MDEV_rtc  0x00000000       0x14 /home/wang/wmsdk_bundle-3.1.16/bin/wmsdk/libs/libdrv.a(mdev_rtc.o)
 .debug_info    0x00000000     0x1b60 /home/wang/wmsdk_bundle-3.1.16/bin/wmsdk/libs/libdrv.a(mdev_rtc.o)
 .debug_abbrev  0x00000000      0x3f9 /home/wang/wmsdk_bundle-3.1.16/bin/wmsdk/libs/libdrv.a(mdev_rtc.o)
 .debug_loc     0x00000000      0x31c /home/wang/wmsdk_bundle-3.1.16/bin/wmsdk/libs/libdrv.a(mdev_rtc.o)
 .debug_aranges
                0x00000000       0x80 /home/wang/wmsdk_bundle-3.1.16/bin/wmsdk/libs/libdrv.a(mdev_rtc.o)
 .debug_ranges  0x00000000       0xe0 /home/wang/wmsdk_bundle-3.1.16/bin/wmsdk/libs/libdrv.a(mdev_rtc.o)
 .debug_line    0x00000000      0x446 /home/wang/wmsdk_bundle-3.1.16/bin/wmsdk/libs/libdrv.a(mdev_rtc.o)
 .debug_str     0x00000000     0x1657 /home/wang/wmsdk_bundle-3.1.16/bin/wmsdk/libs/libdrv.a(mdev_rtc.o)
 .comment       0x00000000       0x71 /home/wang/wmsdk_bundle-3.1.16/bin/wmsdk/libs/libdrv.a(mdev_rtc.o)
 .ARM.attributes
                0x00000000       0x33 /home/wang/wmsdk_bundle-3.1.16/bin/wmsdk/libs/libdrv.a(mdev_rtc.o)
 .debug_frame   0x00000000      0x130 /home/wang/wmsdk_bundle-3.1.16/bin/wmsdk/libs/libdrv.a(mdev_rtc.o)
 .text          0x00000000        0x0 /home/wang/wmsdk_bundle-3.1.16/bin/wmsdk/libs/libdrv.a(mw300_pinmux.o)
 .data          0x00000000        0x0 /home/wang/wmsdk_bundle-3.1.16/bin/wmsdk/libs/libdrv.a(mw300_pinmux.o)
 .bss           0x00000000        0x0 /home/wang/wmsdk_bundle-3.1.16/bin/wmsdk/libs/libdrv.a(mw300_pinmux.o)
 .text.GPIO_PinModeConfig
                0x00000000       0xc0 /home/wang/wmsdk_bundle-3.1.16/bin/wmsdk/libs/libdrv.a(mw300_pinmux.o)
 .text          0x00000000        0x0 /home/wang/wmsdk_bundle-3.1.16/bin/wmsdk/libs/libdrv.a(mw300_rtc.o)
 .data          0x00000000        0x0 /home/wang/wmsdk_bundle-3.1.16/bin/wmsdk/libs/libdrv.a(mw300_rtc.o)
 .bss           0x00000000        0x0 /home/wang/wmsdk_bundle-3.1.16/bin/wmsdk/libs/libdrv.a(mw300_rtc.o)
 .text.RTC_CounterReset
                0x00000000       0x38 /home/wang/wmsdk_bundle-3.1.16/bin/wmsdk/libs/libdrv.a(mw300_rtc.o)
 .text.RTC_Init
                0x00000000       0x24 /home/wang/wmsdk_bundle-3.1.16/bin/wmsdk/libs/libdrv.a(mw300_rtc.o)
 .text.RTC_GetCntStatus
                0x00000000       0x10 /home/wang/wmsdk_bundle-3.1.16/bin/wmsdk/libs/libdrv.a(mw300_rtc.o)
 .text.RTC_Start
                0x00000000       0x10 /home/wang/wmsdk_bundle-3.1.16/bin/wmsdk/libs/libdrv.a(mw300_rtc.o)
 .text.RTC_Stop
                0x00000000       0x10 /home/wang/wmsdk_bundle-3.1.16/bin/wmsdk/libs/libdrv.a(mw300_rtc.o)
 .text.RTC_SetCounterUppVal
                0x00000000        0xc /home/wang/wmsdk_bundle-3.1.16/bin/wmsdk/libs/libdrv.a(mw300_rtc.o)
 .text.RTC_GetCounterUppVal
                0x00000000        0xc /home/wang/wmsdk_bundle-3.1.16/bin/wmsdk/libs/libdrv.a(mw300_rtc.o)
 .text.RTC_SetCounterAlarmVal
                0x00000000        0xc /home/wang/wmsdk_bundle-3.1.16/bin/wmsdk/libs/libdrv.a(mw300_rtc.o)
 .text.RTC_GetCounterVal
                0x00000000        0xc /home/wang/wmsdk_bundle-3.1.16/bin/wmsdk/libs/libdrv.a(mw300_rtc.o)
 .text.RTC_IntMask
                0x00000000       0x38 /home/wang/wmsdk_bundle-3.1.16/bin/wmsdk/libs/libdrv.a(mw300_rtc.o)
 .text.RTC_IntClr
                0x00000000       0x34 /home/wang/wmsdk_bundle-3.1.16/bin/wmsdk/libs/libdrv.a(mw300_rtc.o)
 .text.RTC_GetStatus
                0x00000000       0x24 /home/wang/wmsdk_bundle-3.1.16/bin/wmsdk/libs/libdrv.a(mw300_rtc.o)
 .text          0x00000000        0x0 /home/wang/wmsdk_bundle-3.1.16/bin/wmsdk/libs/libdrv.a(mdev_gpt.o)
 .data          0x00000000        0x0 /home/wang/wmsdk_bundle-3.1.16/bin/wmsdk/libs/libdrv.a(mdev_gpt.o)
 .bss           0x00000000        0x0 /home/wang/wmsdk_bundle-3.1.16/bin/wmsdk/libs/libdrv.a(mdev_gpt.o)
 .text.gpt_drv_open
                0x00000000       0x68 /home/wang/wmsdk_bundle-3.1.16/bin/wmsdk/libs/libdrv.a(mdev_gpt.o)
 .text.gpt_drv_set
                0x00000000       0x1e /home/wang/wmsdk_bundle-3.1.16/bin/wmsdk/libs/libdrv.a(mdev_gpt.o)
 .text.gpt_drv_pwm
                0x00000000       0x36 /home/wang/wmsdk_bundle-3.1.16/bin/wmsdk/libs/libdrv.a(mdev_gpt.o)
 .text.gpt_drv_setcb
                0x00000000        0xe /home/wang/wmsdk_bundle-3.1.16/bin/wmsdk/libs/libdrv.a(mdev_gpt.o)
 .text.gpt_drv_start
                0x00000000       0x64 /home/wang/wmsdk_bundle-3.1.16/bin/wmsdk/libs/libdrv.a(mdev_gpt.o)
 .text.gpt_drv_stop
                0x00000000       0x38 /home/wang/wmsdk_bundle-3.1.16/bin/wmsdk/libs/libdrv.a(mdev_gpt.o)
 .text.gpt_drv_close
                0x00000000       0x4c /home/wang/wmsdk_bundle-3.1.16/bin/wmsdk/libs/libdrv.a(mdev_gpt.o)
 .text.gpt_drv_init
                0x00000000       0x94 /home/wang/wmsdk_bundle-3.1.16/bin/wmsdk/libs/libdrv.a(mdev_gpt.o)
 .bss.mdev_gpt  0x00000000       0x50 /home/wang/wmsdk_bundle-3.1.16/bin/wmsdk/libs/libdrv.a(mdev_gpt.o)
 .bss.gptdev_data
                0x00000000       0x40 /home/wang/wmsdk_bundle-3.1.16/bin/wmsdk/libs/libdrv.a(mdev_gpt.o)
 .rodata.str1.1
                0x00000000       0x7a /home/wang/wmsdk_bundle-3.1.16/bin/wmsdk/libs/libdrv.a(mdev_gpt.o)
 .bss.gpt_mutex
                0x00000000       0x10 /home/wang/wmsdk_bundle-3.1.16/bin/wmsdk/libs/libdrv.a(mdev_gpt.o)
 .rodata.CSWTCH.23
                0x00000000        0x4 /home/wang/wmsdk_bundle-3.1.16/bin/wmsdk/libs/libdrv.a(mdev_gpt.o)
 .rodata.CSWTCH.24
                0x00000000        0x4 /home/wang/wmsdk_bundle-3.1.16/bin/wmsdk/libs/libdrv.a(mdev_gpt.o)
 .rodata.mdev_gpt_name
                0x00000000       0x10 /home/wang/wmsdk_bundle-3.1.16/bin/wmsdk/libs/libdrv.a(mdev_gpt.o)
 .debug_info    0x00000000     0x15af /home/wang/wmsdk_bundle-3.1.16/bin/wmsdk/libs/libdrv.a(mdev_gpt.o)
 .debug_abbrev  0x00000000      0x398 /home/wang/wmsdk_bundle-3.1.16/bin/wmsdk/libs/libdrv.a(mdev_gpt.o)
 .debug_loc     0x00000000      0x4d3 /home/wang/wmsdk_bundle-3.1.16/bin/wmsdk/libs/libdrv.a(mdev_gpt.o)
 .debug_aranges
                0x00000000       0x58 /home/wang/wmsdk_bundle-3.1.16/bin/wmsdk/libs/libdrv.a(mdev_gpt.o)
 .debug_ranges  0x00000000       0xa8 /home/wang/wmsdk_bundle-3.1.16/bin/wmsdk/libs/libdrv.a(mdev_gpt.o)
 .debug_line    0x00000000      0x37f /home/wang/wmsdk_bundle-3.1.16/bin/wmsdk/libs/libdrv.a(mdev_gpt.o)
 .debug_str     0x00000000     0x14e3 /home/wang/wmsdk_bundle-3.1.16/bin/wmsdk/libs/libdrv.a(mdev_gpt.o)
 .comment       0x00000000       0x71 /home/wang/wmsdk_bundle-3.1.16/bin/wmsdk/libs/libdrv.a(mdev_gpt.o)
 .ARM.attributes
                0x00000000       0x33 /home/wang/wmsdk_bundle-3.1.16/bin/wmsdk/libs/libdrv.a(mdev_gpt.o)
 .debug_frame   0x00000000       0xe0 /home/wang/wmsdk_bundle-3.1.16/bin/wmsdk/libs/libdrv.a(mdev_gpt.o)
 .text          0x00000000        0x0 /home/wang/wmsdk_bundle-3.1.16/bin/wmsdk/libs/libdrv.a(mw300_gpt.o)
 .data          0x00000000        0x0 /home/wang/wmsdk_bundle-3.1.16/bin/wmsdk/libs/libdrv.a(mw300_gpt.o)
 .bss           0x00000000        0x0 /home/wang/wmsdk_bundle-3.1.16/bin/wmsdk/libs/libdrv.a(mw300_gpt.o)
 .text.GPT_Init
                0x00000000       0x44 /home/wang/wmsdk_bundle-3.1.16/bin/wmsdk/libs/libdrv.a(mw300_gpt.o)
 .text.GPT_CounterReset
                0x00000000       0x38 /home/wang/wmsdk_bundle-3.1.16/bin/wmsdk/libs/libdrv.a(mw300_gpt.o)
 .text.GPT_Start
                0x00000000       0x14 /home/wang/wmsdk_bundle-3.1.16/bin/wmsdk/libs/libdrv.a(mw300_gpt.o)
 .text.GPT_Stop
                0x00000000       0x14 /home/wang/wmsdk_bundle-3.1.16/bin/wmsdk/libs/libdrv.a(mw300_gpt.o)
 .text.GPT_ChannelReset
                0x00000000       0x1c /home/wang/wmsdk_bundle-3.1.16/bin/wmsdk/libs/libdrv.a(mw300_gpt.o)
 .text.GPT_InputConfig
                0x00000000       0x28 /home/wang/wmsdk_bundle-3.1.16/bin/wmsdk/libs/libdrv.a(mw300_gpt.o)
 .text.GPT_ChannelFuncSelect
                0x00000000       0x18 /home/wang/wmsdk_bundle-3.1.16/bin/wmsdk/libs/libdrv.a(mw300_gpt.o)
 .text.GPT_ChannelInputConfig
                0x00000000       0x18 /home/wang/wmsdk_bundle-3.1.16/bin/wmsdk/libs/libdrv.a(mw300_gpt.o)
 .text.GPT_ChannelOutputConfig
                0x00000000       0x40 /home/wang/wmsdk_bundle-3.1.16/bin/wmsdk/libs/libdrv.a(mw300_gpt.o)
 .text.GPT_SetCounterUppVal
                0x00000000       0x10 /home/wang/wmsdk_bundle-3.1.16/bin/wmsdk/libs/libdrv.a(mw300_gpt.o)
 .text.GPT_SetChannelMatchVal0
                0x00000000       0x28 /home/wang/wmsdk_bundle-3.1.16/bin/wmsdk/libs/libdrv.a(mw300_gpt.o)
 .text.GPT_SetChannelMatchVal1
                0x00000000       0x28 /home/wang/wmsdk_bundle-3.1.16/bin/wmsdk/libs/libdrv.a(mw300_gpt.o)
 .text.GPT_SetChannelBothMatchVal
                0x00000000       0x2c /home/wang/wmsdk_bundle-3.1.16/bin/wmsdk/libs/libdrv.a(mw300_gpt.o)
 .text.GPT_GetCaptureVal
                0x00000000       0x14 /home/wang/wmsdk_bundle-3.1.16/bin/wmsdk/libs/libdrv.a(mw300_gpt.o)
 .text.GPT_GetCounterVal
                0x00000000       0x10 /home/wang/wmsdk_bundle-3.1.16/bin/wmsdk/libs/libdrv.a(mw300_gpt.o)
 .text.GPT_DMACmd
                0x00000000       0x34 /home/wang/wmsdk_bundle-3.1.16/bin/wmsdk/libs/libdrv.a(mw300_gpt.o)
 .text.GPT_DMAChannelSelect
                0x00000000       0x28 /home/wang/wmsdk_bundle-3.1.16/bin/wmsdk/libs/libdrv.a(mw300_gpt.o)
 .text.GPT_TrigCmd
                0x00000000       0x18 /home/wang/wmsdk_bundle-3.1.16/bin/wmsdk/libs/libdrv.a(mw300_gpt.o)
 .text.GPT_TrigConfig
                0x00000000       0x1c /home/wang/wmsdk_bundle-3.1.16/bin/wmsdk/libs/libdrv.a(mw300_gpt.o)
 .text.GPT_IntMask
                0x00000000       0x84 /home/wang/wmsdk_bundle-3.1.16/bin/wmsdk/libs/libdrv.a(mw300_gpt.o)
 .text.GPT_StatusClr
                0x00000000       0x50 /home/wang/wmsdk_bundle-3.1.16/bin/wmsdk/libs/libdrv.a(mw300_gpt.o)
 .text.GPT_GetStatus
                0x00000000       0x68 /home/wang/wmsdk_bundle-3.1.16/bin/wmsdk/libs/libdrv.a(mw300_gpt.o)
 .text          0x00000000        0x0 /home/wang/wmsdk_bundle-3.1.16/bin/wmsdk/libs/libfreertos.a(queue.o)
 .data          0x00000000        0x0 /home/wang/wmsdk_bundle-3.1.16/bin/wmsdk/libs/libfreertos.a(queue.o)
 .bss           0x00000000        0x0 /home/wang/wmsdk_bundle-3.1.16/bin/wmsdk/libs/libfreertos.a(queue.o)
 .text.vGetWaiterListFromHandle
                0x00000000        0x8 /home/wang/wmsdk_bundle-3.1.16/bin/wmsdk/libs/libfreertos.a(queue.o)
 .text.xQueueCreateCountingSemaphore
                0x00000000       0x10 /home/wang/wmsdk_bundle-3.1.16/bin/wmsdk/libs/libfreertos.a(queue.o)
 .text.xQueueGiveMutexRecursive
                0x00000000       0x2c /home/wang/wmsdk_bundle-3.1.16/bin/wmsdk/libs/libfreertos.a(queue.o)
 .text.xQueueTakeMutexRecursive
                0x00000000       0x34 /home/wang/wmsdk_bundle-3.1.16/bin/wmsdk/libs/libfreertos.a(queue.o)
 .text.xQueueReceiveFromISR
                0x00000000       0x54 /home/wang/wmsdk_bundle-3.1.16/bin/wmsdk/libs/libfreertos.a(queue.o)
 .text.uxQueueMessagesWaiting
                0x00000000       0x14 /home/wang/wmsdk_bundle-3.1.16/bin/wmsdk/libs/libfreertos.a(queue.o)
 .text.uxQueueMessagesWaitingFromISR
                0x00000000        0x4 /home/wang/wmsdk_bundle-3.1.16/bin/wmsdk/libs/libfreertos.a(queue.o)
 .text.xQueueIsQueueEmptyFromISR
                0x00000000        0xc /home/wang/wmsdk_bundle-3.1.16/bin/wmsdk/libs/libfreertos.a(queue.o)
 .text.xQueueIsQueueFullFromISR
                0x00000000        0xc /home/wang/wmsdk_bundle-3.1.16/bin/wmsdk/libs/libfreertos.a(queue.o)
 .text          0x00000000        0x0 /home/wang/wmsdk_bundle-3.1.16/bin/wmsdk/libs/libfreertos.a(tasks.o)
 .data          0x00000000        0x0 /home/wang/wmsdk_bundle-3.1.16/bin/wmsdk/libs/libfreertos.a(tasks.o)
 .bss           0x00000000        0x0 /home/wang/wmsdk_bundle-3.1.16/bin/wmsdk/libs/libfreertos.a(tasks.o)
 .text.prvListTaskWithinSingleList
                0x00000000       0xac /home/wang/wmsdk_bundle-3.1.16/bin/wmsdk/libs/libfreertos.a(tasks.o)
 .text.vTaskDelayAbort
                0x00000000       0x60 /home/wang/wmsdk_bundle-3.1.16/bin/wmsdk/libs/libfreertos.a(tasks.o)
 .text.uxTaskPriorityGet
                0x00000000       0x28 /home/wang/wmsdk_bundle-3.1.16/bin/wmsdk/libs/libfreertos.a(tasks.o)
 .text.vTaskPrioritySet
                0x00000000       0xa8 /home/wang/wmsdk_bundle-3.1.16/bin/wmsdk/libs/libfreertos.a(tasks.o)
 .text.xTaskIsTaskSuspended
                0x00000000       0x28 /home/wang/wmsdk_bundle-3.1.16/bin/wmsdk/libs/libfreertos.a(tasks.o)
 .text.vTaskResume
                0x00000000       0x78 /home/wang/wmsdk_bundle-3.1.16/bin/wmsdk/libs/libfreertos.a(tasks.o)
 .text.xTaskResumeFromISR
                0x00000000       0x80 /home/wang/wmsdk_bundle-3.1.16/bin/wmsdk/libs/libfreertos.a(tasks.o)
 .text.vTaskEndScheduler
                0x00000000       0x18 /home/wang/wmsdk_bundle-3.1.16/bin/wmsdk/libs/libfreertos.a(tasks.o)
 .text.xTaskUpdateTickCount
                0x00000000       0x1c /home/wang/wmsdk_bundle-3.1.16/bin/wmsdk/libs/libfreertos.a(tasks.o)
 .text.xTaskGetUnblockTime
                0x00000000       0x20 /home/wang/wmsdk_bundle-3.1.16/bin/wmsdk/libs/libfreertos.a(tasks.o)
 .text.xTaskGetTotalTickCount
                0x00000000       0x28 /home/wang/wmsdk_bundle-3.1.16/bin/wmsdk/libs/libfreertos.a(tasks.o)
 .text.xTaskGetTickCountFromISR
                0x00000000       0x1c /home/wang/wmsdk_bundle-3.1.16/bin/wmsdk/libs/libfreertos.a(tasks.o)
 .text.uxTaskGetNumberOfTasks
                0x00000000        0xc /home/wang/wmsdk_bundle-3.1.16/bin/wmsdk/libs/libfreertos.a(tasks.o)
 .text.vTaskStartTrace
                0x00000000       0x38 /home/wang/wmsdk_bundle-3.1.16/bin/wmsdk/libs/libfreertos.a(tasks.o)
 .text.ulTaskEndTrace
                0x00000000       0x28 /home/wang/wmsdk_bundle-3.1.16/bin/wmsdk/libs/libfreertos.a(tasks.o)
 .text.vTaskDelayUntil
                0x00000000       0x60 /home/wang/wmsdk_bundle-3.1.16/bin/wmsdk/libs/libfreertos.a(tasks.o)
 .text.vTaskList
                0x00000000       0xb4 /home/wang/wmsdk_bundle-3.1.16/bin/wmsdk/libs/libfreertos.a(tasks.o)
 .text.vGetTaskNamesInList
                0x00000000       0x80 /home/wang/wmsdk_bundle-3.1.16/bin/wmsdk/libs/libfreertos.a(tasks.o)
 .text.uxTaskGetStackHighWaterMark
                0x00000000       0x28 /home/wang/wmsdk_bundle-3.1.16/bin/wmsdk/libs/libfreertos.a(tasks.o)
 .bss.pcStatusString
                0x00000000       0x34 /home/wang/wmsdk_bundle-3.1.16/bin/wmsdk/libs/libfreertos.a(tasks.o)
 .bss.pcTraceBufferStart
                0x00000000        0x4 /home/wang/wmsdk_bundle-3.1.16/bin/wmsdk/libs/libfreertos.a(tasks.o)
 .text          0x00000000        0x0 /home/wang/wmsdk_bundle-3.1.16/bin/wmsdk/libs/libfreertos.a(timers.o)
 .data          0x00000000        0x0 /home/wang/wmsdk_bundle-3.1.16/bin/wmsdk/libs/libfreertos.a(timers.o)
 .bss           0x00000000        0x0 /home/wang/wmsdk_bundle-3.1.16/bin/wmsdk/libs/libfreertos.a(timers.o)
 .text.xTimerCreate
                0x00000000       0x40 /home/wang/wmsdk_bundle-3.1.16/bin/wmsdk/libs/libfreertos.a(timers.o)
 .text.xTimerIsTimerActive
                0x00000000       0x18 /home/wang/wmsdk_bundle-3.1.16/bin/wmsdk/libs/libfreertos.a(timers.o)
 .text.pvTimerGetTimerID
                0x00000000        0x4 /home/wang/wmsdk_bundle-3.1.16/bin/wmsdk/libs/libfreertos.a(timers.o)
 .text          0x00000000        0x0 /home/wang/wmsdk_bundle-3.1.16/bin/wmsdk/libs/libfreertos.a(port.o)
 .data          0x00000000        0x0 /home/wang/wmsdk_bundle-3.1.16/bin/wmsdk/libs/libfreertos.a(port.o)
 .bss           0x00000000        0x0 /home/wang/wmsdk_bundle-3.1.16/bin/wmsdk/libs/libfreertos.a(port.o)
 .text.vPortEndScheduler
                0x00000000        0x4 /home/wang/wmsdk_bundle-3.1.16/bin/wmsdk/libs/libfreertos.a(port.o)
 .rodata.ulKernelPriority
                0x00000000        0x4 /home/wang/wmsdk_bundle-3.1.16/bin/wmsdk/libs/libfreertos.a(port.o)
 .text          0x00000000        0x0 /home/wang/wmsdk_bundle-3.1.16/bin/wmsdk/libs/libfreertos.a(heap_4.o)
 .data          0x00000000        0x0 /home/wang/wmsdk_bundle-3.1.16/bin/wmsdk/libs/libfreertos.a(heap_4.o)
 .bss           0x00000000        0x0 /home/wang/wmsdk_bundle-3.1.16/bin/wmsdk/libs/libfreertos.a(heap_4.o)
 .text.vPortBiggestFreeBlockSize
                0x00000000       0x20 /home/wang/wmsdk_bundle-3.1.16/bin/wmsdk/libs/libfreertos.a(heap_4.o)
 .text.getheapAllocInfo
                0x00000000       0x38 /home/wang/wmsdk_bundle-3.1.16/bin/wmsdk/libs/libfreertos.a(heap_4.o)
 .text.pvPortReAlloc
                0x00000000       0x98 /home/wang/wmsdk_bundle-3.1.16/bin/wmsdk/libs/libfreertos.a(heap_4.o)
 .text.xPortGetFreeHeapSize
                0x00000000        0xc /home/wang/wmsdk_bundle-3.1.16/bin/wmsdk/libs/libfreertos.a(heap_4.o)
 .text.vPortInitialiseBlocks
                0x00000000        0x4 /home/wang/wmsdk_bundle-3.1.16/bin/wmsdk/libs/libfreertos.a(heap_4.o)
 .text.vHeapSelfTest
                0x00000000       0x48 /home/wang/wmsdk_bundle-3.1.16/bin/wmsdk/libs/libfreertos.a(heap_4.o)
 .text          0x00000000        0x0 /home/wang/wmsdk_bundle-3.1.16/bin/wmsdk/libs/libfreertos.a(list.o)
 .data          0x00000000        0x0 /home/wang/wmsdk_bundle-3.1.16/bin/wmsdk/libs/libfreertos.a(list.o)
 .bss           0x00000000        0x0 /home/wang/wmsdk_bundle-3.1.16/bin/wmsdk/libs/libfreertos.a(list.o)
 .text          0x00000000        0x0 /home/wang/wmsdk_bundle-3.1.16/bin/wmsdk/libs/libmdev.a(mdev.o)
 .data          0x00000000        0x0 /home/wang/wmsdk_bundle-3.1.16/bin/wmsdk/libs/libmdev.a(mdev.o)
 .bss           0x00000000        0x0 /home/wang/wmsdk_bundle-3.1.16/bin/wmsdk/libs/libmdev.a(mdev.o)
 .text.mdev_deregister
                0x00000000       0x3c /home/wang/wmsdk_bundle-3.1.16/bin/wmsdk/libs/libmdev.a(mdev.o)
 .text          0x00000000        0x0 /home/wang/wmsdk_bundle-3.1.16/bin/wmsdk/libs/libos.a(os.o)
 .data          0x00000000        0x0 /home/wang/wmsdk_bundle-3.1.16/bin/wmsdk/libs/libos.a(os.o)
 .bss           0x00000000        0x0 /home/wang/wmsdk_bundle-3.1.16/bin/wmsdk/libs/libos.a(os.o)
 .text.os_semaphore_create
                0x00000000       0x28 /home/wang/wmsdk_bundle-3.1.16/bin/wmsdk/libs/libos.a(os.o)
 .text.os_semaphore_get
                0x00000000       0x22 /home/wang/wmsdk_bundle-3.1.16/bin/wmsdk/libs/libos.a(os.o)
 .text.os_mutex_put
                0x00000000       0x42 /home/wang/wmsdk_bundle-3.1.16/bin/wmsdk/libs/libos.a(os.o)
 .text.os_semaphore_put
                0x00000000       0x42 /home/wang/wmsdk_bundle-3.1.16/bin/wmsdk/libs/libos.a(os.o)
 .text.os_event_flags_remove_node.isra.2
                0x00000000       0x1e /home/wang/wmsdk_bundle-3.1.16/bin/wmsdk/libs/libos.a(os.o)
 .text.os_mutex_get.constprop.3
                0x00000000       0x24 /home/wang/wmsdk_bundle-3.1.16/bin/wmsdk/libs/libos.a(os.o)
 .text.os_thread_create
                0x00000000       0x28 /home/wang/wmsdk_bundle-3.1.16/bin/wmsdk/libs/libos.a(os.o)
 .text.os_timer_create
                0x00000000       0x46 /home/wang/wmsdk_bundle-3.1.16/bin/wmsdk/libs/libos.a(os.o)
 .text.vApplicationMallocFailedHook
                0x00000000       0x10 /home/wang/wmsdk_bundle-3.1.16/bin/wmsdk/libs/libos.a(os.o)
 .text.os_get_timestamp
                0x00000000       0x5c /home/wang/wmsdk_bundle-3.1.16/bin/wmsdk/libs/libos.a(os.o)
 .text.os_queue_create
                0x00000000       0x1e /home/wang/wmsdk_bundle-3.1.16/bin/wmsdk/libs/libos.a(os.o)
 .text.os_thread_stackmark
                0x00000000        0x2 /home/wang/wmsdk_bundle-3.1.16/bin/wmsdk/libs/libos.a(os.o)
 .text.os_dump_threadinfo
                0x00000000      0x11c /home/wang/wmsdk_bundle-3.1.16/bin/wmsdk/libs/libos.a(os.o)
 .text.os_event_flags_create
                0x00000000       0x30 /home/wang/wmsdk_bundle-3.1.16/bin/wmsdk/libs/libos.a(os.o)
 .text.os_event_flags_get
                0x00000000      0x170 /home/wang/wmsdk_bundle-3.1.16/bin/wmsdk/libs/libos.a(os.o)
 .text.os_event_flags_set
                0x00000000       0x6e /home/wang/wmsdk_bundle-3.1.16/bin/wmsdk/libs/libos.a(os.o)
 .text.os_event_flags_delete
                0x00000000       0x86 /home/wang/wmsdk_bundle-3.1.16/bin/wmsdk/libs/libos.a(os.o)
 .text._os_delay
                0x00000000       0x30 /home/wang/wmsdk_bundle-3.1.16/bin/wmsdk/libs/libos.a(os.o)
 .text.os_disable_all_interrupts
                0x00000000        0xa /home/wang/wmsdk_bundle-3.1.16/bin/wmsdk/libs/libos.a(os.o)
 .text.os_enable_all_interrupts
                0x00000000        0xa /home/wang/wmsdk_bundle-3.1.16/bin/wmsdk/libs/libos.a(os.o)
 .text.os_rwlock_create_with_cb
                0x00000000       0x2c /home/wang/wmsdk_bundle-3.1.16/bin/wmsdk/libs/libos.a(os.o)
 .text.os_rwlock_create
                0x00000000        0x6 /home/wang/wmsdk_bundle-3.1.16/bin/wmsdk/libs/libos.a(os.o)
 .text.os_rwlock_read_lock
                0x00000000       0x44 /home/wang/wmsdk_bundle-3.1.16/bin/wmsdk/libs/libos.a(os.o)
 .text.os_rwlock_read_unlock
                0x00000000       0x26 /home/wang/wmsdk_bundle-3.1.16/bin/wmsdk/libs/libos.a(os.o)
 .text.os_rwlock_write_lock
                0x00000000        0x6 /home/wang/wmsdk_bundle-3.1.16/bin/wmsdk/libs/libos.a(os.o)
 .text.os_rwlock_write_unlock
                0x00000000        0x6 /home/wang/wmsdk_bundle-3.1.16/bin/wmsdk/libs/libos.a(os.o)
 .text.os_rwlock_delete
                0x00000000       0x1c /home/wang/wmsdk_bundle-3.1.16/bin/wmsdk/libs/libos.a(os.o)
 .rodata.CSWTCH.59
                0x00000000       0x48 /home/wang/wmsdk_bundle-3.1.16/bin/wmsdk/libs/libos.a(os.o)
 .text          0x00000000        0x0 /home/wang/wmsdk_bundle-3.1.16/bin/wmsdk/libs/libpwrmgr.a(pwrmgr.o)
 .data          0x00000000        0x0 /home/wang/wmsdk_bundle-3.1.16/bin/wmsdk/libs/libpwrmgr.a(pwrmgr.o)
 .bss           0x00000000        0x0 /home/wang/wmsdk_bundle-3.1.16/bin/wmsdk/libs/libpwrmgr.a(pwrmgr.o)
 .text.print_cli_usage
                0x00000000       0x38 /home/wang/wmsdk_bundle-3.1.16/bin/wmsdk/libs/libpwrmgr.a(pwrmgr.o)
 .text.print_usage
                0x00000000       0x38 /home/wang/wmsdk_bundle-3.1.16/bin/wmsdk/libs/libpwrmgr.a(pwrmgr.o)
 .text.cmd_pm_mcu_state
                0x00000000       0xb8 /home/wang/wmsdk_bundle-3.1.16/bin/wmsdk/libs/libpwrmgr.a(pwrmgr.o)
 .text.cmd_pm_mcu_io_cfg
                0x00000000       0x68 /home/wang/wmsdk_bundle-3.1.16/bin/wmsdk/libs/libpwrmgr.a(pwrmgr.o)
 .text.cmd_pm_mcu_cfg
                0x00000000       0x4c /home/wang/wmsdk_bundle-3.1.16/bin/wmsdk/libs/libpwrmgr.a(pwrmgr.o)
 .text.wakelock_put_debug
                0x00000000        0x2 /home/wang/wmsdk_bundle-3.1.16/bin/wmsdk/libs/libpwrmgr.a(pwrmgr.o)
 .text.wakelock_get_debug
                0x00000000        0x2 /home/wang/wmsdk_bundle-3.1.16/bin/wmsdk/libs/libpwrmgr.a(pwrmgr.o)
 .text.pm_change_event
                0x00000000       0x2c /home/wang/wmsdk_bundle-3.1.16/bin/wmsdk/libs/libpwrmgr.a(pwrmgr.o)
 .text.pm_deregister_cb
                0x00000000       0x30 /home/wang/wmsdk_bundle-3.1.16/bin/wmsdk/libs/libpwrmgr.a(pwrmgr.o)
 .text.pm_invoke_ps_callback
                0x00000000       0x28 /home/wang/wmsdk_bundle-3.1.16/bin/wmsdk/libs/libpwrmgr.a(pwrmgr.o)
 .text.wakelock_get
                0x00000000       0x50 /home/wang/wmsdk_bundle-3.1.16/bin/wmsdk/libs/libpwrmgr.a(pwrmgr.o)
 .text.wakelock_put
                0x00000000       0x30 /home/wang/wmsdk_bundle-3.1.16/bin/wmsdk/libs/libpwrmgr.a(pwrmgr.o)
 .text.wakelock_isheld
                0x00000000       0x18 /home/wang/wmsdk_bundle-3.1.16/bin/wmsdk/libs/libpwrmgr.a(pwrmgr.o)
 .text.pm_reboot_soc
                0x00000000        0xe /home/wang/wmsdk_bundle-3.1.16/bin/wmsdk/libs/libpwrmgr.a(pwrmgr.o)
 .text.cmd_pm_reboot
                0x00000000        0x4 /home/wang/wmsdk_bundle-3.1.16/bin/wmsdk/libs/libpwrmgr.a(pwrmgr.o)
 .text.pm_init  0x00000000       0x34 /home/wang/wmsdk_bundle-3.1.16/bin/wmsdk/libs/libpwrmgr.a(pwrmgr.o)
 .text.is_pm_init_done
                0x00000000       0x10 /home/wang/wmsdk_bundle-3.1.16/bin/wmsdk/libs/libpwrmgr.a(pwrmgr.o)
 .text.pm_cli_init
                0x00000000       0x14 /home/wang/wmsdk_bundle-3.1.16/bin/wmsdk/libs/libpwrmgr.a(pwrmgr.o)
 .text.pm_mcu_cli_init
                0x00000000       0x20 /home/wang/wmsdk_bundle-3.1.16/bin/wmsdk/libs/libpwrmgr.a(pwrmgr.o)
 .data.mcu_commands
                0x00000000       0x24 /home/wang/wmsdk_bundle-3.1.16/bin/wmsdk/libs/libpwrmgr.a(pwrmgr.o)
 .bss.init_done
                0x00000000        0x1 /home/wang/wmsdk_bundle-3.1.16/bin/wmsdk/libs/libpwrmgr.a(pwrmgr.o)
 .data.commands
                0x00000000        0xc /home/wang/wmsdk_bundle-3.1.16/bin/wmsdk/libs/libpwrmgr.a(pwrmgr.o)
 .bss.wakelock  0x00000000        0x4 /home/wang/wmsdk_bundle-3.1.16/bin/wmsdk/libs/libpwrmgr.a(pwrmgr.o)
 .rodata.str1.1
                0x00000000      0x45e /home/wang/wmsdk_bundle-3.1.16/bin/wmsdk/libs/libpwrmgr.a(pwrmgr.o)
 .text          0x00000000        0x0 /home/wang/wmsdk_bundle-3.1.16/bin/wmsdk/libs/libutil.a(boot_flags.o)
 .data          0x00000000        0x0 /home/wang/wmsdk_bundle-3.1.16/bin/wmsdk/libs/libutil.a(boot_flags.o)
 .bss           0x00000000        0x0 /home/wang/wmsdk_bundle-3.1.16/bin/wmsdk/libs/libutil.a(boot_flags.o)
 .text.boot_report_flags
                0x00000000       0xcc /home/wang/wmsdk_bundle-3.1.16/bin/wmsdk/libs/libutil.a(boot_flags.o)
 .rodata.str1.1
                0x00000000      0x18c /home/wang/wmsdk_bundle-3.1.16/bin/wmsdk/libs/libutil.a(boot_flags.o)
 .text          0x00000000        0x0 /home/wang/wmsdk_bundle-3.1.16/bin/wmsdk/libs/libutil.a(critical_error.o)
 .data          0x00000000        0x0 /home/wang/wmsdk_bundle-3.1.16/bin/wmsdk/libs/libutil.a(critical_error.o)
 .bss           0x00000000        0x0 /home/wang/wmsdk_bundle-3.1.16/bin/wmsdk/libs/libutil.a(critical_error.o)
 .text.critical_error_msg
                0x00000000       0x20 /home/wang/wmsdk_bundle-3.1.16/bin/wmsdk/libs/libutil.a(critical_error.o)
 .rodata.CSWTCH.2
                0x00000000       0x10 /home/wang/wmsdk_bundle-3.1.16/bin/wmsdk/libs/libutil.a(critical_error.o)
 .text          0x00000000        0x0 /home/wang/wmsdk_bundle-3.1.16/bin/wmsdk/libs/libwmstdio.a(wmstdio.o)
 .data          0x00000000        0x0 /home/wang/wmsdk_bundle-3.1.16/bin/wmsdk/libs/libwmstdio.a(wmstdio.o)
 .bss           0x00000000        0x0 /home/wang/wmsdk_bundle-3.1.16/bin/wmsdk/libs/libwmstdio.a(wmstdio.o)
 .text.wmstdio_putchar
                0x00000000       0x20 /home/wang/wmsdk_bundle-3.1.16/bin/wmsdk/libs/libwmstdio.a(wmstdio.o)
 .text.wmstdio_flush
                0x00000000       0x18 /home/wang/wmsdk_bundle-3.1.16/bin/wmsdk/libs/libwmstdio.a(wmstdio.o)
 .text.wmstdio_getchar
                0x00000000       0x18 /home/wang/wmsdk_bundle-3.1.16/bin/wmsdk/libs/libwmstdio.a(wmstdio.o)
 .text.wmstdio_getconsole_port
                0x00000000        0x4 /home/wang/wmsdk_bundle-3.1.16/bin/wmsdk/libs/libwmstdio.a(wmstdio.o)
 .text.__console_wmprintf
                0x00000000       0x3c /home/wang/wmsdk_bundle-3.1.16/bin/wmsdk/libs/libwmstdio.a(wmstdio.o)
 .text          0x00000000        0x0 /home/wang/wmsdk_bundle-3.1.16/bin/wmsdk/libs/libwmstdio.a(console.o)
 .data          0x00000000        0x0 /home/wang/wmsdk_bundle-3.1.16/bin/wmsdk/libs/libwmstdio.a(console.o)
 .bss           0x00000000        0x0 /home/wang/wmsdk_bundle-3.1.16/bin/wmsdk/libs/libwmstdio.a(console.o)
 .text          0x00000000        0x0 /home/wang/wmsdk_bundle-3.1.16/bin/wmsdk/libs/libwmtime.a(hwrtc.o)
 .data          0x00000000        0x0 /home/wang/wmsdk_bundle-3.1.16/bin/wmsdk/libs/libwmtime.a(hwrtc.o)
 .bss           0x00000000        0x0 /home/wang/wmsdk_bundle-3.1.16/bin/wmsdk/libs/libwmtime.a(hwrtc.o)
 .text.hwrtc_cb
                0x00000000       0x40 /home/wang/wmsdk_bundle-3.1.16/bin/wmsdk/libs/libwmtime.a(hwrtc.o)
 .text.hwrtc_time_update
                0x00000000       0x38 /home/wang/wmsdk_bundle-3.1.16/bin/wmsdk/libs/libwmtime.a(hwrtc.o)
 .text.hwrtc_init
                0x00000000       0x64 /home/wang/wmsdk_bundle-3.1.16/bin/wmsdk/libs/libwmtime.a(hwrtc.o)
 .text.hwrtc_time_set
                0x00000000       0x24 /home/wang/wmsdk_bundle-3.1.16/bin/wmsdk/libs/libwmtime.a(hwrtc.o)
 .text.hwrtc_time_get
                0x00000000       0x28 /home/wang/wmsdk_bundle-3.1.16/bin/wmsdk/libs/libwmtime.a(hwrtc.o)
 .bss.hwrtc_init_flag
                0x00000000        0x4 /home/wang/wmsdk_bundle-3.1.16/bin/wmsdk/libs/libwmtime.a(hwrtc.o)
 .data.tcalib   0x00000000        0x1 /home/wang/wmsdk_bundle-3.1.16/bin/wmsdk/libs/libwmtime.a(hwrtc.o)
 .bss.rtc_dev   0x00000000        0x4 /home/wang/wmsdk_bundle-3.1.16/bin/wmsdk/libs/libwmtime.a(hwrtc.o)
 .rodata.str1.1
                0x00000000        0x9 /home/wang/wmsdk_bundle-3.1.16/bin/wmsdk/libs/libwmtime.a(hwrtc.o)
 .nvram_uninit  0x00000000       0x10 /home/wang/wmsdk_bundle-3.1.16/bin/wmsdk/libs/libwmtime.a(hwrtc.o)
 .debug_info    0x00000000      0x361 /home/wang/wmsdk_bundle-3.1.16/bin/wmsdk/libs/libwmtime.a(hwrtc.o)
 .debug_abbrev  0x00000000      0x19f /home/wang/wmsdk_bundle-3.1.16/bin/wmsdk/libs/libwmtime.a(hwrtc.o)
 .debug_loc     0x00000000       0x2c /home/wang/wmsdk_bundle-3.1.16/bin/wmsdk/libs/libwmtime.a(hwrtc.o)
 .debug_aranges
                0x00000000       0x40 /home/wang/wmsdk_bundle-3.1.16/bin/wmsdk/libs/libwmtime.a(hwrtc.o)
 .debug_ranges  0x00000000       0x30 /home/wang/wmsdk_bundle-3.1.16/bin/wmsdk/libs/libwmtime.a(hwrtc.o)
 .debug_line    0x00000000      0x1fd /home/wang/wmsdk_bundle-3.1.16/bin/wmsdk/libs/libwmtime.a(hwrtc.o)
 .debug_str     0x00000000      0x30b /home/wang/wmsdk_bundle-3.1.16/bin/wmsdk/libs/libwmtime.a(hwrtc.o)
 .comment       0x00000000       0x71 /home/wang/wmsdk_bundle-3.1.16/bin/wmsdk/libs/libwmtime.a(hwrtc.o)
 .ARM.attributes
                0x00000000       0x33 /home/wang/wmsdk_bundle-3.1.16/bin/wmsdk/libs/libwmtime.a(hwrtc.o)
 .debug_frame   0x00000000       0x98 /home/wang/wmsdk_bundle-3.1.16/bin/wmsdk/libs/libwmtime.a(hwrtc.o)
 .text          0x00000000        0x0 obj/main.o
 .data          0x00000000        0x0 obj/main.o
 .bss           0x00000000        0x0 obj/main.o
 .text          0x00000000        0x0 obj/board.o
 .data          0x00000000        0x0 obj/board.o
 .bss           0x00000000        0x0 obj/board.o
 .text.board_console_uart_id
                0x00000000        0x4 obj/board.o
 .text.board_main_osc
                0x00000000        0x6 obj/board.o
 .text.board_32k_xtal
                0x00000000        0x4 obj/board.o
 .text.board_32k_osc
                0x00000000        0x4 obj/board.o
 .text.board_rc32k_calib
                0x00000000        0x4 obj/board.o
 .text.board_sdio_pdn
                0x00000000        0x2 obj/board.o
 .text.board_sdio_pwr
                0x00000000        0x2 obj/board.o
 .text.board_sdio_reset
                0x00000000       0x12 obj/board.o
 .text.board_sdio_pdn_support
                0x00000000        0x4 obj/board.o
 .text.board_button_pressed
                0x00000000       0x24 obj/board.o
 .text.board_supports_5GHz
                0x00000000        0x4 obj/board.o
 .text.board_i2c_pin_config
                0x00000000       0x2a obj/board.o
 .text.board_usb_pin_config
                0x00000000        0x2 obj/board.o
 .text.board_ssp_pin_config
                0x00000000        0x2 obj/board.o
 .text.board_led_1
                0x00000000        0xa obj/board.o
 .text.board_led_2
                0x00000000        0xa obj/board.o
 .text.board_led_3
                0x00000000        0xc obj/board.o
 .text.board_led_4
                0x00000000        0xc obj/board.o
 .text.board_led_on
                0x00000000        0xe obj/board.o
 .text.board_led_off
                0x00000000        0xe obj/board.o
 .text.board_button_1
                0x00000000       0x66 obj/board.o
 .text.board_button_2
                0x00000000        0xe obj/board.o
 .text.board_button_3
                0x00000000        0xe obj/board.o
 .text.board_wifi_host_wakeup
                0x00000000        0x4 obj/board.o
 .text.board_wakeup0_functional
                0x00000000        0x4 obj/board.o
 .text.board_wakeup1_functional
                0x00000000        0x4 obj/board.o
 .text.led_on_off
                0x00000000       0x46 obj/board.o
 .text          0x00000000        0x0 obj/audio_read_write.o
 .data          0x00000000        0x0 obj/audio_read_write.o
 .bss           0x00000000        0x0 obj/audio_read_write.o
 .text          0x00000000        0x0 obj/save_file_addr.o
 .data          0x00000000        0x0 obj/save_file_addr.o
 .bss           0x00000000        0x0 obj/save_file_addr.o
 .text.file_type
                0x00000000       0x54 obj/save_file_addr.o
 .text.file_write
                0x00000000       0x84 obj/save_file_addr.o
 .text          0x00000000        0x0 /home/wang/wmsdk_bundle-3.1.16/bin/wmsdk/libs/libc.a(atoi.o)
 .data          0x00000000        0x0 /home/wang/wmsdk_bundle-3.1.16/bin/wmsdk/libs/libc.a(atoi.o)
 .bss           0x00000000        0x0 /home/wang/wmsdk_bundle-3.1.16/bin/wmsdk/libs/libc.a(atoi.o)
 .text.atoi     0x00000000       0x10 /home/wang/wmsdk_bundle-3.1.16/bin/wmsdk/libs/libc.a(atoi.o)
 .debug_info    0x00000000      0x10b /home/wang/wmsdk_bundle-3.1.16/bin/wmsdk/libs/libc.a(atoi.o)
 .debug_abbrev  0x00000000       0xa5 /home/wang/wmsdk_bundle-3.1.16/bin/wmsdk/libs/libc.a(atoi.o)
 .debug_loc     0x00000000       0x21 /home/wang/wmsdk_bundle-3.1.16/bin/wmsdk/libs/libc.a(atoi.o)
 .debug_aranges
                0x00000000       0x20 /home/wang/wmsdk_bundle-3.1.16/bin/wmsdk/libs/libc.a(atoi.o)
 .debug_ranges  0x00000000       0x10 /home/wang/wmsdk_bundle-3.1.16/bin/wmsdk/libs/libc.a(atoi.o)
 .debug_line    0x00000000       0x91 /home/wang/wmsdk_bundle-3.1.16/bin/wmsdk/libs/libc.a(atoi.o)
 .debug_str     0x00000000      0x192 /home/wang/wmsdk_bundle-3.1.16/bin/wmsdk/libs/libc.a(atoi.o)
 .comment       0x00000000       0x71 /home/wang/wmsdk_bundle-3.1.16/bin/wmsdk/libs/libc.a(atoi.o)
 .ARM.attributes
                0x00000000       0x33 /home/wang/wmsdk_bundle-3.1.16/bin/wmsdk/libs/libc.a(atoi.o)
 .debug_frame   0x00000000       0x28 /home/wang/wmsdk_bundle-3.1.16/bin/wmsdk/libs/libc.a(atoi.o)
 .text          0x00000000        0x0 /home/wang/wmsdk_bundle-3.1.16/bin/wmsdk/libs/libc.a(memcmp.o)
 .data          0x00000000        0x0 /home/wang/wmsdk_bundle-3.1.16/bin/wmsdk/libs/libc.a(memcmp.o)
 .bss           0x00000000        0x0 /home/wang/wmsdk_bundle-3.1.16/bin/wmsdk/libs/libc.a(memcmp.o)
 .text          0x00000000        0x0 /home/wang/wmsdk_bundle-3.1.16/bin/wmsdk/libs/libc.a(snprintf.o)
 .data          0x00000000        0x0 /home/wang/wmsdk_bundle-3.1.16/bin/wmsdk/libs/libc.a(snprintf.o)
 .bss           0x00000000        0x0 /home/wang/wmsdk_bundle-3.1.16/bin/wmsdk/libs/libc.a(snprintf.o)
 .text          0x00000000        0x0 /home/wang/wmsdk_bundle-3.1.16/bin/wmsdk/libs/libc.a(sprintf.o)
 .data          0x00000000        0x0 /home/wang/wmsdk_bundle-3.1.16/bin/wmsdk/libs/libc.a(sprintf.o)
 .bss           0x00000000        0x0 /home/wang/wmsdk_bundle-3.1.16/bin/wmsdk/libs/libc.a(sprintf.o)
 .text.sprintf  0x00000000       0x1e /home/wang/wmsdk_bundle-3.1.16/bin/wmsdk/libs/libc.a(sprintf.o)
 .debug_info    0x00000000      0x11b /home/wang/wmsdk_bundle-3.1.16/bin/wmsdk/libs/libc.a(sprintf.o)
 .debug_abbrev  0x00000000       0xe9 /home/wang/wmsdk_bundle-3.1.16/bin/wmsdk/libs/libc.a(sprintf.o)
 .debug_loc     0x00000000       0x21 /home/wang/wmsdk_bundle-3.1.16/bin/wmsdk/libs/libc.a(sprintf.o)
 .debug_aranges
                0x00000000       0x20 /home/wang/wmsdk_bundle-3.1.16/bin/wmsdk/libs/libc.a(sprintf.o)
 .debug_ranges  0x00000000       0x10 /home/wang/wmsdk_bundle-3.1.16/bin/wmsdk/libs/libc.a(sprintf.o)
 .debug_line    0x00000000       0xf2 /home/wang/wmsdk_bundle-3.1.16/bin/wmsdk/libs/libc.a(sprintf.o)
 .debug_str     0x00000000      0x157 /home/wang/wmsdk_bundle-3.1.16/bin/wmsdk/libs/libc.a(sprintf.o)
 .comment       0x00000000       0x71 /home/wang/wmsdk_bundle-3.1.16/bin/wmsdk/libs/libc.a(sprintf.o)
 .ARM.attributes
                0x00000000       0x33 /home/wang/wmsdk_bundle-3.1.16/bin/wmsdk/libs/libc.a(sprintf.o)
 .debug_frame   0x00000000       0x34 /home/wang/wmsdk_bundle-3.1.16/bin/wmsdk/libs/libc.a(sprintf.o)
 .text          0x00000000        0x0 /home/wang/wmsdk_bundle-3.1.16/bin/wmsdk/libs/libc.a(sscanf.o)
 .data          0x00000000        0x0 /home/wang/wmsdk_bundle-3.1.16/bin/wmsdk/libs/libc.a(sscanf.o)
 .bss           0x00000000        0x0 /home/wang/wmsdk_bundle-3.1.16/bin/wmsdk/libs/libc.a(sscanf.o)
 .text.sscanf   0x00000000       0x1a /home/wang/wmsdk_bundle-3.1.16/bin/wmsdk/libs/libc.a(sscanf.o)
 .debug_info    0x00000000       0xff /home/wang/wmsdk_bundle-3.1.16/bin/wmsdk/libs/libc.a(sscanf.o)
 .debug_abbrev  0x00000000       0xe9 /home/wang/wmsdk_bundle-3.1.16/bin/wmsdk/libs/libc.a(sscanf.o)
 .debug_loc     0x00000000       0x21 /home/wang/wmsdk_bundle-3.1.16/bin/wmsdk/libs/libc.a(sscanf.o)
 .debug_aranges
                0x00000000       0x20 /home/wang/wmsdk_bundle-3.1.16/bin/wmsdk/libs/libc.a(sscanf.o)
 .debug_ranges  0x00000000       0x10 /home/wang/wmsdk_bundle-3.1.16/bin/wmsdk/libs/libc.a(sscanf.o)
 .debug_line    0x00000000       0xe3 /home/wang/wmsdk_bundle-3.1.16/bin/wmsdk/libs/libc.a(sscanf.o)
 .debug_str     0x00000000      0x145 /home/wang/wmsdk_bundle-3.1.16/bin/wmsdk/libs/libc.a(sscanf.o)
 .comment       0x00000000       0x71 /home/wang/wmsdk_bundle-3.1.16/bin/wmsdk/libs/libc.a(sscanf.o)
 .ARM.attributes
                0x00000000       0x33 /home/wang/wmsdk_bundle-3.1.16/bin/wmsdk/libs/libc.a(sscanf.o)
 .debug_frame   0x00000000       0x34 /home/wang/wmsdk_bundle-3.1.16/bin/wmsdk/libs/libc.a(sscanf.o)
 .text          0x00000000        0x0 /home/wang/wmsdk_bundle-3.1.16/bin/wmsdk/libs/libc.a(vsnprintf.o)
 .data          0x00000000        0x0 /home/wang/wmsdk_bundle-3.1.16/bin/wmsdk/libs/libc.a(vsnprintf.o)
 .bss           0x00000000        0x0 /home/wang/wmsdk_bundle-3.1.16/bin/wmsdk/libs/libc.a(vsnprintf.o)
 .text          0x00000000        0x0 /home/wang/wmsdk_bundle-3.1.16/bin/wmsdk/libs/libc.a(vsscanf.o)
 .data          0x00000000        0x0 /home/wang/wmsdk_bundle-3.1.16/bin/wmsdk/libs/libc.a(vsscanf.o)
 .bss           0x00000000        0x0 /home/wang/wmsdk_bundle-3.1.16/bin/wmsdk/libs/libc.a(vsscanf.o)
 .text.set_bit  0x00000000       0x18 /home/wang/wmsdk_bundle-3.1.16/bin/wmsdk/libs/libc.a(vsscanf.o)
 .text.vsscanf  0x00000000      0x410 /home/wang/wmsdk_bundle-3.1.16/bin/wmsdk/libs/libc.a(vsscanf.o)
 .debug_info    0x00000000      0x6ae /home/wang/wmsdk_bundle-3.1.16/bin/wmsdk/libs/libc.a(vsscanf.o)
 .debug_abbrev  0x00000000      0x281 /home/wang/wmsdk_bundle-3.1.16/bin/wmsdk/libs/libc.a(vsscanf.o)
 .debug_loc     0x00000000      0xc42 /home/wang/wmsdk_bundle-3.1.16/bin/wmsdk/libs/libc.a(vsscanf.o)
 .debug_aranges
                0x00000000       0x28 /home/wang/wmsdk_bundle-3.1.16/bin/wmsdk/libs/libc.a(vsscanf.o)
 .debug_ranges  0x00000000       0x60 /home/wang/wmsdk_bundle-3.1.16/bin/wmsdk/libs/libc.a(vsscanf.o)
 .debug_line    0x00000000      0x2bb /home/wang/wmsdk_bundle-3.1.16/bin/wmsdk/libs/libc.a(vsscanf.o)
 .debug_str     0x00000000      0x3eb /home/wang/wmsdk_bundle-3.1.16/bin/wmsdk/libs/libc.a(vsscanf.o)
 .comment       0x00000000       0x71 /home/wang/wmsdk_bundle-3.1.16/bin/wmsdk/libs/libc.a(vsscanf.o)
 .ARM.attributes
                0x00000000       0x33 /home/wang/wmsdk_bundle-3.1.16/bin/wmsdk/libs/libc.a(vsscanf.o)
 .debug_frame   0x00000000       0x48 /home/wang/wmsdk_bundle-3.1.16/bin/wmsdk/libs/libc.a(vsscanf.o)
 .text          0x00000000        0x0 /home/wang/wmsdk_bundle-3.1.16/bin/wmsdk/libs/libc.a(strcmp.o)
 .data          0x00000000        0x0 /home/wang/wmsdk_bundle-3.1.16/bin/wmsdk/libs/libc.a(strcmp.o)
 .bss           0x00000000        0x0 /home/wang/wmsdk_bundle-3.1.16/bin/wmsdk/libs/libc.a(strcmp.o)
 .text          0x00000000        0x0 /home/wang/wmsdk_bundle-3.1.16/bin/wmsdk/libs/libc.a(strncmp.o)
 .data          0x00000000        0x0 /home/wang/wmsdk_bundle-3.1.16/bin/wmsdk/libs/libc.a(strncmp.o)
 .bss           0x00000000        0x0 /home/wang/wmsdk_bundle-3.1.16/bin/wmsdk/libs/libc.a(strncmp.o)
 .text.strncmp  0x00000000       0x1e /home/wang/wmsdk_bundle-3.1.16/bin/wmsdk/libs/libc.a(strncmp.o)
 .debug_info    0x00000000       0xdb /home/wang/wmsdk_bundle-3.1.16/bin/wmsdk/libs/libc.a(strncmp.o)
 .debug_abbrev  0x00000000       0x90 /home/wang/wmsdk_bundle-3.1.16/bin/wmsdk/libs/libc.a(strncmp.o)
 .debug_loc     0x00000000      0x125 /home/wang/wmsdk_bundle-3.1.16/bin/wmsdk/libs/libc.a(strncmp.o)
 .debug_aranges
                0x00000000       0x20 /home/wang/wmsdk_bundle-3.1.16/bin/wmsdk/libs/libc.a(strncmp.o)
 .debug_ranges  0x00000000       0x10 /home/wang/wmsdk_bundle-3.1.16/bin/wmsdk/libs/libc.a(strncmp.o)
 .debug_line    0x00000000       0x89 /home/wang/wmsdk_bundle-3.1.16/bin/wmsdk/libs/libc.a(strncmp.o)
 .debug_str     0x00000000      0x127 /home/wang/wmsdk_bundle-3.1.16/bin/wmsdk/libs/libc.a(strncmp.o)
 .comment       0x00000000       0x71 /home/wang/wmsdk_bundle-3.1.16/bin/wmsdk/libs/libc.a(strncmp.o)
 .ARM.attributes
                0x00000000       0x33 /home/wang/wmsdk_bundle-3.1.16/bin/wmsdk/libs/libc.a(strncmp.o)
 .debug_frame   0x00000000       0x2c /home/wang/wmsdk_bundle-3.1.16/bin/wmsdk/libs/libc.a(strncmp.o)
 .text          0x00000000        0x0 /home/wang/wmsdk_bundle-3.1.16/bin/wmsdk/libs/libc.a(strncpy.o)
 .data          0x00000000        0x0 /home/wang/wmsdk_bundle-3.1.16/bin/wmsdk/libs/libc.a(strncpy.o)
 .bss           0x00000000        0x0 /home/wang/wmsdk_bundle-3.1.16/bin/wmsdk/libs/libc.a(strncpy.o)
 .text          0x00000000        0x0 /home/wang/wmsdk_bundle-3.1.16/bin/wmsdk/libs/libc.a(strcat.o)
 .data          0x00000000        0x0 /home/wang/wmsdk_bundle-3.1.16/bin/wmsdk/libs/libc.a(strcat.o)
 .bss           0x00000000        0x0 /home/wang/wmsdk_bundle-3.1.16/bin/wmsdk/libs/libc.a(strcat.o)
 .text.strcat   0x00000000       0x16 /home/wang/wmsdk_bundle-3.1.16/bin/wmsdk/libs/libc.a(strcat.o)
 .debug_info    0x00000000       0xdd /home/wang/wmsdk_bundle-3.1.16/bin/wmsdk/libs/libc.a(strcat.o)
 .debug_abbrev  0x00000000       0xb8 /home/wang/wmsdk_bundle-3.1.16/bin/wmsdk/libs/libc.a(strcat.o)
 .debug_loc     0x00000000       0x3c /home/wang/wmsdk_bundle-3.1.16/bin/wmsdk/libs/libc.a(strcat.o)
 .debug_aranges
                0x00000000       0x20 /home/wang/wmsdk_bundle-3.1.16/bin/wmsdk/libs/libc.a(strcat.o)
 .debug_ranges  0x00000000       0x10 /home/wang/wmsdk_bundle-3.1.16/bin/wmsdk/libs/libc.a(strcat.o)
 .debug_line    0x00000000       0x7a /home/wang/wmsdk_bundle-3.1.16/bin/wmsdk/libs/libc.a(strcat.o)
 .debug_str     0x00000000      0x11e /home/wang/wmsdk_bundle-3.1.16/bin/wmsdk/libs/libc.a(strcat.o)
 .comment       0x00000000       0x71 /home/wang/wmsdk_bundle-3.1.16/bin/wmsdk/libs/libc.a(strcat.o)
 .ARM.attributes
                0x00000000       0x33 /home/wang/wmsdk_bundle-3.1.16/bin/wmsdk/libs/libc.a(strcat.o)
 .debug_frame   0x00000000       0x2c /home/wang/wmsdk_bundle-3.1.16/bin/wmsdk/libs/libc.a(strcat.o)
 .text          0x00000000        0x0 /home/wang/wmsdk_bundle-3.1.16/bin/wmsdk/libs/libc.a(strlen.o)
 .data          0x00000000        0x0 /home/wang/wmsdk_bundle-3.1.16/bin/wmsdk/libs/libc.a(strlen.o)
 .bss           0x00000000        0x0 /home/wang/wmsdk_bundle-3.1.16/bin/wmsdk/libs/libc.a(strlen.o)
 .text          0x00000000        0x0 /home/wang/wmsdk_bundle-3.1.16/bin/wmsdk/libs/libc.a(strchr.o)
 .data          0x00000000        0x0 /home/wang/wmsdk_bundle-3.1.16/bin/wmsdk/libs/libc.a(strchr.o)
 .bss           0x00000000        0x0 /home/wang/wmsdk_bundle-3.1.16/bin/wmsdk/libs/libc.a(strchr.o)
 .text.strchr   0x00000000       0x1a /home/wang/wmsdk_bundle-3.1.16/bin/wmsdk/libs/libc.a(strchr.o)
 .debug_info    0x00000000       0x7e /home/wang/wmsdk_bundle-3.1.16/bin/wmsdk/libs/libc.a(strchr.o)
 .debug_abbrev  0x00000000       0x74 /home/wang/wmsdk_bundle-3.1.16/bin/wmsdk/libs/libc.a(strchr.o)
 .debug_loc     0x00000000       0x29 /home/wang/wmsdk_bundle-3.1.16/bin/wmsdk/libs/libc.a(strchr.o)
 .debug_aranges
                0x00000000       0x20 /home/wang/wmsdk_bundle-3.1.16/bin/wmsdk/libs/libc.a(strchr.o)
 .debug_ranges  0x00000000       0x10 /home/wang/wmsdk_bundle-3.1.16/bin/wmsdk/libs/libc.a(strchr.o)
 .debug_line    0x00000000       0x3e /home/wang/wmsdk_bundle-3.1.16/bin/wmsdk/libs/libc.a(strchr.o)
 .debug_str     0x00000000      0x110 /home/wang/wmsdk_bundle-3.1.16/bin/wmsdk/libs/libc.a(strchr.o)
 .comment       0x00000000       0x71 /home/wang/wmsdk_bundle-3.1.16/bin/wmsdk/libs/libc.a(strchr.o)
 .ARM.attributes
                0x00000000       0x33 /home/wang/wmsdk_bundle-3.1.16/bin/wmsdk/libs/libc.a(strchr.o)
 .debug_frame   0x00000000       0x28 /home/wang/wmsdk_bundle-3.1.16/bin/wmsdk/libs/libc.a(strchr.o)
 .text          0x00000000        0x0 /home/wang/wmsdk_bundle-3.1.16/bin/wmsdk/libs/libc.a(strstr.o)
 .data          0x00000000        0x0 /home/wang/wmsdk_bundle-3.1.16/bin/wmsdk/libs/libc.a(strstr.o)
 .bss           0x00000000        0x0 /home/wang/wmsdk_bundle-3.1.16/bin/wmsdk/libs/libc.a(strstr.o)
 .text.strstr   0x00000000       0x22 /home/wang/wmsdk_bundle-3.1.16/bin/wmsdk/libs/libc.a(strstr.o)
 .debug_info    0x00000000      0x111 /home/wang/wmsdk_bundle-3.1.16/bin/wmsdk/libs/libc.a(strstr.o)
 .debug_abbrev  0x00000000       0xc1 /home/wang/wmsdk_bundle-3.1.16/bin/wmsdk/libs/libc.a(strstr.o)
 .debug_loc     0x00000000       0x6e /home/wang/wmsdk_bundle-3.1.16/bin/wmsdk/libs/libc.a(strstr.o)
 .debug_aranges
                0x00000000       0x20 /home/wang/wmsdk_bundle-3.1.16/bin/wmsdk/libs/libc.a(strstr.o)
 .debug_ranges  0x00000000       0x10 /home/wang/wmsdk_bundle-3.1.16/bin/wmsdk/libs/libc.a(strstr.o)
 .debug_line    0x00000000       0x85 /home/wang/wmsdk_bundle-3.1.16/bin/wmsdk/libs/libc.a(strstr.o)
 .debug_str     0x00000000      0x135 /home/wang/wmsdk_bundle-3.1.16/bin/wmsdk/libs/libc.a(strstr.o)
 .comment       0x00000000       0x71 /home/wang/wmsdk_bundle-3.1.16/bin/wmsdk/libs/libc.a(strstr.o)
 .ARM.attributes
                0x00000000       0x33 /home/wang/wmsdk_bundle-3.1.16/bin/wmsdk/libs/libc.a(strstr.o)
 .debug_frame   0x00000000       0x2c /home/wang/wmsdk_bundle-3.1.16/bin/wmsdk/libs/libc.a(strstr.o)
 .text          0x00000000        0x0 /home/wang/wmsdk_bundle-3.1.16/bin/wmsdk/libs/libc.a(strtok.o)
 .data          0x00000000        0x0 /home/wang/wmsdk_bundle-3.1.16/bin/wmsdk/libs/libc.a(strtok.o)
 .bss           0x00000000        0x0 /home/wang/wmsdk_bundle-3.1.16/bin/wmsdk/libs/libc.a(strtok.o)
 .text.strtok   0x00000000        0xc /home/wang/wmsdk_bundle-3.1.16/bin/wmsdk/libs/libc.a(strtok.o)
 .bss.holder.3732
                0x00000000        0x4 /home/wang/wmsdk_bundle-3.1.16/bin/wmsdk/libs/libc.a(strtok.o)
 .debug_info    0x00000000       0xd9 /home/wang/wmsdk_bundle-3.1.16/bin/wmsdk/libs/libc.a(strtok.o)
 .debug_abbrev  0x00000000       0xb9 /home/wang/wmsdk_bundle-3.1.16/bin/wmsdk/libs/libc.a(strtok.o)
 .debug_loc     0x00000000       0x42 /home/wang/wmsdk_bundle-3.1.16/bin/wmsdk/libs/libc.a(strtok.o)
 .debug_aranges
                0x00000000       0x20 /home/wang/wmsdk_bundle-3.1.16/bin/wmsdk/libs/libc.a(strtok.o)
 .debug_ranges  0x00000000       0x10 /home/wang/wmsdk_bundle-3.1.16/bin/wmsdk/libs/libc.a(strtok.o)
 .debug_line    0x00000000       0x76 /home/wang/wmsdk_bundle-3.1.16/bin/wmsdk/libs/libc.a(strtok.o)
 .debug_str     0x00000000      0x126 /home/wang/wmsdk_bundle-3.1.16/bin/wmsdk/libs/libc.a(strtok.o)
 .comment       0x00000000       0x71 /home/wang/wmsdk_bundle-3.1.16/bin/wmsdk/libs/libc.a(strtok.o)
 .ARM.attributes
                0x00000000       0x33 /home/wang/wmsdk_bundle-3.1.16/bin/wmsdk/libs/libc.a(strtok.o)
 .debug_frame   0x00000000       0x20 /home/wang/wmsdk_bundle-3.1.16/bin/wmsdk/libs/libc.a(strtok.o)
 .text          0x00000000        0x0 /home/wang/wmsdk_bundle-3.1.16/bin/wmsdk/libs/libc.a(strtok_r.o)
 .data          0x00000000        0x0 /home/wang/wmsdk_bundle-3.1.16/bin/wmsdk/libs/libc.a(strtok_r.o)
 .bss           0x00000000        0x0 /home/wang/wmsdk_bundle-3.1.16/bin/wmsdk/libs/libc.a(strtok_r.o)
 .text.strtok_r
                0x00000000       0x1c /home/wang/wmsdk_bundle-3.1.16/bin/wmsdk/libs/libc.a(strtok_r.o)
 .debug_info    0x00000000       0xc3 /home/wang/wmsdk_bundle-3.1.16/bin/wmsdk/libs/libc.a(strtok_r.o)
 .debug_abbrev  0x00000000       0xa5 /home/wang/wmsdk_bundle-3.1.16/bin/wmsdk/libs/libc.a(strtok_r.o)
 .debug_loc     0x00000000       0x5a /home/wang/wmsdk_bundle-3.1.16/bin/wmsdk/libs/libc.a(strtok_r.o)
 .debug_aranges
                0x00000000       0x20 /home/wang/wmsdk_bundle-3.1.16/bin/wmsdk/libs/libc.a(strtok_r.o)
 .debug_ranges  0x00000000       0x10 /home/wang/wmsdk_bundle-3.1.16/bin/wmsdk/libs/libc.a(strtok_r.o)
 .debug_line    0x00000000       0x85 /home/wang/wmsdk_bundle-3.1.16/bin/wmsdk/libs/libc.a(strtok_r.o)
 .debug_str     0x00000000      0x128 /home/wang/wmsdk_bundle-3.1.16/bin/wmsdk/libs/libc.a(strtok_r.o)
 .comment       0x00000000       0x71 /home/wang/wmsdk_bundle-3.1.16/bin/wmsdk/libs/libc.a(strtok_r.o)
 .ARM.attributes
                0x00000000       0x33 /home/wang/wmsdk_bundle-3.1.16/bin/wmsdk/libs/libc.a(strtok_r.o)
 .debug_frame   0x00000000       0x2c /home/wang/wmsdk_bundle-3.1.16/bin/wmsdk/libs/libc.a(strtok_r.o)
 .text          0x00000000        0x0 /home/wang/wmsdk_bundle-3.1.16/bin/wmsdk/libs/libc.a(strntoumax.o)
 .data          0x00000000        0x0 /home/wang/wmsdk_bundle-3.1.16/bin/wmsdk/libs/libc.a(strntoumax.o)
 .bss           0x00000000        0x0 /home/wang/wmsdk_bundle-3.1.16/bin/wmsdk/libs/libc.a(strntoumax.o)
 .text.strntoumax
                0x00000000      0x104 /home/wang/wmsdk_bundle-3.1.16/bin/wmsdk/libs/libc.a(strntoumax.o)
 .debug_info    0x00000000      0x229 /home/wang/wmsdk_bundle-3.1.16/bin/wmsdk/libs/libc.a(strntoumax.o)
 .debug_abbrev  0x00000000      0x14a /home/wang/wmsdk_bundle-3.1.16/bin/wmsdk/libs/libc.a(strntoumax.o)
 .debug_loc     0x00000000      0x359 /home/wang/wmsdk_bundle-3.1.16/bin/wmsdk/libs/libc.a(strntoumax.o)
 .debug_aranges
                0x00000000       0x20 /home/wang/wmsdk_bundle-3.1.16/bin/wmsdk/libs/libc.a(strntoumax.o)
 .debug_ranges  0x00000000       0x10 /home/wang/wmsdk_bundle-3.1.16/bin/wmsdk/libs/libc.a(strntoumax.o)
 .debug_line    0x00000000      0x12e /home/wang/wmsdk_bundle-3.1.16/bin/wmsdk/libs/libc.a(strntoumax.o)
 .debug_str     0x00000000      0x240 /home/wang/wmsdk_bundle-3.1.16/bin/wmsdk/libs/libc.a(strntoumax.o)
 .comment       0x00000000       0x71 /home/wang/wmsdk_bundle-3.1.16/bin/wmsdk/libs/libc.a(strntoumax.o)
 .ARM.attributes
                0x00000000       0x33 /home/wang/wmsdk_bundle-3.1.16/bin/wmsdk/libs/libc.a(strntoumax.o)
 .debug_frame   0x00000000       0x30 /home/wang/wmsdk_bundle-3.1.16/bin/wmsdk/libs/libc.a(strntoumax.o)
 .text          0x00000000        0x0 /home/wang/wmsdk_bundle-3.1.16/bin/wmsdk/libs/libc.a(ctypes.o)
 .data          0x00000000        0x0 /home/wang/wmsdk_bundle-3.1.16/bin/wmsdk/libs/libc.a(ctypes.o)
 .bss           0x00000000        0x0 /home/wang/wmsdk_bundle-3.1.16/bin/wmsdk/libs/libc.a(ctypes.o)
 .rodata.__ctypes
                0x00000000      0x101 /home/wang/wmsdk_bundle-3.1.16/bin/wmsdk/libs/libc.a(ctypes.o)
 .debug_info    0x00000000       0x8e /home/wang/wmsdk_bundle-3.1.16/bin/wmsdk/libs/libc.a(ctypes.o)
 .debug_abbrev  0x00000000       0x5b /home/wang/wmsdk_bundle-3.1.16/bin/wmsdk/libs/libc.a(ctypes.o)
 .debug_aranges
                0x00000000       0x18 /home/wang/wmsdk_bundle-3.1.16/bin/wmsdk/libs/libc.a(ctypes.o)
 .debug_line    0x00000000       0x67 /home/wang/wmsdk_bundle-3.1.16/bin/wmsdk/libs/libc.a(ctypes.o)
 .debug_str     0x00000000      0x188 /home/wang/wmsdk_bundle-3.1.16/bin/wmsdk/libs/libc.a(ctypes.o)
 .comment       0x00000000       0x71 /home/wang/wmsdk_bundle-3.1.16/bin/wmsdk/libs/libc.a(ctypes.o)
 .ARM.attributes
                0x00000000       0x33 /home/wang/wmsdk_bundle-3.1.16/bin/wmsdk/libs/libc.a(ctypes.o)
 .text          0x00000000        0x0 /home/wang/wmsdk_bundle-3.1.16/bin/wmsdk/libs/libc.a(memmem.o)
 .data          0x00000000        0x0 /home/wang/wmsdk_bundle-3.1.16/bin/wmsdk/libs/libc.a(memmem.o)
 .bss           0x00000000        0x0 /home/wang/wmsdk_bundle-3.1.16/bin/wmsdk/libs/libc.a(memmem.o)
 .text.memmem   0x00000000       0x8e /home/wang/wmsdk_bundle-3.1.16/bin/wmsdk/libs/libc.a(memmem.o)
 .debug_info    0x00000000      0x129 /home/wang/wmsdk_bundle-3.1.16/bin/wmsdk/libs/libc.a(memmem.o)
 .debug_abbrev  0x00000000       0xcd /home/wang/wmsdk_bundle-3.1.16/bin/wmsdk/libs/libc.a(memmem.o)
 .debug_loc     0x00000000      0x1d5 /home/wang/wmsdk_bundle-3.1.16/bin/wmsdk/libs/libc.a(memmem.o)
 .debug_aranges
                0x00000000       0x20 /home/wang/wmsdk_bundle-3.1.16/bin/wmsdk/libs/libc.a(memmem.o)
 .debug_ranges  0x00000000       0x10 /home/wang/wmsdk_bundle-3.1.16/bin/wmsdk/libs/libc.a(memmem.o)
 .debug_line    0x00000000       0xa5 /home/wang/wmsdk_bundle-3.1.16/bin/wmsdk/libs/libc.a(memmem.o)
 .debug_str     0x00000000      0x137 /home/wang/wmsdk_bundle-3.1.16/bin/wmsdk/libs/libc.a(memmem.o)
 .comment       0x00000000       0x71 /home/wang/wmsdk_bundle-3.1.16/bin/wmsdk/libs/libc.a(memmem.o)
 .ARM.attributes
                0x00000000       0x33 /home/wang/wmsdk_bundle-3.1.16/bin/wmsdk/libs/libc.a(memmem.o)
 .debug_frame   0x00000000       0x38 /home/wang/wmsdk_bundle-3.1.16/bin/wmsdk/libs/libc.a(memmem.o)
 .text          0x00000000        0x0 /home/wang/wmsdk_bundle-3.1.16/bin/wmsdk/libs/libc.a(strcpy.o)
 .data          0x00000000        0x0 /home/wang/wmsdk_bundle-3.1.16/bin/wmsdk/libs/libc.a(strcpy.o)
 .bss           0x00000000        0x0 /home/wang/wmsdk_bundle-3.1.16/bin/wmsdk/libs/libc.a(strcpy.o)
 .text.strcpy   0x00000000        0xe /home/wang/wmsdk_bundle-3.1.16/bin/wmsdk/libs/libc.a(strcpy.o)
 .debug_info    0x00000000       0xa8 /home/wang/wmsdk_bundle-3.1.16/bin/wmsdk/libs/libc.a(strcpy.o)
 .debug_abbrev  0x00000000       0x74 /home/wang/wmsdk_bundle-3.1.16/bin/wmsdk/libs/libc.a(strcpy.o)
 .debug_loc     0x00000000       0x8c /home/wang/wmsdk_bundle-3.1.16/bin/wmsdk/libs/libc.a(strcpy.o)
 .debug_aranges
                0x00000000       0x20 /home/wang/wmsdk_bundle-3.1.16/bin/wmsdk/libs/libc.a(strcpy.o)
 .debug_ranges  0x00000000       0x10 /home/wang/wmsdk_bundle-3.1.16/bin/wmsdk/libs/libc.a(strcpy.o)
 .debug_line    0x00000000       0x44 /home/wang/wmsdk_bundle-3.1.16/bin/wmsdk/libs/libc.a(strcpy.o)
 .debug_str     0x00000000      0x110 /home/wang/wmsdk_bundle-3.1.16/bin/wmsdk/libs/libc.a(strcpy.o)
 .comment       0x00000000       0x71 /home/wang/wmsdk_bundle-3.1.16/bin/wmsdk/libs/libc.a(strcpy.o)
 .ARM.attributes
                0x00000000       0x33 /home/wang/wmsdk_bundle-3.1.16/bin/wmsdk/libs/libc.a(strcpy.o)
 .debug_frame   0x00000000       0x20 /home/wang/wmsdk_bundle-3.1.16/bin/wmsdk/libs/libc.a(strcpy.o)
 .text          0x00000000        0x0 /home/wang/wmsdk_bundle-3.1.16/bin/wmsdk/libs/libc.a(strsep.o)
 .data          0x00000000        0x0 /home/wang/wmsdk_bundle-3.1.16/bin/wmsdk/libs/libc.a(strsep.o)
 .bss           0x00000000        0x0 /home/wang/wmsdk_bundle-3.1.16/bin/wmsdk/libs/libc.a(strsep.o)
 .text.strsep   0x00000000       0x1c /home/wang/wmsdk_bundle-3.1.16/bin/wmsdk/libs/libc.a(strsep.o)
 .debug_info    0x00000000       0xcf /home/wang/wmsdk_bundle-3.1.16/bin/wmsdk/libs/libc.a(strsep.o)
 .debug_abbrev  0x00000000       0xb4 /home/wang/wmsdk_bundle-3.1.16/bin/wmsdk/libs/libc.a(strsep.o)
 .debug_loc     0x00000000       0x6a /home/wang/wmsdk_bundle-3.1.16/bin/wmsdk/libs/libc.a(strsep.o)
 .debug_aranges
                0x00000000       0x20 /home/wang/wmsdk_bundle-3.1.16/bin/wmsdk/libs/libc.a(strsep.o)
 .debug_ranges  0x00000000       0x10 /home/wang/wmsdk_bundle-3.1.16/bin/wmsdk/libs/libc.a(strsep.o)
 .debug_line    0x00000000       0x7d /home/wang/wmsdk_bundle-3.1.16/bin/wmsdk/libs/libc.a(strsep.o)
 .debug_str     0x00000000      0x126 /home/wang/wmsdk_bundle-3.1.16/bin/wmsdk/libs/libc.a(strsep.o)
 .comment       0x00000000       0x71 /home/wang/wmsdk_bundle-3.1.16/bin/wmsdk/libs/libc.a(strsep.o)
 .ARM.attributes
                0x00000000       0x33 /home/wang/wmsdk_bundle-3.1.16/bin/wmsdk/libs/libc.a(strsep.o)
 .debug_frame   0x00000000       0x2c /home/wang/wmsdk_bundle-3.1.16/bin/wmsdk/libs/libc.a(strsep.o)
 .text          0x00000000        0x0 /home/wang/wmsdk_bundle-3.1.16/bin/wmsdk/libs/libc.a(strpbrk.o)
 .data          0x00000000        0x0 /home/wang/wmsdk_bundle-3.1.16/bin/wmsdk/libs/libc.a(strpbrk.o)
 .bss           0x00000000        0x0 /home/wang/wmsdk_bundle-3.1.16/bin/wmsdk/libs/libc.a(strpbrk.o)
 .text.strpbrk  0x00000000       0x18 /home/wang/wmsdk_bundle-3.1.16/bin/wmsdk/libs/libc.a(strpbrk.o)
 .debug_info    0x00000000       0xd0 /home/wang/wmsdk_bundle-3.1.16/bin/wmsdk/libs/libc.a(strpbrk.o)
 .debug_abbrev  0x00000000       0xc1 /home/wang/wmsdk_bundle-3.1.16/bin/wmsdk/libs/libc.a(strpbrk.o)
 .debug_loc     0x00000000       0x3f /home/wang/wmsdk_bundle-3.1.16/bin/wmsdk/libs/libc.a(strpbrk.o)
 .debug_aranges
                0x00000000       0x20 /home/wang/wmsdk_bundle-3.1.16/bin/wmsdk/libs/libc.a(strpbrk.o)
 .debug_ranges  0x00000000       0x10 /home/wang/wmsdk_bundle-3.1.16/bin/wmsdk/libs/libc.a(strpbrk.o)
 .debug_line    0x00000000       0x8c /home/wang/wmsdk_bundle-3.1.16/bin/wmsdk/libs/libc.a(strpbrk.o)
 .debug_str     0x00000000      0x12a /home/wang/wmsdk_bundle-3.1.16/bin/wmsdk/libs/libc.a(strpbrk.o)
 .comment       0x00000000       0x71 /home/wang/wmsdk_bundle-3.1.16/bin/wmsdk/libs/libc.a(strpbrk.o)
 .ARM.attributes
                0x00000000       0x33 /home/wang/wmsdk_bundle-3.1.16/bin/wmsdk/libs/libc.a(strpbrk.o)
 .debug_frame   0x00000000       0x28 /home/wang/wmsdk_bundle-3.1.16/bin/wmsdk/libs/libc.a(strpbrk.o)
 .text          0x00000000        0x0 /home/wang/wmsdk_bundle-3.1.16/bin/wmsdk/libs/libc.a(strxspn.o)
 .data          0x00000000        0x0 /home/wang/wmsdk_bundle-3.1.16/bin/wmsdk/libs/libc.a(strxspn.o)
 .bss           0x00000000        0x0 /home/wang/wmsdk_bundle-3.1.16/bin/wmsdk/libs/libc.a(strxspn.o)
 .text.__strxspn
                0x00000000       0x3e /home/wang/wmsdk_bundle-3.1.16/bin/wmsdk/libs/libc.a(strxspn.o)
 .debug_info    0x00000000      0x130 /home/wang/wmsdk_bundle-3.1.16/bin/wmsdk/libs/libc.a(strxspn.o)
 .debug_abbrev  0x00000000       0xeb /home/wang/wmsdk_bundle-3.1.16/bin/wmsdk/libs/libc.a(strxspn.o)
 .debug_loc     0x00000000       0xdd /home/wang/wmsdk_bundle-3.1.16/bin/wmsdk/libs/libc.a(strxspn.o)
 .debug_aranges
                0x00000000       0x20 /home/wang/wmsdk_bundle-3.1.16/bin/wmsdk/libs/libc.a(strxspn.o)
 .debug_ranges  0x00000000       0x10 /home/wang/wmsdk_bundle-3.1.16/bin/wmsdk/libs/libc.a(strxspn.o)
 .debug_line    0x00000000       0x9b /home/wang/wmsdk_bundle-3.1.16/bin/wmsdk/libs/libc.a(strxspn.o)
 .debug_str     0x00000000      0x197 /home/wang/wmsdk_bundle-3.1.16/bin/wmsdk/libs/libc.a(strxspn.o)
 .comment       0x00000000       0x71 /home/wang/wmsdk_bundle-3.1.16/bin/wmsdk/libs/libc.a(strxspn.o)
 .ARM.attributes
                0x00000000       0x33 /home/wang/wmsdk_bundle-3.1.16/bin/wmsdk/libs/libc.a(strxspn.o)
 .debug_frame   0x00000000       0x30 /home/wang/wmsdk_bundle-3.1.16/bin/wmsdk/libs/libc.a(strxspn.o)
 .text          0x00000000        0x0 /home/wang/wmsdk_bundle-3.1.16/bin/wmsdk/libs/libcli.a(cli.o)
 .data          0x00000000        0x0 /home/wang/wmsdk_bundle-3.1.16/bin/wmsdk/libs/libcli.a(cli.o)
 .bss           0x00000000        0x0 /home/wang/wmsdk_bundle-3.1.16/bin/wmsdk/libs/libcli.a(cli.o)
 .text.help_command
                0x00000000       0x4c /home/wang/wmsdk_bundle-3.1.16/bin/wmsdk/libs/libcli.a(cli.o)
 .text.get_system_conf
                0x00000000       0xa8 /home/wang/wmsdk_bundle-3.1.16/bin/wmsdk/libs/libcli.a(cli.o)
 .text.echo_cmd_handler
                0x00000000       0x74 /home/wang/wmsdk_bundle-3.1.16/bin/wmsdk/libs/libcli.a(cli.o)
 .text.os_mutex_put.constprop.7
                0x00000000       0x48 /home/wang/wmsdk_bundle-3.1.16/bin/wmsdk/libs/libcli.a(cli.o)
 .text.os_mutex_get.constprop.8
                0x00000000       0x28 /home/wang/wmsdk_bundle-3.1.16/bin/wmsdk/libs/libcli.a(cli.o)
 .text.cli_main
                0x00000000      0x220 /home/wang/wmsdk_bundle-3.1.16/bin/wmsdk/libs/libcli.a(cli.o)
 .text.cli_install_UART_Tick
                0x00000000       0x40 /home/wang/wmsdk_bundle-3.1.16/bin/wmsdk/libs/libcli.a(cli.o)
 .text.cli_remove_UART_Tick
                0x00000000       0x2c /home/wang/wmsdk_bundle-3.1.16/bin/wmsdk/libs/libcli.a(cli.o)
 .text.cli_start
                0x00000000       0x8c /home/wang/wmsdk_bundle-3.1.16/bin/wmsdk/libs/libcli.a(cli.o)
 .text.cli_get_cmd_buffer
                0x00000000       0x1a /home/wang/wmsdk_bundle-3.1.16/bin/wmsdk/libs/libcli.a(cli.o)
 .text.cli_submit_cmd_buffer
                0x00000000       0x64 /home/wang/wmsdk_bundle-3.1.16/bin/wmsdk/libs/libcli.a(cli.o)
 .text.console_tick
                0x00000000      0x1a4 /home/wang/wmsdk_bundle-3.1.16/bin/wmsdk/libs/libcli.a(cli.o)
 .text.cli_stop
                0x00000000       0xa0 /home/wang/wmsdk_bundle-3.1.16/bin/wmsdk/libs/libcli.a(cli.o)
 .text.cli_register_command
                0x00000000       0x44 /home/wang/wmsdk_bundle-3.1.16/bin/wmsdk/libs/libcli.a(cli.o)
 .text.cli_unregister_command
                0x00000000       0x5c /home/wang/wmsdk_bundle-3.1.16/bin/wmsdk/libs/libcli.a(cli.o)
 .text.cli_register_commands
                0x00000000       0x24 /home/wang/wmsdk_bundle-3.1.16/bin/wmsdk/libs/libcli.a(cli.o)
 .text.cli_unregister_commands
                0x00000000       0x24 /home/wang/wmsdk_bundle-3.1.16/bin/wmsdk/libs/libcli.a(cli.o)
 .text.cli_init
                0x00000000       0x54 /home/wang/wmsdk_bundle-3.1.16/bin/wmsdk/libs/libcli.a(cli.o)
 .rodata.queue_data
                0x00000000        0x4 /home/wang/wmsdk_bundle-3.1.16/bin/wmsdk/libs/libcli.a(cli.o)
 .bss.cli_mutex
                0x00000000        0x4 /home/wang/wmsdk_bundle-3.1.16/bin/wmsdk/libs/libcli.a(cli.o)
 .bss.cli       0x00000000      0x1b0 /home/wang/wmsdk_bundle-3.1.16/bin/wmsdk/libs/libcli.a(cli.o)
 .bss.cli_main_thread
                0x00000000        0x4 /home/wang/wmsdk_bundle-3.1.16/bin/wmsdk/libs/libcli.a(cli.o)
 .rodata.str1.1
                0x00000000      0x306 /home/wang/wmsdk_bundle-3.1.16/bin/wmsdk/libs/libcli.a(cli.o)
 .bss.argv.13613
                0x00000000       0x40 /home/wang/wmsdk_bundle-3.1.16/bin/wmsdk/libs/libcli.a(cli.o)
 .data.cli_stack
                0x00000000        0x4 /home/wang/wmsdk_bundle-3.1.16/bin/wmsdk/libs/libcli.a(cli.o)
 .data.built_ins
                0x00000000       0x24 /home/wang/wmsdk_bundle-3.1.16/bin/wmsdk/libs/libcli.a(cli.o)
 .debug_info    0x00000000     0x19cd /home/wang/wmsdk_bundle-3.1.16/bin/wmsdk/libs/libcli.a(cli.o)
 .debug_abbrev  0x00000000      0x499 /home/wang/wmsdk_bundle-3.1.16/bin/wmsdk/libs/libcli.a(cli.o)
 .debug_loc     0x00000000      0xa66 /home/wang/wmsdk_bundle-3.1.16/bin/wmsdk/libs/libcli.a(cli.o)
 .debug_aranges
                0x00000000       0xa8 /home/wang/wmsdk_bundle-3.1.16/bin/wmsdk/libs/libcli.a(cli.o)
 .debug_ranges  0x00000000      0x198 /home/wang/wmsdk_bundle-3.1.16/bin/wmsdk/libs/libcli.a(cli.o)
 .debug_line    0x00000000      0x5ff /home/wang/wmsdk_bundle-3.1.16/bin/wmsdk/libs/libcli.a(cli.o)
 .debug_str     0x00000000      0xa41 /home/wang/wmsdk_bundle-3.1.16/bin/wmsdk/libs/libcli.a(cli.o)
 .comment       0x00000000       0x71 /home/wang/wmsdk_bundle-3.1.16/bin/wmsdk/libs/libcli.a(cli.o)
 .ARM.attributes
                0x00000000       0x33 /home/wang/wmsdk_bundle-3.1.16/bin/wmsdk/libs/libcli.a(cli.o)
 .debug_frame   0x00000000      0x1fc /home/wang/wmsdk_bundle-3.1.16/bin/wmsdk/libs/libcli.a(cli.o)
 .text          0x00000000        0x0 /home/wang/wmsdk_bundle-3.1.16/bin/wmsdk/libs/libcli.a(cli_mem_simple.o)
 .data          0x00000000        0x0 /home/wang/wmsdk_bundle-3.1.16/bin/wmsdk/libs/libcli.a(cli_mem_simple.o)
 .bss           0x00000000        0x0 /home/wang/wmsdk_bundle-3.1.16/bin/wmsdk/libs/libcli.a(cli_mem_simple.o)
 .text.cli_mem_cleanup
                0x00000000        0x4 /home/wang/wmsdk_bundle-3.1.16/bin/wmsdk/libs/libcli.a(cli_mem_simple.o)
 .text.cli_mem_init
                0x00000000        0x4 /home/wang/wmsdk_bundle-3.1.16/bin/wmsdk/libs/libcli.a(cli_mem_simple.o)
 .text.cli_mem_malloc
                0x00000000       0x30 /home/wang/wmsdk_bundle-3.1.16/bin/wmsdk/libs/libcli.a(cli_mem_simple.o)
 .text.cli_mem_free
                0x00000000       0x30 /home/wang/wmsdk_bundle-3.1.16/bin/wmsdk/libs/libcli.a(cli_mem_simple.o)
 .bss.alloc     0x00000000        0x2 /home/wang/wmsdk_bundle-3.1.16/bin/wmsdk/libs/libcli.a(cli_mem_simple.o)
 .bss.buff1     0x00000000      0x100 /home/wang/wmsdk_bundle-3.1.16/bin/wmsdk/libs/libcli.a(cli_mem_simple.o)
 .bss.buff2     0x00000000      0x100 /home/wang/wmsdk_bundle-3.1.16/bin/wmsdk/libs/libcli.a(cli_mem_simple.o)
 .debug_info    0x00000000      0x11f /home/wang/wmsdk_bundle-3.1.16/bin/wmsdk/libs/libcli.a(cli_mem_simple.o)
 .debug_abbrev  0x00000000       0xa2 /home/wang/wmsdk_bundle-3.1.16/bin/wmsdk/libs/libcli.a(cli_mem_simple.o)
 .debug_loc     0x00000000       0x74 /home/wang/wmsdk_bundle-3.1.16/bin/wmsdk/libs/libcli.a(cli_mem_simple.o)
 .debug_aranges
                0x00000000       0x38 /home/wang/wmsdk_bundle-3.1.16/bin/wmsdk/libs/libcli.a(cli_mem_simple.o)
 .debug_ranges  0x00000000       0x28 /home/wang/wmsdk_bundle-3.1.16/bin/wmsdk/libs/libcli.a(cli_mem_simple.o)
 .debug_line    0x00000000       0x82 /home/wang/wmsdk_bundle-3.1.16/bin/wmsdk/libs/libcli.a(cli_mem_simple.o)
 .debug_str     0x00000000      0x171 /home/wang/wmsdk_bundle-3.1.16/bin/wmsdk/libs/libcli.a(cli_mem_simple.o)
 .comment       0x00000000       0x71 /home/wang/wmsdk_bundle-3.1.16/bin/wmsdk/libs/libcli.a(cli_mem_simple.o)
 .ARM.attributes
                0x00000000       0x33 /home/wang/wmsdk_bundle-3.1.16/bin/wmsdk/libs/libcli.a(cli_mem_simple.o)
 .debug_frame   0x00000000       0x50 /home/wang/wmsdk_bundle-3.1.16/bin/wmsdk/libs/libcli.a(cli_mem_simple.o)
 .text          0x00000000        0x0 /home/wang/wmsdk_bundle-3.1.16/bin/wmsdk/libs/libdrv.a(mw300_gpio.o)
 .data          0x00000000        0x0 /home/wang/wmsdk_bundle-3.1.16/bin/wmsdk/libs/libdrv.a(mw300_gpio.o)
 .bss           0x00000000        0x0 /home/wang/wmsdk_bundle-3.1.16/bin/wmsdk/libs/libdrv.a(mw300_gpio.o)
 .text.GPIO_SetPinDir
                0x00000000       0x28 /home/wang/wmsdk_bundle-3.1.16/bin/wmsdk/libs/libdrv.a(mw300_gpio.o)
 .text.GPIO_SetPortPinDir
                0x00000000       0x10 /home/wang/wmsdk_bundle-3.1.16/bin/wmsdk/libs/libdrv.a(mw300_gpio.o)
 .text.GPIO_WritePinOutput
                0x00000000       0x28 /home/wang/wmsdk_bundle-3.1.16/bin/wmsdk/libs/libdrv.a(mw300_gpio.o)
 .text.GPIO_WritePortOutput
                0x00000000       0x20 /home/wang/wmsdk_bundle-3.1.16/bin/wmsdk/libs/libdrv.a(mw300_gpio.o)
 .text.GPIO_ReadPortLevel
                0x00000000       0x14 /home/wang/wmsdk_bundle-3.1.16/bin/wmsdk/libs/libdrv.a(mw300_gpio.o)
 .text.GPIO_ReadPinLevel
                0x00000000       0x20 /home/wang/wmsdk_bundle-3.1.16/bin/wmsdk/libs/libdrv.a(mw300_gpio.o)
 .text.GPIO_IntConfig
                0x00000000       0x7c /home/wang/wmsdk_bundle-3.1.16/bin/wmsdk/libs/libdrv.a(mw300_gpio.o)
 .text.GPIO_IntMask
                0x00000000       0x30 /home/wang/wmsdk_bundle-3.1.16/bin/wmsdk/libs/libdrv.a(mw300_gpio.o)
 .text.GPIO_GetIntStatus
                0x00000000       0x24 /home/wang/wmsdk_bundle-3.1.16/bin/wmsdk/libs/libdrv.a(mw300_gpio.o)
 .text.GPIO_IntClr
                0x00000000       0x1c /home/wang/wmsdk_bundle-3.1.16/bin/wmsdk/libs/libdrv.a(mw300_gpio.o)
 .text.GPIO_IRQHandler
                0x00000000       0x5c /home/wang/wmsdk_bundle-3.1.16/bin/wmsdk/libs/libdrv.a(mw300_gpio.o)
 .debug_info    0x00000000      0xb2f /home/wang/wmsdk_bundle-3.1.16/bin/wmsdk/libs/libdrv.a(mw300_gpio.o)
 .debug_abbrev  0x00000000      0x209 /home/wang/wmsdk_bundle-3.1.16/bin/wmsdk/libs/libdrv.a(mw300_gpio.o)
 .debug_loc     0x00000000      0x248 /home/wang/wmsdk_bundle-3.1.16/bin/wmsdk/libs/libdrv.a(mw300_gpio.o)
 .debug_aranges
                0x00000000       0x70 /home/wang/wmsdk_bundle-3.1.16/bin/wmsdk/libs/libdrv.a(mw300_gpio.o)
 .debug_ranges  0x00000000       0x60 /home/wang/wmsdk_bundle-3.1.16/bin/wmsdk/libs/libdrv.a(mw300_gpio.o)
 .debug_line    0x00000000      0x21b /home/wang/wmsdk_bundle-3.1.16/bin/wmsdk/libs/libdrv.a(mw300_gpio.o)
 .debug_str     0x00000000      0x85b /home/wang/wmsdk_bundle-3.1.16/bin/wmsdk/libs/libdrv.a(mw300_gpio.o)
 .comment       0x00000000       0x71 /home/wang/wmsdk_bundle-3.1.16/bin/wmsdk/libs/libdrv.a(mw300_gpio.o)
 .ARM.attributes
                0x00000000       0x33 /home/wang/wmsdk_bundle-3.1.16/bin/wmsdk/libs/libdrv.a(mw300_gpio.o)
 .debug_frame   0x00000000       0xcc /home/wang/wmsdk_bundle-3.1.16/bin/wmsdk/libs/libdrv.a(mw300_gpio.o)
 .text          0x00000000        0x0 /home/wang/wmsdk_bundle-3.1.16/bin/wmsdk/libs/libdrv.a(mw300_uart.o)
 .data          0x00000000        0x0 /home/wang/wmsdk_bundle-3.1.16/bin/wmsdk/libs/libdrv.a(mw300_uart.o)
 .bss           0x00000000        0x0 /home/wang/wmsdk_bundle-3.1.16/bin/wmsdk/libs/libdrv.a(mw300_uart.o)
 .text.UART_IrConfig
                0x00000000       0x40 /home/wang/wmsdk_bundle-3.1.16/bin/wmsdk/libs/libdrv.a(mw300_uart.o)
 .text.UART_BaudConfig
                0x00000000       0x2c /home/wang/wmsdk_bundle-3.1.16/bin/wmsdk/libs/libdrv.a(mw300_uart.o)
 .text.UART_SetBreakCmd
                0x00000000       0x1c /home/wang/wmsdk_bundle-3.1.16/bin/wmsdk/libs/libdrv.a(mw300_uart.o)
 .text.UART_SetLoopBackMode
                0x00000000       0x1c /home/wang/wmsdk_bundle-3.1.16/bin/wmsdk/libs/libdrv.a(mw300_uart.o)
 .text.UART_SetOut2Signal
                0x00000000       0x1c /home/wang/wmsdk_bundle-3.1.16/bin/wmsdk/libs/libdrv.a(mw300_uart.o)
 .text.UART_SetOut1Signal
                0x00000000       0x1c /home/wang/wmsdk_bundle-3.1.16/bin/wmsdk/libs/libdrv.a(mw300_uart.o)
 .text.UART_SetDTRSignal
                0x00000000       0x1c /home/wang/wmsdk_bundle-3.1.16/bin/wmsdk/libs/libdrv.a(mw300_uart.o)
 .text.UART_RTS_Assert
                0x00000000       0x14 /home/wang/wmsdk_bundle-3.1.16/bin/wmsdk/libs/libdrv.a(mw300_uart.o)
 .text.UART_RTS_Deassert
                0x00000000       0x14 /home/wang/wmsdk_bundle-3.1.16/bin/wmsdk/libs/libdrv.a(mw300_uart.o)
 .text.UART_SetAutoBaudDL
                0x00000000       0x34 /home/wang/wmsdk_bundle-3.1.16/bin/wmsdk/libs/libdrv.a(mw300_uart.o)
 .text.UART_GetAutoBaudCount
                0x00000000       0x10 /home/wang/wmsdk_bundle-3.1.16/bin/wmsdk/libs/libdrv.a(mw300_uart.o)
 .text.UART_GetModemStatus
                0x00000000       0x60 /home/wang/wmsdk_bundle-3.1.16/bin/wmsdk/libs/libdrv.a(mw300_uart.o)
 .text.UART_GetRxFIFOLevel
                0x00000000       0x14 /home/wang/wmsdk_bundle-3.1.16/bin/wmsdk/libs/libdrv.a(mw300_uart.o)
 .text          0x00000000        0x0 /home/wang/wmsdk_bundle-3.1.16/bin/wmsdk/libs/libdrv.a(mdev_uart.o)
 .data          0x00000000        0x0 /home/wang/wmsdk_bundle-3.1.16/bin/wmsdk/libs/libdrv.a(mdev_uart.o)
 .bss           0x00000000        0x0 /home/wang/wmsdk_bundle-3.1.16/bin/wmsdk/libs/libdrv.a(mdev_uart.o)
 .text.uart_drv_rx_buf_reset
                0x00000000       0x20 /home/wang/wmsdk_bundle-3.1.16/bin/wmsdk/libs/libdrv.a(mdev_uart.o)
 .text.uart_drv_xfer_mode
                0x00000000       0x4c /home/wang/wmsdk_bundle-3.1.16/bin/wmsdk/libs/libdrv.a(mdev_uart.o)
 .text.uart_drv_close
                0x00000000       0x8c /home/wang/wmsdk_bundle-3.1.16/bin/wmsdk/libs/libdrv.a(mdev_uart.o)
 .text.uart_drv_rxbuf_size
                0x00000000       0x58 /home/wang/wmsdk_bundle-3.1.16/bin/wmsdk/libs/libdrv.a(mdev_uart.o)
 .text.uart_drv_dma_rd_blk_size
                0x00000000       0x60 /home/wang/wmsdk_bundle-3.1.16/bin/wmsdk/libs/libdrv.a(mdev_uart.o)
 .text.uart_drv_set_opts
                0x00000000       0x74 /home/wang/wmsdk_bundle-3.1.16/bin/wmsdk/libs/libdrv.a(mdev_uart.o)
 .text.uart_drv_blocking_read
                0x00000000       0x4c /home/wang/wmsdk_bundle-3.1.16/bin/wmsdk/libs/libdrv.a(mdev_uart.o)
 .text.uart_drv_deinit
                0x00000000       0x4c /home/wang/wmsdk_bundle-3.1.16/bin/wmsdk/libs/libdrv.a(mdev_uart.o)
 .text          0x00000000        0x0 /home/wang/wmsdk_bundle-3.1.16/bin/wmsdk/libs/libdrv.a(mdev_dma.o)
 .data          0x00000000        0x0 /home/wang/wmsdk_bundle-3.1.16/bin/wmsdk/libs/libdrv.a(mdev_dma.o)
 .bss           0x00000000        0x0 /home/wang/wmsdk_bundle-3.1.16/bin/wmsdk/libs/libdrv.a(mdev_dma.o)
 .text.dma_drv_set_cb
                0x00000000       0x58 /home/wang/wmsdk_bundle-3.1.16/bin/wmsdk/libs/libdrv.a(mdev_dma.o)
 .text.dma_drv_deinit
                0x00000000       0x30 /home/wang/wmsdk_bundle-3.1.16/bin/wmsdk/libs/libdrv.a(mdev_dma.o)
 .text          0x00000000        0x0 /home/wang/wmsdk_bundle-3.1.16/bin/wmsdk/libs/libdrv.a(mw300_dma.o)
 .data          0x00000000        0x0 /home/wang/wmsdk_bundle-3.1.16/bin/wmsdk/libs/libdrv.a(mw300_dma.o)
 .bss           0x00000000        0x0 /home/wang/wmsdk_bundle-3.1.16/bin/wmsdk/libs/libdrv.a(mw300_dma.o)
 .text.DMA_Stop
                0x00000000       0x16 /home/wang/wmsdk_bundle-3.1.16/bin/wmsdk/libs/libdrv.a(mw300_dma.o)
 .text.DMA_SetAckDelayCycle
                0x00000000       0x12 /home/wang/wmsdk_bundle-3.1.16/bin/wmsdk/libs/libdrv.a(mw300_dma.o)
 .text.DMA_GetChannelEnableStatus
                0x00000000       0x10 /home/wang/wmsdk_bundle-3.1.16/bin/wmsdk/libs/libdrv.a(mw300_dma.o)
 .text.DMA_GetChannelIntStatus
                0x00000000       0x3e /home/wang/wmsdk_bundle-3.1.16/bin/wmsdk/libs/libdrv.a(mw300_dma.o)
 .text          0x00000000        0x0 /home/wang/wmsdk_bundle-3.1.16/bin/wmsdk/libs/libutil.a(flash.o)
 .data          0x00000000        0x0 /home/wang/wmsdk_bundle-3.1.16/bin/wmsdk/libs/libutil.a(flash.o)
 .bss           0x00000000        0x0 /home/wang/wmsdk_bundle-3.1.16/bin/wmsdk/libs/libutil.a(flash.o)
 .text.flash_drv_get_id
                0x00000000       0x12 /home/wang/wmsdk_bundle-3.1.16/bin/wmsdk/libs/libutil.a(flash.o)
 .text.flash_drv_eraseall
                0x00000000       0x10 /home/wang/wmsdk_bundle-3.1.16/bin/wmsdk/libs/libutil.a(flash.o)
 .text          0x00000000        0x0 /home/wang/wmsdk_bundle-3.1.16/bin/wmsdk/libs/libc.a(strcasecmp.o)
 .data          0x00000000        0x0 /home/wang/wmsdk_bundle-3.1.16/bin/wmsdk/libs/libc.a(strcasecmp.o)
 .bss           0x00000000        0x0 /home/wang/wmsdk_bundle-3.1.16/bin/wmsdk/libs/libc.a(strcasecmp.o)
 .text.strcasecmp
                0x00000000       0x3c /home/wang/wmsdk_bundle-3.1.16/bin/wmsdk/libs/libc.a(strcasecmp.o)
 .debug_info    0x00000000      0x201 /home/wang/wmsdk_bundle-3.1.16/bin/wmsdk/libs/libc.a(strcasecmp.o)
 .debug_abbrev  0x00000000      0x10c /home/wang/wmsdk_bundle-3.1.16/bin/wmsdk/libs/libc.a(strcasecmp.o)
 .debug_loc     0x00000000      0x137 /home/wang/wmsdk_bundle-3.1.16/bin/wmsdk/libs/libc.a(strcasecmp.o)
 .debug_aranges
                0x00000000       0x20 /home/wang/wmsdk_bundle-3.1.16/bin/wmsdk/libs/libc.a(strcasecmp.o)
 .debug_ranges  0x00000000       0x88 /home/wang/wmsdk_bundle-3.1.16/bin/wmsdk/libs/libc.a(strcasecmp.o)
 .debug_line    0x00000000       0xa5 /home/wang/wmsdk_bundle-3.1.16/bin/wmsdk/libs/libc.a(strcasecmp.o)
 .debug_str     0x00000000      0x1c8 /home/wang/wmsdk_bundle-3.1.16/bin/wmsdk/libs/libc.a(strcasecmp.o)
 .comment       0x00000000       0x71 /home/wang/wmsdk_bundle-3.1.16/bin/wmsdk/libs/libc.a(strcasecmp.o)
 .ARM.attributes
                0x00000000       0x33 /home/wang/wmsdk_bundle-3.1.16/bin/wmsdk/libs/libc.a(strcasecmp.o)
 .debug_frame   0x00000000       0x2c /home/wang/wmsdk_bundle-3.1.16/bin/wmsdk/libs/libc.a(strcasecmp.o)
 .text          0x00000000        0x0 /home/wang/wmsdk_bundle-3.1.16/bin/wmsdk/libs/libdrv.a(mdev_iflash.o)
 .data          0x00000000        0x0 /home/wang/wmsdk_bundle-3.1.16/bin/wmsdk/libs/libdrv.a(mdev_iflash.o)
 .bss           0x00000000        0x0 /home/wang/wmsdk_bundle-3.1.16/bin/wmsdk/libs/libdrv.a(mdev_iflash.o)
 .text.iflash_drv_get_id
                0x00000000        0xe /home/wang/wmsdk_bundle-3.1.16/bin/wmsdk/libs/libdrv.a(mdev_iflash.o)
 .text.iflash_drv_eraseall
                0x00000000       0x34 /home/wang/wmsdk_bundle-3.1.16/bin/wmsdk/libs/libdrv.a(mdev_iflash.o)
 .text          0x00000000        0x0 /home/wang/wmsdk_bundle-3.1.16/bin/wmsdk/libs/libdrv.a(mw300_flash.o)
 .data          0x00000000        0x0 /home/wang/wmsdk_bundle-3.1.16/bin/wmsdk/libs/libdrv.a(mw300_flash.o)
 .bss           0x00000000        0x0 /home/wang/wmsdk_bundle-3.1.16/bin/wmsdk/libs/libdrv.a(mw300_flash.o)
 .text.FLASH_ResetFastReadDual
                0x00000000       0x4c /home/wang/wmsdk_bundle-3.1.16/bin/wmsdk/libs/libdrv.a(mw300_flash.o)
 .text.FLASH_SelectInterface
                0x00000000       0x10 /home/wang/wmsdk_bundle-3.1.16/bin/wmsdk/libs/libdrv.a(mw300_flash.o)
 .text.FLASH_SetProtectionMode
                0x00000000       0x60 /home/wang/wmsdk_bundle-3.1.16/bin/wmsdk/libs/libdrv.a(mw300_flash.o)
 .text.FLASH_WordRead
                0x00000000       0x18 /home/wang/wmsdk_bundle-3.1.16/bin/wmsdk/libs/libdrv.a(mw300_flash.o)
 .text.FLASH_IsSectorBlank
                0x00000000       0x40 /home/wang/wmsdk_bundle-3.1.16/bin/wmsdk/libs/libdrv.a(mw300_flash.o)
 .text.FLASH_IsBlank
                0x00000000       0x2c /home/wang/wmsdk_bundle-3.1.16/bin/wmsdk/libs/libdrv.a(mw300_flash.o)
 .text.FLASH_ByteRead
                0x00000000       0x1a /home/wang/wmsdk_bundle-3.1.16/bin/wmsdk/libs/libdrv.a(mw300_flash.o)
 .text.FLASH_WordWrite
                0x00000000       0x16 /home/wang/wmsdk_bundle-3.1.16/bin/wmsdk/libs/libdrv.a(mw300_flash.o)
 .text.FLASH_ByteWrite
                0x00000000       0x16 /home/wang/wmsdk_bundle-3.1.16/bin/wmsdk/libs/libdrv.a(mw300_flash.o)
 .text          0x00000000        0x0 /home/wang/wmsdk_bundle-3.1.16/bin/wmsdk/libs/libdrv.a(mw300_qspi.o)
 .data          0x00000000        0x0 /home/wang/wmsdk_bundle-3.1.16/bin/wmsdk/libs/libdrv.a(mw300_qspi.o)
 .bss           0x00000000        0x0 /home/wang/wmsdk_bundle-3.1.16/bin/wmsdk/libs/libdrv.a(mw300_qspi.o)
 .text.QSPI_Reset
                0x00000000       0x18 /home/wang/wmsdk_bundle-3.1.16/bin/wmsdk/libs/libdrv.a(mw300_qspi.o)
 .text.QSPI_Init
                0x00000000       0x54 /home/wang/wmsdk_bundle-3.1.16/bin/wmsdk/libs/libdrv.a(mw300_qspi.o)
 .text.QSPI_IntMask
                0x00000000       0xfc /home/wang/wmsdk_bundle-3.1.16/bin/wmsdk/libs/libdrv.a(mw300_qspi.o)
 .text.QSPI_IntClr
                0x00000000        0xc /home/wang/wmsdk_bundle-3.1.16/bin/wmsdk/libs/libdrv.a(mw300_qspi.o)
 .text.QSPI_SetInstrCnt
                0x00000000       0x10 /home/wang/wmsdk_bundle-3.1.16/bin/wmsdk/libs/libdrv.a(mw300_qspi.o)
 .text.QSPI_WriteWord
                0x00000000       0x10 /home/wang/wmsdk_bundle-3.1.16/bin/wmsdk/libs/libdrv.a(mw300_qspi.o)
 .text.QSPI_ReadWord
                0x00000000       0x10 /home/wang/wmsdk_bundle-3.1.16/bin/wmsdk/libs/libdrv.a(mw300_qspi.o)
 .text.QSPI_GetStatus
                0x00000000       0x74 /home/wang/wmsdk_bundle-3.1.16/bin/wmsdk/libs/libdrv.a(mw300_qspi.o)
 .text.QSPI_GetIntStatus
                0x00000000       0xa8 /home/wang/wmsdk_bundle-3.1.16/bin/wmsdk/libs/libdrv.a(mw300_qspi.o)
 .text.QSPI_IsTransferCompleted
                0x00000000       0x14 /home/wang/wmsdk_bundle-3.1.16/bin/wmsdk/libs/libdrv.a(mw300_qspi.o)
 .text.QSPI_DmaCmd
                0x00000000       0x3c /home/wang/wmsdk_bundle-3.1.16/bin/wmsdk/libs/libdrv.a(mw300_qspi.o)
 .data          0x00000000        0x0 /home/wang/work/gcc-arm-none-eabi-4_8-2014q2/bin/../lib/gcc/arm-none-eabi/4.8.4/armv7e-m/libgcc.a(_arm_addsubdf3.o)
 .bss           0x00000000        0x0 /home/wang/work/gcc-arm-none-eabi-4_8-2014q2/bin/../lib/gcc/arm-none-eabi/4.8.4/armv7e-m/libgcc.a(_arm_addsubdf3.o)
 .data          0x00000000        0x0 /home/wang/work/gcc-arm-none-eabi-4_8-2014q2/bin/../lib/gcc/arm-none-eabi/4.8.4/armv7e-m/libgcc.a(_arm_muldivdf3.o)
 .bss           0x00000000        0x0 /home/wang/work/gcc-arm-none-eabi-4_8-2014q2/bin/../lib/gcc/arm-none-eabi/4.8.4/armv7e-m/libgcc.a(_arm_muldivdf3.o)
 .data          0x00000000        0x0 /home/wang/work/gcc-arm-none-eabi-4_8-2014q2/bin/../lib/gcc/arm-none-eabi/4.8.4/armv7e-m/libgcc.a(_arm_fixdfsi.o)
 .bss           0x00000000        0x0 /home/wang/work/gcc-arm-none-eabi-4_8-2014q2/bin/../lib/gcc/arm-none-eabi/4.8.4/armv7e-m/libgcc.a(_arm_fixdfsi.o)
 .data          0x00000000        0x0 /home/wang/work/gcc-arm-none-eabi-4_8-2014q2/bin/../lib/gcc/arm-none-eabi/4.8.4/armv7e-m/libgcc.a(_aeabi_uldivmod.o)
 .bss           0x00000000        0x0 /home/wang/work/gcc-arm-none-eabi-4_8-2014q2/bin/../lib/gcc/arm-none-eabi/4.8.4/armv7e-m/libgcc.a(_aeabi_uldivmod.o)
 .data          0x00000000        0x0 /home/wang/work/gcc-arm-none-eabi-4_8-2014q2/bin/../lib/gcc/arm-none-eabi/4.8.4/armv7e-m/libgcc.a(bpabi.o)
 .bss           0x00000000        0x0 /home/wang/work/gcc-arm-none-eabi-4_8-2014q2/bin/../lib/gcc/arm-none-eabi/4.8.4/armv7e-m/libgcc.a(bpabi.o)
 .data          0x00000000        0x0 /home/wang/work/gcc-arm-none-eabi-4_8-2014q2/bin/../lib/gcc/arm-none-eabi/4.8.4/armv7e-m/libgcc.a(_dvmd_tls.o)
 .bss           0x00000000        0x0 /home/wang/work/gcc-arm-none-eabi-4_8-2014q2/bin/../lib/gcc/arm-none-eabi/4.8.4/armv7e-m/libgcc.a(_dvmd_tls.o)
 .data          0x00000000        0x0 /home/wang/work/gcc-arm-none-eabi-4_8-2014q2/bin/../lib/gcc/arm-none-eabi/4.8.4/armv7e-m/libgcc.a(_divdi3.o)
 .bss           0x00000000        0x0 /home/wang/work/gcc-arm-none-eabi-4_8-2014q2/bin/../lib/gcc/arm-none-eabi/4.8.4/armv7e-m/libgcc.a(_divdi3.o)
 .ARM.extab     0x00000000        0x0 /home/wang/work/gcc-arm-none-eabi-4_8-2014q2/bin/../lib/gcc/arm-none-eabi/4.8.4/armv7e-m/libgcc.a(_divdi3.o)
 .ARM.exidx     0x00000000        0x8 /home/wang/work/gcc-arm-none-eabi-4_8-2014q2/bin/../lib/gcc/arm-none-eabi/4.8.4/armv7e-m/libgcc.a(_divdi3.o)
 .data          0x00000000        0x0 /home/wang/work/gcc-arm-none-eabi-4_8-2014q2/bin/../lib/gcc/arm-none-eabi/4.8.4/armv7e-m/libgcc.a(_udivdi3.o)
 .bss           0x00000000        0x0 /home/wang/work/gcc-arm-none-eabi-4_8-2014q2/bin/../lib/gcc/arm-none-eabi/4.8.4/armv7e-m/libgcc.a(_udivdi3.o)
 .ARM.extab     0x00000000        0x0 /home/wang/work/gcc-arm-none-eabi-4_8-2014q2/bin/../lib/gcc/arm-none-eabi/4.8.4/armv7e-m/libgcc.a(_udivdi3.o)
 .ARM.exidx     0x00000000        0x8 /home/wang/work/gcc-arm-none-eabi-4_8-2014q2/bin/../lib/gcc/arm-none-eabi/4.8.4/armv7e-m/libgcc.a(_udivdi3.o)
 .data          0x00000000        0x0 /home/wang/work/gcc-arm-none-eabi-4_8-2014q2/bin/../lib/gcc/arm-none-eabi/4.8.4/../../../../arm-none-eabi/lib/armv7e-m/libg.a(lib_a-memcpy.o)
 .bss           0x00000000        0x0 /home/wang/work/gcc-arm-none-eabi-4_8-2014q2/bin/../lib/gcc/arm-none-eabi/4.8.4/../../../../arm-none-eabi/lib/armv7e-m/libg.a(lib_a-memcpy.o)
 .text          0x00000000        0x0 /home/wang/work/gcc-arm-none-eabi-4_8-2014q2/bin/../lib/gcc/arm-none-eabi/4.8.4/../../../../arm-none-eabi/lib/armv7e-m/libg.a(lib_a-memmove.o)
 .data          0x00000000        0x0 /home/wang/work/gcc-arm-none-eabi-4_8-2014q2/bin/../lib/gcc/arm-none-eabi/4.8.4/../../../../arm-none-eabi/lib/armv7e-m/libg.a(lib_a-memmove.o)
 .bss           0x00000000        0x0 /home/wang/work/gcc-arm-none-eabi-4_8-2014q2/bin/../lib/gcc/arm-none-eabi/4.8.4/../../../../arm-none-eabi/lib/armv7e-m/libg.a(lib_a-memmove.o)
 .text.memmove  0x00000000       0xc0 /home/wang/work/gcc-arm-none-eabi-4_8-2014q2/bin/../lib/gcc/arm-none-eabi/4.8.4/../../../../arm-none-eabi/lib/armv7e-m/libg.a(lib_a-memmove.o)
 .ARM.attributes
                0x00000000       0x2e /home/wang/work/gcc-arm-none-eabi-4_8-2014q2/bin/../lib/gcc/arm-none-eabi/4.8.4/../../../../arm-none-eabi/lib/armv7e-m/libg.a(lib_a-memmove.o)
 .debug_frame   0x00000000       0x2c /home/wang/work/gcc-arm-none-eabi-4_8-2014q2/bin/../lib/gcc/arm-none-eabi/4.8.4/../../../../arm-none-eabi/lib/armv7e-m/libg.a(lib_a-memmove.o)
 .text          0x00000000        0x0 /home/wang/work/gcc-arm-none-eabi-4_8-2014q2/bin/../lib/gcc/arm-none-eabi/4.8.4/../../../../arm-none-eabi/lib/armv7e-m/libg.a(lib_a-memset.o)
 .data          0x00000000        0x0 /home/wang/work/gcc-arm-none-eabi-4_8-2014q2/bin/../lib/gcc/arm-none-eabi/4.8.4/../../../../arm-none-eabi/lib/armv7e-m/libg.a(lib_a-memset.o)
 .bss           0x00000000        0x0 /home/wang/work/gcc-arm-none-eabi-4_8-2014q2/bin/../lib/gcc/arm-none-eabi/4.8.4/../../../../arm-none-eabi/lib/armv7e-m/libg.a(lib_a-memset.o)

Memory Configuration

Name             Origin             Length             Attributes
SRAM0            0x00100000         0x00060000         xrw
SRAM1            0x20000000         0x00020000         xrw
NVRAM            0x480c0000         0x00001000         rw
FLASHC           0x20020000         0x00008000         rw
*default*        0x00000000         0xffffffff

Linker script and memory map

                0x00000040                _rom_data = 0x40
START GROUP
LOAD /home/wang/wmsdk_bundle-3.1.16/bin/wmsdk/libs/libaca.a
LOAD /home/wang/wmsdk_bundle-3.1.16/bin/wmsdk/libs/libaescrypto.a
LOAD /home/wang/wmsdk_bundle-3.1.16/bin/wmsdk/libs/libapp_framework.a
LOAD /home/wang/wmsdk_bundle-3.1.16/bin/wmsdk/libs/libbn.a
LOAD /home/wang/wmsdk_bundle-3.1.16/bin/wmsdk/libs/libbtdriver.a
LOAD /home/wang/wmsdk_bundle-3.1.16/bin/wmsdk/libs/libc.a
LOAD /home/wang/wmsdk_bundle-3.1.16/bin/wmsdk/libs/libcacheprof.a
LOAD /home/wang/wmsdk_bundle-3.1.16/bin/wmsdk/libs/libchacha-20.a
LOAD /home/wang/wmsdk_bundle-3.1.16/bin/wmsdk/libs/libcli.a
LOAD /home/wang/wmsdk_bundle-3.1.16/bin/wmsdk/libs/libctaocrypt.a
LOAD /home/wang/wmsdk_bundle-3.1.16/bin/wmsdk/libs/libcurve25519.a
LOAD /home/wang/wmsdk_bundle-3.1.16/bin/wmsdk/libs/libcyassl.a
LOAD /home/wang/wmsdk_bundle-3.1.16/bin/wmsdk/libs/libdhcpd.a
LOAD /home/wang/wmsdk_bundle-3.1.16/bin/wmsdk/libs/libdiagnostics.a
LOAD /home/wang/wmsdk_bundle-3.1.16/bin/wmsdk/libs/libdrv.a
LOAD /home/wang/wmsdk_bundle-3.1.16/bin/wmsdk/libs/libed25519.a
LOAD /home/wang/wmsdk_bundle-3.1.16/bin/wmsdk/libs/libezxml.a
LOAD /home/wang/wmsdk_bundle-3.1.16/bin/wmsdk/libs/libfreertos.a
LOAD /home/wang/wmsdk_bundle-3.1.16/bin/wmsdk/libs/libftfs.a
LOAD /home/wang/wmsdk_bundle-3.1.16/bin/wmsdk/libs/libhealthmon.a
LOAD /home/wang/wmsdk_bundle-3.1.16/bin/wmsdk/libs/libhkdf-sha512.a
LOAD /home/wang/wmsdk_bundle-3.1.16/bin/wmsdk/libs/libhttpclient.a
LOAD /home/wang/wmsdk_bundle-3.1.16/bin/wmsdk/libs/libhttpd.a
LOAD /home/wang/wmsdk_bundle-3.1.16/bin/wmsdk/libs/libjson.a
LOAD /home/wang/wmsdk_bundle-3.1.16/bin/wmsdk/libs/libjson_generator.a
LOAD /home/wang/wmsdk_bundle-3.1.16/bin/wmsdk/libs/libled_indicator.a
LOAD /home/wang/wmsdk_bundle-3.1.16/bin/wmsdk/libs/liblwip.a
LOAD /home/wang/wmsdk_bundle-3.1.16/bin/wmsdk/libs/libmdev.a
LOAD /home/wang/wmsdk_bundle-3.1.16/bin/wmsdk/libs/libmdns.a
LOAD /home/wang/wmsdk_bundle-3.1.16/bin/wmsdk/libs/libnet.a
LOAD /home/wang/wmsdk_bundle-3.1.16/bin/wmsdk/libs/libnwutils.a
LOAD /home/wang/wmsdk_bundle-3.1.16/bin/wmsdk/libs/libos.a
LOAD /home/wang/wmsdk_bundle-3.1.16/bin/wmsdk/libs/liboverlays.a
LOAD /home/wang/wmsdk_bundle-3.1.16/bin/wmsdk/libs/libpart.a
LOAD /home/wang/wmsdk_bundle-3.1.16/bin/wmsdk/libs/libpoly1305.a
LOAD /home/wang/wmsdk_bundle-3.1.16/bin/wmsdk/libs/libprovisioning.a
LOAD /home/wang/wmsdk_bundle-3.1.16/bin/wmsdk/libs/libpsm.a
LOAD /home/wang/wmsdk_bundle-3.1.16/bin/wmsdk/libs/libpush_button.a
LOAD /home/wang/wmsdk_bundle-3.1.16/bin/wmsdk/libs/libpwrmgr.a
LOAD /home/wang/wmsdk_bundle-3.1.16/bin/wmsdk/libs/librfget.a
LOAD /home/wang/wmsdk_bundle-3.1.16/bin/wmsdk/libs/libsrp6a.a
LOAD /home/wang/wmsdk_bundle-3.1.16/bin/wmsdk/libs/libsysinfo.a
LOAD /home/wang/wmsdk_bundle-3.1.16/bin/wmsdk/libs/libtelnetd.a
LOAD /home/wang/wmsdk_bundle-3.1.16/bin/wmsdk/libs/libtls.a
LOAD /home/wang/wmsdk_bundle-3.1.16/bin/wmsdk/libs/libttcp.a
LOAD /home/wang/wmsdk_bundle-3.1.16/bin/wmsdk/libs/libutil.a
LOAD /home/wang/wmsdk_bundle-3.1.16/bin/wmsdk/libs/libwebsocket.a
LOAD /home/wang/wmsdk_bundle-3.1.16/bin/wmsdk/libs/libwifidriver.a
LOAD /home/wang/wmsdk_bundle-3.1.16/bin/wmsdk/libs/libwlcmgr.a
LOAD /home/wang/wmsdk_bundle-3.1.16/bin/wmsdk/libs/libwmcrypto.a
LOAD /home/wang/wmsdk_bundle-3.1.16/bin/wmsdk/libs/libwmstdio.a
LOAD /home/wang/wmsdk_bundle-3.1.16/bin/wmsdk/libs/libwmtime.a
LOAD /home/wang/wmsdk_bundle-3.1.16/bin/wmsdk/libs/libwps.a
LOAD /home/wang/wmsdk_bundle-3.1.16/bin/wmsdk/libs/libxively.a
LOAD /home/wang/wmsdk_bundle-3.1.16/bin/wmsdk/libs/libxz.a
LOAD obj/main.o
LOAD obj/board.o
LOAD obj/audio_read_write.o
LOAD obj/save_file_addr.o
END GROUP
START GROUP
LOAD /home/wang/work/gcc-arm-none-eabi-4_8-2014q2/bin/../lib/gcc/arm-none-eabi/4.8.4/armv7e-m/libgcc.a
LOAD /home/wang/work/gcc-arm-none-eabi-4_8-2014q2/bin/../lib/gcc/arm-none-eabi/4.8.4/../../../../arm-none-eabi/lib/armv7e-m/libg.a
LOAD /home/wang/work/gcc-arm-none-eabi-4_8-2014q2/bin/../lib/gcc/arm-none-eabi/4.8.4/../../../../arm-none-eabi/lib/armv7e-m/libc.a
END GROUP
                0x20020000                _estack = 0x20020000
                0x00012000                _heap_size = 0x12000
                0x00000800                _min_stack_size = 0x800
                0x1f000000                _flashc_mem_start = 0x1f000000
                0x00001000                _keystore_size = 0x1000
                0x0015f000                _e_sram0 = ((ORIGIN (SRAM0) + 0x60000) - _keystore_size)

.text           0x00100000     0x8398
                0x00100000                . = ALIGN (0x100)
 *(.isr_vector)
 .isr_vector    0x00100000      0x13c /home/wang/wmsdk_bundle-3.1.16/bin/wmsdk/libs/libdrv.a(mdev_startup.o)
                0x00100000                __vector_table
                0x0010013c                . = ALIGN (0x4)
 *(.text.Reset_IRQHandler)
 .text.Reset_IRQHandler
                0x0010013c        0xc /home/wang/wmsdk_bundle-3.1.16/bin/wmsdk/libs/libdrv.a(mdev_startup.o)
                0x0010013c                Reset_IRQHandler
 *(.text .text.* .gnu.linkonce.t.*)
 .text.Default_IRQHandler
                0x00100148       0x12 /home/wang/wmsdk_bundle-3.1.16/bin/wmsdk/libs/libdrv.a(mdev_startup.o)
                0x00100148                GPIO_IRQHandler
                0x00100148                ExtPin24_IRQHandler
                0x00100148                ExtPin11_IRQHandler
                0x00100148                ExtPin8_IRQHandler
                0x00100148                I2C0_IRQHandler
                0x00100148                ExtPin4_IRQHandler
                0x00100148                ExtPin20_IRQHandler
                0x00100148                ExtPin13_IRQHandler
                0x00100148                BRNDET_IRQHandler
                0x00100148                SDIO_IRQHandler
                0x00100148                I2C1_IRQHandler
                0x00100148                ExtPin5_IRQHandler
                0x00100148                ExtPin27_IRQHandler
                0x00100148                ACOMPWKUP_IRQHandler
                0x00100148                ExtPin9_IRQHandler
                0x00100148                ExtPin17_IRQHandler
                0x00100148                ADC0_IRQHandler
                0x00100148                BusFault_IRQHandler
                0x00100148                SSP0_IRQHandler
                0x00100148                ExtPin21_IRQHandler
                0x00100148                ExtPin14_IRQHandler
                0x00100148                ExtPin23_IRQHandler
                0x00100148                ACOMP_IRQHandler
                0x00100148                ExtPin12_IRQHandler
                0x00100148                ExtPin16_IRQHandler
                0x00100148                ExtPin3_IRQHandler
                0x00100148                SSP1_IRQHandler
                0x00100148                ULPCOMP_IRQHandler
                0x00100148                UsageFault_IRQHandler
                0x00100148                USB_IRQHandler
                0x00100148                ExtPin19_IRQHandler
                0x00100148                WDT_IRQHandler
                0x00100148                DebugMonitor_IRQHandler
                0x00100148                PLL_IRQHandler
                0x00100148                Default_IRQHandler
                0x00100148                MemManage_IRQHandler
                0x00100148                SSP2_IRQHandler
                0x00100148                DAC_IRQHandler
                0x00100148                ExtPin26_IRQHandler
                0x00100148                AES_IRQHandler
                0x00100148                ExtPin6_IRQHandler
                0x00100148                CRC_IRQHandler
                0x00100148                ExtPin25_IRQHandler
                0x00100148                NMI_IRQHandler
                0x00100148                ExtPin18_IRQHandler
                0x00100148                ExtPin22_IRQHandler
                0x00100148                ExtPin10_IRQHandler
                0x00100148                ExtPin7_IRQHandler
                0x00100148                ExtPin15_IRQHandler
 .text.HardFault_IRQHandler
                0x0010015a        0xc /home/wang/wmsdk_bundle-3.1.16/bin/wmsdk/libs/libdrv.a(mdev_startup.o)
                0x0010015a                HardFault_IRQHandler
 *fill*         0x00100166        0x2 
 .text.Setup_RC32M
                0x00100168       0xa0 /home/wang/wmsdk_bundle-3.1.16/bin/wmsdk/libs/libdrv.a(mdev_startup.o)
 .text.CLK_Init
                0x00100208      0x1fc /home/wang/wmsdk_bundle-3.1.16/bin/wmsdk/libs/libdrv.a(mdev_startup.o)
                0x00100208                CLK_Init
 .text.Reset_IRQHandler_C
                0x00100404       0xc8 /home/wang/wmsdk_bundle-3.1.16/bin/wmsdk/libs/libdrv.a(mdev_startup.o)
                0x00100404                Reset_IRQHandler_C
 .text.Default_IRQHandler_C
                0x001004cc       0xa4 /home/wang/wmsdk_bundle-3.1.16/bin/wmsdk/libs/libdrv.a(mdev_startup.o)
                0x001004cc                Default_IRQHandler_C
 .text.HardFault_IRQHandler_C
                0x00100570       0xf8 /home/wang/wmsdk_bundle-3.1.16/bin/wmsdk/libs/libdrv.a(mdev_startup.o)
                0x00100570                HardFault_IRQHandler_C
 .text.CLK_SystemClkSrc
                0x00100668       0x98 /home/wang/wmsdk_bundle-3.1.16/bin/wmsdk/libs/libdrv.a(mw300_clock.o)
                0x00100668                CLK_SystemClkSrc
 .text.CLK_UARTDividerSet
                0x00100700       0x50 /home/wang/wmsdk_bundle-3.1.16/bin/wmsdk/libs/libdrv.a(mw300_clock.o)
                0x00100700                CLK_UARTDividerSet
 .text.CLK_GetUARTDivider
                0x00100750       0x38 /home/wang/wmsdk_bundle-3.1.16/bin/wmsdk/libs/libdrv.a(mw300_clock.o)
                0x00100750                CLK_GetUARTDivider
 .text.CLK_GetSystemClk
                0x00100788       0x80 /home/wang/wmsdk_bundle-3.1.16/bin/wmsdk/libs/libdrv.a(mw300_clock.o)
                0x00100788                CLK_GetSystemClk
 .text.CLK_SetUARTClkSrc
                0x00100808       0x78 /home/wang/wmsdk_bundle-3.1.16/bin/wmsdk/libs/libdrv.a(mw300_clock.o)
                0x00100808                CLK_SetUARTClkSrc
 .text.CLK_GetUARTClkSrc
                0x00100880       0x24 /home/wang/wmsdk_bundle-3.1.16/bin/wmsdk/libs/libdrv.a(mw300_clock.o)
                0x00100880                CLK_GetUARTClkSrc
 .text.CLK_SfllEnable
                0x001008a4       0x50 /home/wang/wmsdk_bundle-3.1.16/bin/wmsdk/libs/libdrv.a(mw300_clock.o)
                0x001008a4                CLK_SfllEnable
 .text.CLK_SfllDisable
                0x001008f4       0x10 /home/wang/wmsdk_bundle-3.1.16/bin/wmsdk/libs/libdrv.a(mw300_clock.o)
                0x001008f4                CLK_SfllDisable
 .text.CLK_ModuleClkEnable
                0x00100904      0x188 /home/wang/wmsdk_bundle-3.1.16/bin/wmsdk/libs/libdrv.a(mw300_clock.o)
                0x00100904                CLK_ModuleClkEnable
 .text.CLK_ModuleClkDivider
                0x00100a8c      0x180 /home/wang/wmsdk_bundle-3.1.16/bin/wmsdk/libs/libdrv.a(mw300_clock.o)
                0x00100a8c                CLK_ModuleClkDivider
 .text.CLK_RefClkEnable
                0x00100c0c       0x38 /home/wang/wmsdk_bundle-3.1.16/bin/wmsdk/libs/libdrv.a(mw300_clock.o)
                0x00100c0c                CLK_RefClkEnable
 .text.CLK_RC32MCalibration
                0x00100c44       0xd4 /home/wang/wmsdk_bundle-3.1.16/bin/wmsdk/libs/libdrv.a(mw300_clock.o)
                0x00100c44                CLK_RC32MCalibration
 .text.CLK_GetClkStatus
                0x00100d18       0x70 /home/wang/wmsdk_bundle-3.1.16/bin/wmsdk/libs/libdrv.a(mw300_clock.o)
                0x00100d18                CLK_GetClkStatus
 .text.RC32M_IRQHandler
                0x00100d88       0x54 /home/wang/wmsdk_bundle-3.1.16/bin/wmsdk/libs/libdrv.a(mw300_clock.o)
                0x00100d88                RC32M_IRQHandler
 .text.install_int_callback
                0x00100ddc       0x10 /home/wang/wmsdk_bundle-3.1.16/bin/wmsdk/libs/libdrv.a(mw300_driver.o)
                0x00100ddc                install_int_callback
 .text.PMU_ConfigWakeupPin
                0x00100dec       0x28 /home/wang/wmsdk_bundle-3.1.16/bin/wmsdk/libs/libdrv.a(mw300_pmu.o)
                0x00100dec                PMU_ConfigWakeupPin
 .text.PMU_GetLastResetCause
                0x00100e14       0x10 /home/wang/wmsdk_bundle-3.1.16/bin/wmsdk/libs/libdrv.a(mw300_pmu.o)
                0x00100e14                PMU_GetLastResetCause
 .text.PMU_ClrLastResetCause
                0x00100e24       0x48 /home/wang/wmsdk_bundle-3.1.16/bin/wmsdk/libs/libdrv.a(mw300_pmu.o)
                0x00100e24                PMU_ClrLastResetCause
 .text.PMU_PowerOnVDDIO
                0x00100e6c       0x90 /home/wang/wmsdk_bundle-3.1.16/bin/wmsdk/libs/libdrv.a(mw300_pmu.o)
                0x00100e6c                PMU_PowerOnVDDIO
 .text.PMU_VbatBrndetCmd
                0x00100efc       0x1c /home/wang/wmsdk_bundle-3.1.16/bin/wmsdk/libs/libdrv.a(mw300_pmu.o)
                0x00100efc                PMU_VbatBrndetCmd
 .text.PMU_VbatBrndetRstCmd
                0x00100f18       0x18 /home/wang/wmsdk_bundle-3.1.16/bin/wmsdk/libs/libdrv.a(mw300_pmu.o)
                0x00100f18                PMU_VbatBrndetRstCmd
 .text.PMU_PowerOnWLAN
                0x00100f30       0x14 /home/wang/wmsdk_bundle-3.1.16/bin/wmsdk/libs/libdrv.a(mw300_pmu.o)
                0x00100f30                PMU_PowerOnWLAN
 .text.ExtPin0_IRQHandler
                0x00100f44       0x3c /home/wang/wmsdk_bundle-3.1.16/bin/wmsdk/libs/libdrv.a(mw300_pmu.o)
                0x00100f44                ExtPin0_IRQHandler
 .text.ExtPin1_IRQHandler
                0x00100f80       0x3c /home/wang/wmsdk_bundle-3.1.16/bin/wmsdk/libs/libdrv.a(mw300_pmu.o)
                0x00100f80                ExtPin1_IRQHandler
 .text.WIFIWKUP_IRQHandler
                0x00100fbc       0x40 /home/wang/wmsdk_bundle-3.1.16/bin/wmsdk/libs/libdrv.a(mw300_pmu.o)
                0x00100fbc                WIFIWKUP_IRQHandler
 .text.GPIO_PinMuxFun
                0x00100ffc       0x40 /home/wang/wmsdk_bundle-3.1.16/bin/wmsdk/libs/libdrv.a(mw300_pinmux.o)
                0x00100ffc                GPIO_PinMuxFun
 .text.RTC_IRQHandler
                0x0010103c       0x44 /home/wang/wmsdk_bundle-3.1.16/bin/wmsdk/libs/libdrv.a(mw300_rtc.o)
                0x0010103c                RTC_IRQHandler
 .text.GPT_IRQHandler
                0x00101080       0xe0 /home/wang/wmsdk_bundle-3.1.16/bin/wmsdk/libs/libdrv.a(mw300_gpt.o)
 .text.GPT0_IRQHandler
                0x00101160        0x8 /home/wang/wmsdk_bundle-3.1.16/bin/wmsdk/libs/libdrv.a(mw300_gpt.o)
                0x00101160                GPT0_IRQHandler
 .text.GPT1_IRQHandler
                0x00101168        0x8 /home/wang/wmsdk_bundle-3.1.16/bin/wmsdk/libs/libdrv.a(mw300_gpt.o)
                0x00101168                GPT1_IRQHandler
 .text.GPT2_IRQHandler
                0x00101170        0x8 /home/wang/wmsdk_bundle-3.1.16/bin/wmsdk/libs/libdrv.a(mw300_gpt.o)
                0x00101170                GPT2_IRQHandler
 .text.GPT3_IRQHandler
                0x00101178        0x8 /home/wang/wmsdk_bundle-3.1.16/bin/wmsdk/libs/libdrv.a(mw300_gpt.o)
                0x00101178                GPT3_IRQHandler
 .text.prvCopyDataToQueue
                0x00101180       0x6c /home/wang/wmsdk_bundle-3.1.16/bin/wmsdk/libs/libfreertos.a(queue.o)
 .text.prvCopyDataFromQueue
                0x001011ec       0x28 /home/wang/wmsdk_bundle-3.1.16/bin/wmsdk/libs/libfreertos.a(queue.o)
 .text.prvUnlockQueue
                0x00101214       0x90 /home/wang/wmsdk_bundle-3.1.16/bin/wmsdk/libs/libfreertos.a(queue.o)
 .text.xQueueCreate
                0x001012a4       0x70 /home/wang/wmsdk_bundle-3.1.16/bin/wmsdk/libs/libfreertos.a(queue.o)
                0x001012a4                xQueueCreate
 .text.xQueueGenericSend
                0x00101314       0xe0 /home/wang/wmsdk_bundle-3.1.16/bin/wmsdk/libs/libfreertos.a(queue.o)
                0x00101314                xQueueGenericSend
 .text.xQueueCreateMutex
                0x001013f4       0x44 /home/wang/wmsdk_bundle-3.1.16/bin/wmsdk/libs/libfreertos.a(queue.o)
                0x001013f4                xQueueCreateMutex
 .text.xQueueGenericSendFromISR
                0x00101438       0x54 /home/wang/wmsdk_bundle-3.1.16/bin/wmsdk/libs/libfreertos.a(queue.o)
                0x00101438                xQueueGenericSendFromISR
 .text.xQueueGenericReceive
                0x0010148c      0x118 /home/wang/wmsdk_bundle-3.1.16/bin/wmsdk/libs/libfreertos.a(queue.o)
                0x0010148c                xQueueGenericReceive
 .text.vQueueDelete
                0x001015a4       0x14 /home/wang/wmsdk_bundle-3.1.16/bin/wmsdk/libs/libfreertos.a(queue.o)
                0x001015a4                vQueueDelete
 .text.vQueueWaitForMessageRestricted
                0x001015b8       0x3c /home/wang/wmsdk_bundle-3.1.16/bin/wmsdk/libs/libfreertos.a(queue.o)
                0x001015b8                vQueueWaitForMessageRestricted
 .text.prvAddCurrentTaskToDelayedList
                0x001015f4       0x50 /home/wang/wmsdk_bundle-3.1.16/bin/wmsdk/libs/libfreertos.a(tasks.o)
 .text.xTaskGenericCreate
                0x00101644      0x1c4 /home/wang/wmsdk_bundle-3.1.16/bin/wmsdk/libs/libfreertos.a(tasks.o)
                0x00101644                xTaskGenericCreate
 .text.vTaskDelete
                0x00101808       0x90 /home/wang/wmsdk_bundle-3.1.16/bin/wmsdk/libs/libfreertos.a(tasks.o)
                0x00101808                vTaskDelete
 .text.vTaskStartScheduler
                0x00101898       0x58 /home/wang/wmsdk_bundle-3.1.16/bin/wmsdk/libs/libfreertos.a(tasks.o)
                0x00101898                vTaskStartScheduler
 .text.vTaskSuspendAll
                0x001018f0       0x10 /home/wang/wmsdk_bundle-3.1.16/bin/wmsdk/libs/libfreertos.a(tasks.o)
                0x001018f0                vTaskSuspendAll
 .text.xTaskGetTickCount
                0x00101900       0x18 /home/wang/wmsdk_bundle-3.1.16/bin/wmsdk/libs/libfreertos.a(tasks.o)
                0x00101900                xTaskGetTickCount
 .text.vTaskIncrementTick
                0x00101918      0x120 /home/wang/wmsdk_bundle-3.1.16/bin/wmsdk/libs/libfreertos.a(tasks.o)
                0x00101918                vTaskIncrementTick
 .text.xTaskResumeAll
                0x00101a38       0xd4 /home/wang/wmsdk_bundle-3.1.16/bin/wmsdk/libs/libfreertos.a(tasks.o)
                0x00101a38                xTaskResumeAll
 .text.vTaskDelay
                0x00101b0c       0x50 /home/wang/wmsdk_bundle-3.1.16/bin/wmsdk/libs/libfreertos.a(tasks.o)
                0x00101b0c                vTaskDelay
 .text.prvIdleTask
                0x00101b5c       0x98 /home/wang/wmsdk_bundle-3.1.16/bin/wmsdk/libs/libfreertos.a(tasks.o)
 .text.vTaskSwitchContext
                0x00101bf4      0x104 /home/wang/wmsdk_bundle-3.1.16/bin/wmsdk/libs/libfreertos.a(tasks.o)
                0x00101bf4                vTaskSwitchContext
 .text.vTaskSuspend
                0x00101cf8       0x74 /home/wang/wmsdk_bundle-3.1.16/bin/wmsdk/libs/libfreertos.a(tasks.o)
                0x00101cf8                vTaskSuspend
 .text.vTaskPlaceOnEventList
                0x00101d6c       0x44 /home/wang/wmsdk_bundle-3.1.16/bin/wmsdk/libs/libfreertos.a(tasks.o)
                0x00101d6c                vTaskPlaceOnEventList
 .text.vTaskPlaceOnEventListRestricted
                0x00101db0       0x2c /home/wang/wmsdk_bundle-3.1.16/bin/wmsdk/libs/libfreertos.a(tasks.o)
                0x00101db0                vTaskPlaceOnEventListRestricted
 .text.xTaskRemoveFromEventList
                0x00101ddc       0x6c /home/wang/wmsdk_bundle-3.1.16/bin/wmsdk/libs/libfreertos.a(tasks.o)
                0x00101ddc                xTaskRemoveFromEventList
 .text.vTaskSetTimeOutState
                0x00101e48       0x18 /home/wang/wmsdk_bundle-3.1.16/bin/wmsdk/libs/libfreertos.a(tasks.o)
                0x00101e48                vTaskSetTimeOutState
 .text.xTaskCheckForTimeOut
                0x00101e60       0x74 /home/wang/wmsdk_bundle-3.1.16/bin/wmsdk/libs/libfreertos.a(tasks.o)
                0x00101e60                xTaskCheckForTimeOut
 .text.vTaskMissedYield
                0x00101ed4        0xc /home/wang/wmsdk_bundle-3.1.16/bin/wmsdk/libs/libfreertos.a(tasks.o)
                0x00101ed4                vTaskMissedYield
 .text.xTaskGetCurrentTaskHandle
                0x00101ee0        0xc /home/wang/wmsdk_bundle-3.1.16/bin/wmsdk/libs/libfreertos.a(tasks.o)
                0x00101ee0                xTaskGetCurrentTaskHandle
 .text.xTaskGetSchedulerState
                0x00101eec       0x1c /home/wang/wmsdk_bundle-3.1.16/bin/wmsdk/libs/libfreertos.a(tasks.o)
                0x00101eec                xTaskGetSchedulerState
 .text.vTaskPriorityInherit
                0x00101f08       0x68 /home/wang/wmsdk_bundle-3.1.16/bin/wmsdk/libs/libfreertos.a(tasks.o)
                0x00101f08                vTaskPriorityInherit
 .text.vTaskPriorityDisinherit
                0x00101f70       0x48 /home/wang/wmsdk_bundle-3.1.16/bin/wmsdk/libs/libfreertos.a(tasks.o)
                0x00101f70                vTaskPriorityDisinherit
 .text.get_current_taskname
                0x00101fb8        0xc /home/wang/wmsdk_bundle-3.1.16/bin/wmsdk/libs/libfreertos.a(tasks.o)
                0x00101fb8                get_current_taskname
 .text.prvCheckForValidListAndQueue
                0x00101fc4       0x54 /home/wang/wmsdk_bundle-3.1.16/bin/wmsdk/libs/libfreertos.a(timers.o)
 .text.prvInsertTimerInActiveList
                0x00102018       0x44 /home/wang/wmsdk_bundle-3.1.16/bin/wmsdk/libs/libfreertos.a(timers.o)
 .text.xTimerCreateTimerTask
                0x0010205c       0x38 /home/wang/wmsdk_bundle-3.1.16/bin/wmsdk/libs/libfreertos.a(timers.o)
                0x0010205c                xTimerCreateTimerTask
 .text.xTimerGenericCommand
                0x00102094       0x50 /home/wang/wmsdk_bundle-3.1.16/bin/wmsdk/libs/libfreertos.a(timers.o)
                0x00102094                xTimerGenericCommand
 .text.prvSwitchTimerLists.isra.1
                0x001020e4       0x7c /home/wang/wmsdk_bundle-3.1.16/bin/wmsdk/libs/libfreertos.a(timers.o)
 .text.prvTimerTask
                0x00102160      0x158 /home/wang/wmsdk_bundle-3.1.16/bin/wmsdk/libs/libfreertos.a(timers.o)
 .text.pxPortInitialiseStack
                0x001022b8       0x20 /home/wang/wmsdk_bundle-3.1.16/bin/wmsdk/libs/libfreertos.a(port.o)
                0x001022b8                pxPortInitialiseStack
 .text.SVC_IRQHandler
                0x001022d8       0x20 /home/wang/wmsdk_bundle-3.1.16/bin/wmsdk/libs/libfreertos.a(port.o)
                0x001022d8                SVC_IRQHandler
 .text.vPortStartFirstTask
                0x001022f8       0x14 /home/wang/wmsdk_bundle-3.1.16/bin/wmsdk/libs/libfreertos.a(port.o)
                0x001022f8                vPortStartFirstTask
 .text.xPortStartScheduler
                0x0010230c       0x50 /home/wang/wmsdk_bundle-3.1.16/bin/wmsdk/libs/libfreertos.a(port.o)
                0x0010230c                xPortStartScheduler
 .text.vPortYieldFromISR
                0x0010235c       0x14 /home/wang/wmsdk_bundle-3.1.16/bin/wmsdk/libs/libfreertos.a(port.o)
                0x0010235c                vPortYieldFromISR
 .text.vPortEnterCritical
                0x00102370       0x18 /home/wang/wmsdk_bundle-3.1.16/bin/wmsdk/libs/libfreertos.a(port.o)
                0x00102370                vPortEnterCritical
 .text.vPortExitCritical
                0x00102388       0x18 /home/wang/wmsdk_bundle-3.1.16/bin/wmsdk/libs/libfreertos.a(port.o)
                0x00102388                vPortExitCritical
 .text.PendSV_IRQHandler
                0x001023a0       0x3c /home/wang/wmsdk_bundle-3.1.16/bin/wmsdk/libs/libfreertos.a(port.o)
                0x001023a0                PendSV_IRQHandler
 .text.SysTick_IRQHandler
                0x001023dc       0x24 /home/wang/wmsdk_bundle-3.1.16/bin/wmsdk/libs/libfreertos.a(port.o)
                0x001023dc                SysTick_IRQHandler
 .text.prvInsertBlockIntoFreeList
                0x00102400       0xa0 /home/wang/wmsdk_bundle-3.1.16/bin/wmsdk/libs/libfreertos.a(heap_4.o)
 .text.prvHeapInit
                0x001024a0       0x98 /home/wang/wmsdk_bundle-3.1.16/bin/wmsdk/libs/libfreertos.a(heap_4.o)
                0x001024a0                prvHeapInit
 .text.pvPortMalloc
                0x00102538       0xe8 /home/wang/wmsdk_bundle-3.1.16/bin/wmsdk/libs/libfreertos.a(heap_4.o)
                0x00102538                pvPortMalloc
 .text.vPortFree
                0x00102620       0x5c /home/wang/wmsdk_bundle-3.1.16/bin/wmsdk/libs/libfreertos.a(heap_4.o)
                0x00102620                vPortFree
 .text.vListInitialise
                0x0010267c       0x18 /home/wang/wmsdk_bundle-3.1.16/bin/wmsdk/libs/libfreertos.a(list.o)
                0x0010267c                vListInitialise
 .text.vListInitialiseItem
                0x00102694        0x8 /home/wang/wmsdk_bundle-3.1.16/bin/wmsdk/libs/libfreertos.a(list.o)
                0x00102694                vListInitialiseItem
 .text.vListInsertEnd
                0x0010269c       0x1c /home/wang/wmsdk_bundle-3.1.16/bin/wmsdk/libs/libfreertos.a(list.o)
                0x0010269c                vListInsertEnd
 .text.vListInsert
                0x001026b8       0x3c /home/wang/wmsdk_bundle-3.1.16/bin/wmsdk/libs/libfreertos.a(list.o)
                0x001026b8                vListInsert
 .text.vListRemove
                0x001026f4       0x28 /home/wang/wmsdk_bundle-3.1.16/bin/wmsdk/libs/libfreertos.a(list.o)
                0x001026f4                vListRemove
 .text.mdev_register
                0x0010271c       0x50 /home/wang/wmsdk_bundle-3.1.16/bin/wmsdk/libs/libmdev.a(mdev.o)
                0x0010271c                mdev_register
 .text.mdev_get_handle
                0x0010276c       0x28 /home/wang/wmsdk_bundle-3.1.16/bin/wmsdk/libs/libmdev.a(mdev.o)
                0x0010276c                mdev_get_handle
 .text.app_start
                0x00102794       0x34 /home/wang/wmsdk_bundle-3.1.16/bin/wmsdk/libs/libos.a(os.o)
                0x00102794                app_start
 .text.os_init  0x001027c8       0x34 /home/wang/wmsdk_bundle-3.1.16/bin/wmsdk/libs/libos.a(os.o)
                0x001027c8                os_init
 .text.vApplicationStackOverflowHook
                0x001027fc       0x10 /home/wang/wmsdk_bundle-3.1.16/bin/wmsdk/libs/libos.a(os.o)
                0x001027fc                vApplicationStackOverflowHook
 .text.vApplicationTickHook
                0x0010280c       0x18 /home/wang/wmsdk_bundle-3.1.16/bin/wmsdk/libs/libos.a(os.o)
                0x0010280c                vApplicationTickHook
 .text.vApplicationIdleHook
                0x00102824       0x18 /home/wang/wmsdk_bundle-3.1.16/bin/wmsdk/libs/libos.a(os.o)
                0x00102824                vApplicationIdleHook
 .text.os_mutex_put.constprop.6
                0x0010283c       0x48 /home/wang/wmsdk_bundle-3.1.16/bin/wmsdk/libs/libpwrmgr.a(pwrmgr.o)
 .text.os_mutex_get.constprop.7
                0x00102884       0x28 /home/wang/wmsdk_bundle-3.1.16/bin/wmsdk/libs/libpwrmgr.a(pwrmgr.o)
 .text.pm_register_cb
                0x001028ac       0x48 /home/wang/wmsdk_bundle-3.1.16/bin/wmsdk/libs/libpwrmgr.a(pwrmgr.o)
                0x001028ac                pm_register_cb
 .text.boot_init
                0x001028f4       0x38 /home/wang/wmsdk_bundle-3.1.16/bin/wmsdk/libs/libutil.a(boot_flags.o)
                0x001028f4                boot_init
 .text.critical_error
                0x0010292c       0x28 /home/wang/wmsdk_bundle-3.1.16/bin/wmsdk/libs/libutil.a(critical_error.o)
                0x0010292c                critical_error
 .text.os_mutex_put.constprop.1
                0x00102954       0x48 /home/wang/wmsdk_bundle-3.1.16/bin/wmsdk/libs/libwmstdio.a(wmstdio.o)
 .text.os_mutex_get.constprop.2
                0x0010299c       0x28 /home/wang/wmsdk_bundle-3.1.16/bin/wmsdk/libs/libwmstdio.a(wmstdio.o)
 .text.wmprintf
                0x001029c4       0x44 /home/wang/wmsdk_bundle-3.1.16/bin/wmsdk/libs/libwmstdio.a(wmstdio.o)
                0x001029c4                wmprintf
 .text.ll_printf
                0x00102a08       0x34 /home/wang/wmsdk_bundle-3.1.16/bin/wmsdk/libs/libwmstdio.a(wmstdio.o)
                0x00102a08                ll_printf
 .text.wmstdio_init
                0x00102a3c       0x3c /home/wang/wmsdk_bundle-3.1.16/bin/wmsdk/libs/libwmstdio.a(wmstdio.o)
                0x00102a3c                wmstdio_init
 .text.serial_console_printf
                0x00102a78       0x24 /home/wang/wmsdk_bundle-3.1.16/bin/wmsdk/libs/libwmstdio.a(console.o)
                0x00102a78                serial_console_printf
 .text.serial_console_putchar
                0x00102a9c       0x14 /home/wang/wmsdk_bundle-3.1.16/bin/wmsdk/libs/libwmstdio.a(console.o)
                0x00102a9c                serial_console_putchar
 .text.serial_console_flush
                0x00102ab0       0x14 /home/wang/wmsdk_bundle-3.1.16/bin/wmsdk/libs/libwmstdio.a(console.o)
                0x00102ab0                serial_console_flush
 .text.serial_console_getchar
                0x00102ac4       0x10 /home/wang/wmsdk_bundle-3.1.16/bin/wmsdk/libs/libwmstdio.a(console.o)
                0x00102ac4                serial_console_getchar
 .text.serial_console_init
                0x00102ad4       0x20 /home/wang/wmsdk_bundle-3.1.16/bin/wmsdk/libs/libwmstdio.a(console.o)
                0x00102ad4                serial_console_init
 .text.serial_console_get_portid
                0x00102af4       0x18 /home/wang/wmsdk_bundle-3.1.16/bin/wmsdk/libs/libwmstdio.a(console.o)
                0x00102af4                serial_console_get_portid
 .text.file_type_storage
                0x00102b0c       0x58 obj/main.o
                0x00102b0c                file_type_storage
 .text.struct_build
                0x00102b64       0x90 obj/main.o
                0x00102b64                struct_build
 .text.startup.main
                0x00102bf4       0x48 obj/main.o
                0x00102bf4                main
 .text.board_main_xtal
                0x00102c3c        0x8 obj/board.o
                0x00102c3c                board_main_xtal
 .text.board_cpu_freq
                0x00102c44        0x8 obj/board.o
                0x00102c44                board_cpu_freq
 .text.board_gpio_power_on
                0x00102c4c       0x16 obj/board.o
                0x00102c4c                board_gpio_power_on
 .text.board_uart_pin_config
                0x00102c62       0x3e obj/board.o
                0x00102c62                board_uart_pin_config
 .text.audio_write
                0x00102ca0       0x70 obj/audio_read_write.o
                0x00102ca0                audio_write
 .text.audio_read
                0x00102d10       0x5c obj/audio_read_write.o
                0x00102d10                audio_read
 .text.show_audio_file_info
                0x00102d6c      0x438 obj/audio_read_write.o
                0x00102d6c                show_audio_file_info
 .text.file_read
                0x001031a4       0xac obj/save_file_addr.o
                0x001031a4                file_read
 .text.read_struct
                0x00103250       0x1a obj/save_file_addr.o
                0x00103250                read_struct
 .text.write_struct
                0x0010326a       0x1a obj/save_file_addr.o
                0x0010326a                write_struct
 .text.init_struct_flash
                0x00103284       0x44 obj/save_file_addr.o
                0x00103284                init_struct_flash
 .text.memcmp   0x001032c8       0x1c /home/wang/wmsdk_bundle-3.1.16/bin/wmsdk/libs/libc.a(memcmp.o)
                0x001032c8                memcmp
 .text.snprintf
                0x001032e4       0x1a /home/wang/wmsdk_bundle-3.1.16/bin/wmsdk/libs/libc.a(snprintf.o)
                0x001032e4                snprintf
 *fill*         0x001032fe        0x2 
 .text.vsnprintf
                0x00103300      0x640 /home/wang/wmsdk_bundle-3.1.16/bin/wmsdk/libs/libc.a(vsnprintf.o)
                0x00103300                vsnprintf
 .text.strcmp   0x00103940       0x16 /home/wang/wmsdk_bundle-3.1.16/bin/wmsdk/libs/libc.a(strcmp.o)
                0x00103940                strcmp
 .text.strncpy  0x00103956       0x22 /home/wang/wmsdk_bundle-3.1.16/bin/wmsdk/libs/libc.a(strncpy.o)
                0x00103956                strncpy
 .text.strlen   0x00103978       0x10 /home/wang/wmsdk_bundle-3.1.16/bin/wmsdk/libs/libc.a(strlen.o)
                0x00103978                strlen
 .text.UART_Calculate_Dividers
                0x00103988       0x54 /home/wang/wmsdk_bundle-3.1.16/bin/wmsdk/libs/libdrv.a(mw300_uart.o)
 .text.UART_IntHandler
                0x001039dc       0x78 /home/wang/wmsdk_bundle-3.1.16/bin/wmsdk/libs/libdrv.a(mw300_uart.o)
                0x001039dc                UART_IntHandler
 .text.UART_Init
                0x00103a54      0x1e8 /home/wang/wmsdk_bundle-3.1.16/bin/wmsdk/libs/libdrv.a(mw300_uart.o)
                0x00103a54                UART_Init
 .text.UART_WriteLine
                0x00103c3c       0x20 /home/wang/wmsdk_bundle-3.1.16/bin/wmsdk/libs/libdrv.a(mw300_uart.o)
                0x00103c3c                UART_WriteLine
 .text.UART_FifoConfig
                0x00103c5c       0x84 /home/wang/wmsdk_bundle-3.1.16/bin/wmsdk/libs/libdrv.a(mw300_uart.o)
                0x00103c5c                UART_FifoConfig
 .text.UART_Enable
                0x00103ce0       0x14 /home/wang/wmsdk_bundle-3.1.16/bin/wmsdk/libs/libdrv.a(mw300_uart.o)
                0x00103ce0                UART_Enable
 .text.UART_Disable
                0x00103cf4       0x14 /home/wang/wmsdk_bundle-3.1.16/bin/wmsdk/libs/libdrv.a(mw300_uart.o)
                0x00103cf4                UART_Disable
 .text.UART_ReceiveData
                0x00103d08       0x10 /home/wang/wmsdk_bundle-3.1.16/bin/wmsdk/libs/libdrv.a(mw300_uart.o)
                0x00103d08                UART_ReceiveData
 .text.UART_SendData
                0x00103d18       0x10 /home/wang/wmsdk_bundle-3.1.16/bin/wmsdk/libs/libdrv.a(mw300_uart.o)
                0x00103d18                UART_SendData
 .text.UART_Receive9bits
                0x00103d28       0x3c /home/wang/wmsdk_bundle-3.1.16/bin/wmsdk/libs/libdrv.a(mw300_uart.o)
                0x00103d28                UART_Receive9bits
 .text.UART_Send9bits
                0x00103d64       0x44 /home/wang/wmsdk_bundle-3.1.16/bin/wmsdk/libs/libdrv.a(mw300_uart.o)
                0x00103d64                UART_Send9bits
 .text.UART_SetStopBits
                0x00103da8       0x14 /home/wang/wmsdk_bundle-3.1.16/bin/wmsdk/libs/libdrv.a(mw300_uart.o)
                0x00103da8                UART_SetStopBits
 .text.UART_GetLineStatus
                0x00103dbc       0x60 /home/wang/wmsdk_bundle-3.1.16/bin/wmsdk/libs/libdrv.a(mw300_uart.o)
                0x00103dbc                UART_GetLineStatus
 .text.UART_IntMask
                0x00103e1c       0xec /home/wang/wmsdk_bundle-3.1.16/bin/wmsdk/libs/libdrv.a(mw300_uart.o)
                0x00103e1c                UART_IntMask
 .text.UART0_IRQHandler
                0x00103f08        0x8 /home/wang/wmsdk_bundle-3.1.16/bin/wmsdk/libs/libdrv.a(mw300_uart.o)
                0x00103f08                UART0_IRQHandler
 .text.UART1_IRQHandler
                0x00103f10        0x8 /home/wang/wmsdk_bundle-3.1.16/bin/wmsdk/libs/libdrv.a(mw300_uart.o)
                0x00103f10                UART1_IRQHandler
 .text.UART2_IRQHandler
                0x00103f18        0x8 /home/wang/wmsdk_bundle-3.1.16/bin/wmsdk/libs/libdrv.a(mw300_uart.o)
                0x00103f18                UART2_IRQHandler
 .text.UART_DmaCmd
                0x00103f20       0x14 /home/wang/wmsdk_bundle-3.1.16/bin/wmsdk/libs/libdrv.a(mw300_uart.o)
                0x00103f20                UART_DmaCmd
 .text.uart_ps_cb
                0x00103f34       0xb8 /home/wang/wmsdk_bundle-3.1.16/bin/wmsdk/libs/libdrv.a(mdev_uart.o)
                0x00103f34                uart_ps_cb
 .text.os_mutex_put
                0x00103fec       0x42 /home/wang/wmsdk_bundle-3.1.16/bin/wmsdk/libs/libdrv.a(mdev_uart.o)
 .text.os_semaphore_create
                0x0010402e       0x28 /home/wang/wmsdk_bundle-3.1.16/bin/wmsdk/libs/libdrv.a(mdev_uart.o)
 .text.get_free_rx_buf_size.isra.3
                0x00104056       0x14 /home/wang/wmsdk_bundle-3.1.16/bin/wmsdk/libs/libdrv.a(mdev_uart.o)
 .text.os_semaphore_get.constprop.8
                0x0010406a       0x24 /home/wang/wmsdk_bundle-3.1.16/bin/wmsdk/libs/libdrv.a(mdev_uart.o)
 *fill*         0x0010408e        0x2 
 .text.uart_dma_rd_cb
                0x00104090       0x84 /home/wang/wmsdk_bundle-3.1.16/bin/wmsdk/libs/libdrv.a(mdev_uart.o)
 .text.uart2dma_rd_cb
                0x00104114        0x6 /home/wang/wmsdk_bundle-3.1.16/bin/wmsdk/libs/libdrv.a(mdev_uart.o)
 .text.uart1dma_rd_cb
                0x0010411a        0x6 /home/wang/wmsdk_bundle-3.1.16/bin/wmsdk/libs/libdrv.a(mdev_uart.o)
 .text.uart0dma_rd_cb
                0x00104120        0x6 /home/wang/wmsdk_bundle-3.1.16/bin/wmsdk/libs/libdrv.a(mdev_uart.o)
 *fill*         0x00104126        0x2 
 .text.uart_drv_open
                0x00104128      0x368 /home/wang/wmsdk_bundle-3.1.16/bin/wmsdk/libs/libdrv.a(mdev_uart.o)
                0x00104128                uart_drv_open
 .text.uart_drv_tx_flush
                0x00104490       0x18 /home/wang/wmsdk_bundle-3.1.16/bin/wmsdk/libs/libdrv.a(mdev_uart.o)
                0x00104490                uart_drv_tx_flush
 .text.uart_drv_get_portid
                0x001044a8        0x4 /home/wang/wmsdk_bundle-3.1.16/bin/wmsdk/libs/libdrv.a(mdev_uart.o)
                0x001044a8                uart_drv_get_portid
 .text.uart_drv_write
                0x001044ac      0x180 /home/wang/wmsdk_bundle-3.1.16/bin/wmsdk/libs/libdrv.a(mdev_uart.o)
                0x001044ac                uart_drv_write
 .text.read_rx_buf
                0x0010462c       0x46 /home/wang/wmsdk_bundle-3.1.16/bin/wmsdk/libs/libdrv.a(mdev_uart.o)
 *fill*         0x00104672        0x2 
 .text.uart_drv_read
                0x00104674       0x78 /home/wang/wmsdk_bundle-3.1.16/bin/wmsdk/libs/libdrv.a(mdev_uart.o)
                0x00104674                uart_drv_read
 .text.write_rx_buf
                0x001046ec       0x44 /home/wang/wmsdk_bundle-3.1.16/bin/wmsdk/libs/libdrv.a(mdev_uart.o)
 .text.uart_9bit_cb
                0x00104730       0x40 /home/wang/wmsdk_bundle-3.1.16/bin/wmsdk/libs/libdrv.a(mdev_uart.o)
 .text.uart2_9bit_cb
                0x00104770        0x6 /home/wang/wmsdk_bundle-3.1.16/bin/wmsdk/libs/libdrv.a(mdev_uart.o)
 .text.uart1_9bit_cb
                0x00104776        0x6 /home/wang/wmsdk_bundle-3.1.16/bin/wmsdk/libs/libdrv.a(mdev_uart.o)
 .text.uart0_9bit_cb
                0x0010477c        0x6 /home/wang/wmsdk_bundle-3.1.16/bin/wmsdk/libs/libdrv.a(mdev_uart.o)
 *fill*         0x00104782        0x2 
 .text.uart_8bit_cb
                0x00104784       0x70 /home/wang/wmsdk_bundle-3.1.16/bin/wmsdk/libs/libdrv.a(mdev_uart.o)
 .text.uart2_8bit_cb
                0x001047f4        0x6 /home/wang/wmsdk_bundle-3.1.16/bin/wmsdk/libs/libdrv.a(mdev_uart.o)
 .text.uart1_8bit_cb
                0x001047fa        0x6 /home/wang/wmsdk_bundle-3.1.16/bin/wmsdk/libs/libdrv.a(mdev_uart.o)
 .text.uart0_8bit_cb
                0x00104800        0x6 /home/wang/wmsdk_bundle-3.1.16/bin/wmsdk/libs/libdrv.a(mdev_uart.o)
 *fill*         0x00104806        0x2 
 .text.uart_drv_init
                0x00104808      0x10c /home/wang/wmsdk_bundle-3.1.16/bin/wmsdk/libs/libdrv.a(mdev_uart.o)
                0x00104808                uart_drv_init
 .text.os_semaphore_get
                0x00104914       0x22 /home/wang/wmsdk_bundle-3.1.16/bin/wmsdk/libs/libdrv.a(mdev_dma.o)
 .text.os_mutex_put
                0x00104936       0x42 /home/wang/wmsdk_bundle-3.1.16/bin/wmsdk/libs/libdrv.a(mdev_dma.o)
 .text.os_semaphore_put
                0x00104978       0x42 /home/wang/wmsdk_bundle-3.1.16/bin/wmsdk/libs/libdrv.a(mdev_dma.o)
 .text.os_mutex_get.constprop.4
                0x001049ba       0x24 /home/wang/wmsdk_bundle-3.1.16/bin/wmsdk/libs/libdrv.a(mdev_dma.o)
 *fill*         0x001049de        0x2 
 .text.dma_drv_init
                0x001049e0       0x5c /home/wang/wmsdk_bundle-3.1.16/bin/wmsdk/libs/libdrv.a(mdev_dma.o)
                0x001049e0                dma_drv_init
 .text.dma_drv_open
                0x00104a3c       0xac /home/wang/wmsdk_bundle-3.1.16/bin/wmsdk/libs/libdrv.a(mdev_dma.o)
                0x00104a3c                dma_drv_open
 .text.dma_drv_transfer
                0x00104ae8       0x44 /home/wang/wmsdk_bundle-3.1.16/bin/wmsdk/libs/libdrv.a(mdev_dma.o)
                0x00104ae8                dma_drv_transfer
 .text.dma_drv_wait_for_transfer_complete
                0x00104b2c       0x38 /home/wang/wmsdk_bundle-3.1.16/bin/wmsdk/libs/libdrv.a(mdev_dma.o)
                0x00104b2c                dma_drv_wait_for_transfer_complete
 .text.dma_drv_close
                0x00104b64       0x64 /home/wang/wmsdk_bundle-3.1.16/bin/wmsdk/libs/libdrv.a(mdev_dma.o)
                0x00104b64                dma_drv_close
 .text.DMA_IRQHandler
                0x00104bc8       0x90 /home/wang/wmsdk_bundle-3.1.16/bin/wmsdk/libs/libdrv.a(mdev_dma.o)
                0x00104bc8                DMA_IRQHandler
 .text.DMA_ChannelInit
                0x00104c58       0x6a /home/wang/wmsdk_bundle-3.1.16/bin/wmsdk/libs/libdrv.a(mw300_dma.o)
                0x00104c58                DMA_ChannelInit
 .text.DMA_Enable
                0x00104cc2       0x16 /home/wang/wmsdk_bundle-3.1.16/bin/wmsdk/libs/libdrv.a(mw300_dma.o)
                0x00104cc2                DMA_Enable
 .text.DMA_Disable
                0x00104cd8       0x16 /home/wang/wmsdk_bundle-3.1.16/bin/wmsdk/libs/libdrv.a(mw300_dma.o)
                0x00104cd8                DMA_Disable
 .text.DMA_SetPeripheralType
                0x00104cee       0x16 /home/wang/wmsdk_bundle-3.1.16/bin/wmsdk/libs/libdrv.a(mw300_dma.o)
                0x00104cee                DMA_SetPeripheralType
 .text.DMA_IntMask
                0x00104d04       0x9a /home/wang/wmsdk_bundle-3.1.16/bin/wmsdk/libs/libdrv.a(mw300_dma.o)
                0x00104d04                DMA_IntMask
 .text.DMA_IntClr
                0x00104d9e       0x40 /home/wang/wmsdk_bundle-3.1.16/bin/wmsdk/libs/libdrv.a(mw300_dma.o)
                0x00104d9e                DMA_IntClr
 .text.flash_drv_erase
                0x00104dde       0x10 /home/wang/wmsdk_bundle-3.1.16/bin/wmsdk/libs/libutil.a(flash.o)
                0x00104dde                flash_drv_erase
 .text.flash_drv_read
                0x00104dee       0x16 /home/wang/wmsdk_bundle-3.1.16/bin/wmsdk/libs/libutil.a(flash.o)
                0x00104dee                flash_drv_read
 .text.flash_drv_write
                0x00104e04       0x16 /home/wang/wmsdk_bundle-3.1.16/bin/wmsdk/libs/libutil.a(flash.o)
                0x00104e04                flash_drv_write
 .text.flash_drv_close
                0x00104e1a       0x10 /home/wang/wmsdk_bundle-3.1.16/bin/wmsdk/libs/libutil.a(flash.o)
                0x00104e1a                flash_drv_close
 *fill*         0x00104e2a        0x2 
 .text.flash_drv_open
                0x00104e2c       0x14 /home/wang/wmsdk_bundle-3.1.16/bin/wmsdk/libs/libutil.a(flash.o)
                0x00104e2c                flash_drv_open
 .text.flash_drv_init
                0x00104e40        0x4 /home/wang/wmsdk_bundle-3.1.16/bin/wmsdk/libs/libutil.a(flash.o)
                0x00104e40                flash_drv_init
 .text.os_mutex_put.constprop.1
                0x00104e44       0x48 /home/wang/wmsdk_bundle-3.1.16/bin/wmsdk/libs/libdrv.a(mdev_iflash.o)
 .text.os_mutex_get.constprop.2
                0x00104e8c       0x28 /home/wang/wmsdk_bundle-3.1.16/bin/wmsdk/libs/libdrv.a(mdev_iflash.o)
 .text.iflash_drv_open
                0x00104eb4        0x4 /home/wang/wmsdk_bundle-3.1.16/bin/wmsdk/libs/libdrv.a(mdev_iflash.o)
                0x00104eb4                iflash_drv_open
 .text.iflash_drv_close
                0x00104eb8        0x4 /home/wang/wmsdk_bundle-3.1.16/bin/wmsdk/libs/libdrv.a(mdev_iflash.o)
                0x00104eb8                iflash_drv_close
 .text.iflash_drv_erase
                0x00104ebc       0x40 /home/wang/wmsdk_bundle-3.1.16/bin/wmsdk/libs/libdrv.a(mdev_iflash.o)
                0x00104ebc                iflash_drv_erase
 .text.iflash_drv_read
                0x00104efc       0x7c /home/wang/wmsdk_bundle-3.1.16/bin/wmsdk/libs/libdrv.a(mdev_iflash.o)
                0x00104efc                iflash_drv_read
 .text.iflash_drv_write
                0x00104f78       0x58 /home/wang/wmsdk_bundle-3.1.16/bin/wmsdk/libs/libdrv.a(mdev_iflash.o)
                0x00104f78                iflash_drv_write
 .text.iflash_drv_init
                0x00104fd0       0xe4 /home/wang/wmsdk_bundle-3.1.16/bin/wmsdk/libs/libdrv.a(mdev_iflash.o)
                0x00104fd0                iflash_drv_init
 .text.FLASH_SetWriteEnableBit
                0x001050b4       0x34 /home/wang/wmsdk_bundle-3.1.16/bin/wmsdk/libs/libdrv.a(mw300_flash.o)
                0x001050b4                FLASH_SetWriteEnableBit
 .text.FLASH_WriteEnableVSR
                0x001050e8       0x2c /home/wang/wmsdk_bundle-3.1.16/bin/wmsdk/libs/libdrv.a(mw300_flash.o)
                0x001050e8                FLASH_WriteEnableVSR
 .text.FLASH_ResetFastReadQuad
                0x00105114       0x4c /home/wang/wmsdk_bundle-3.1.16/bin/wmsdk/libs/libdrv.a(mw300_flash.o)
                0x00105114                FLASH_ResetFastReadQuad
 .text.FLASH_GetStatus
                0x00105160       0x58 /home/wang/wmsdk_bundle-3.1.16/bin/wmsdk/libs/libdrv.a(mw300_flash.o)
                0x00105160                FLASH_GetStatus
 .text.FLASH_GetBusyStatus
                0x001051b8       0x4c /home/wang/wmsdk_bundle-3.1.16/bin/wmsdk/libs/libdrv.a(mw300_flash.o)
                0x001051b8                FLASH_GetBusyStatus
 .text.FLASH_WriteStatus
                0x00105204       0x60 /home/wang/wmsdk_bundle-3.1.16/bin/wmsdk/libs/libdrv.a(mw300_flash.o)
                0x00105204                FLASH_WriteStatus
 .text.FLASH_EraseAll
                0x00105264       0x40 /home/wang/wmsdk_bundle-3.1.16/bin/wmsdk/libs/libdrv.a(mw300_flash.o)
                0x00105264                FLASH_EraseAll
 .text.FLASH_SectorErase
                0x001052a4       0x78 /home/wang/wmsdk_bundle-3.1.16/bin/wmsdk/libs/libdrv.a(mw300_flash.o)
                0x001052a4                FLASH_SectorErase
 .text.FLASH_Block32KErase
                0x0010531c       0x6c /home/wang/wmsdk_bundle-3.1.16/bin/wmsdk/libs/libdrv.a(mw300_flash.o)
                0x0010531c                FLASH_Block32KErase
 .text.FLASH_Block64KErase
                0x00105388       0x6c /home/wang/wmsdk_bundle-3.1.16/bin/wmsdk/libs/libdrv.a(mw300_flash.o)
                0x00105388                FLASH_Block64KErase
 .text.FLASH_Erase
                0x001053f4       0x80 /home/wang/wmsdk_bundle-3.1.16/bin/wmsdk/libs/libdrv.a(mw300_flash.o)
                0x001053f4                FLASH_Erase
 .text.FLASH_Read
                0x00105474      0x158 /home/wang/wmsdk_bundle-3.1.16/bin/wmsdk/libs/libdrv.a(mw300_flash.o)
                0x00105474                FLASH_Read
 .text.FLASH_PageWrite
                0x001055cc       0xd4 /home/wang/wmsdk_bundle-3.1.16/bin/wmsdk/libs/libdrv.a(mw300_flash.o)
                0x001055cc                FLASH_PageWrite
 .text.FLASH_Write
                0x001056a0       0x84 /home/wang/wmsdk_bundle-3.1.16/bin/wmsdk/libs/libdrv.a(mw300_flash.o)
                0x001056a0                FLASH_Write
 .text.FLASH_GetUniqueID
                0x00105724       0xe4 /home/wang/wmsdk_bundle-3.1.16/bin/wmsdk/libs/libdrv.a(mw300_flash.o)
                0x00105724                FLASH_GetUniqueID
 .text.FLASH_GetJEDECID
                0x00105808       0x60 /home/wang/wmsdk_bundle-3.1.16/bin/wmsdk/libs/libdrv.a(mw300_flash.o)
                0x00105808                FLASH_GetJEDECID
 .text.FLASH_SetConfig
                0x00105868       0x54 /home/wang/wmsdk_bundle-3.1.16/bin/wmsdk/libs/libdrv.a(mw300_flash.o)
                0x00105868                FLASH_SetConfig
 .text.FLASH_GetConfig
                0x001058bc        0xc /home/wang/wmsdk_bundle-3.1.16/bin/wmsdk/libs/libdrv.a(mw300_flash.o)
                0x001058bc                FLASH_GetConfig
 .text.QSPI_IRQHandler
                0x001058c8      0x164 /home/wang/wmsdk_bundle-3.1.16/bin/wmsdk/libs/libdrv.a(mw300_qspi.o)
                0x001058c8                QSPI_IRQHandler
 .text.QSPI_FlushFIFO
                0x00105a2c       0x38 /home/wang/wmsdk_bundle-3.1.16/bin/wmsdk/libs/libdrv.a(mw300_qspi.o)
                0x00105a2c                QSPI_FlushFIFO
 .text.QSPI_SetHdrcnt
                0x00105a64       0x2c /home/wang/wmsdk_bundle-3.1.16/bin/wmsdk/libs/libdrv.a(mw300_qspi.o)
                0x00105a64                QSPI_SetHdrcnt
 .text.QSPI_SetAddrCnt
                0x00105a90       0x10 /home/wang/wmsdk_bundle-3.1.16/bin/wmsdk/libs/libdrv.a(mw300_qspi.o)
                0x00105a90                QSPI_SetAddrCnt
 .text.QSPI_SetRModeCnt
                0x00105aa0       0x10 /home/wang/wmsdk_bundle-3.1.16/bin/wmsdk/libs/libdrv.a(mw300_qspi.o)
                0x00105aa0                QSPI_SetRModeCnt
 .text.QSPI_SetDummyCnt
                0x00105ab0       0x10 /home/wang/wmsdk_bundle-3.1.16/bin/wmsdk/libs/libdrv.a(mw300_qspi.o)
                0x00105ab0                QSPI_SetDummyCnt
 .text.QSPI_SetInstr
                0x00105ac0        0xc /home/wang/wmsdk_bundle-3.1.16/bin/wmsdk/libs/libdrv.a(mw300_qspi.o)
                0x00105ac0                QSPI_SetInstr
 .text.QSPI_SetAddr
                0x00105acc        0xc /home/wang/wmsdk_bundle-3.1.16/bin/wmsdk/libs/libdrv.a(mw300_qspi.o)
                0x00105acc                QSPI_SetAddr
 .text.QSPI_SetRMode
                0x00105ad8        0xc /home/wang/wmsdk_bundle-3.1.16/bin/wmsdk/libs/libdrv.a(mw300_qspi.o)
                0x00105ad8                QSPI_SetRMode
 .text.QSPI_SetDInCnt
                0x00105ae4       0x10 /home/wang/wmsdk_bundle-3.1.16/bin/wmsdk/libs/libdrv.a(mw300_qspi.o)
                0x00105ae4                QSPI_SetDInCnt
 .text.QSPI_SetSSEnable
                0x00105af4       0x18 /home/wang/wmsdk_bundle-3.1.16/bin/wmsdk/libs/libdrv.a(mw300_qspi.o)
                0x00105af4                QSPI_SetSSEnable
 .text.QSPI_StartTransfer
                0x00105b0c       0x24 /home/wang/wmsdk_bundle-3.1.16/bin/wmsdk/libs/libdrv.a(mw300_qspi.o)
                0x00105b0c                QSPI_StartTransfer
 .text.QSPI_StopTransfer
                0x00105b30       0x2c /home/wang/wmsdk_bundle-3.1.16/bin/wmsdk/libs/libdrv.a(mw300_qspi.o)
                0x00105b30                QSPI_StopTransfer
 .text.QSPI_WriteByte
                0x00105b5c       0x10 /home/wang/wmsdk_bundle-3.1.16/bin/wmsdk/libs/libdrv.a(mw300_qspi.o)
                0x00105b5c                QSPI_WriteByte
 .text.QSPI_ReadByte
                0x00105b6c       0x14 /home/wang/wmsdk_bundle-3.1.16/bin/wmsdk/libs/libdrv.a(mw300_qspi.o)
                0x00105b6c                QSPI_ReadByte
 .text          0x00105b80      0x370 /home/wang/work/gcc-arm-none-eabi-4_8-2014q2/bin/../lib/gcc/arm-none-eabi/4.8.4/armv7e-m/libgcc.a(_arm_addsubdf3.o)
                0x00105b80                __aeabi_drsub
                0x00105b88                __aeabi_dsub
                0x00105b88                __subdf3
                0x00105b8c                __adddf3
                0x00105b8c                __aeabi_dadd
                0x00105e04                __aeabi_ui2d
                0x00105e04                __floatunsidf
                0x00105e24                __floatsidf
                0x00105e24                __aeabi_i2d
                0x00105e48                __extendsfdf2
                0x00105e48                __aeabi_f2d
                0x00105e84                __aeabi_ul2d
                0x00105e84                __floatundidf
                0x00105e94                __floatdidf
                0x00105e94                __aeabi_l2d
 .text          0x00105ef0      0x424 /home/wang/work/gcc-arm-none-eabi-4_8-2014q2/bin/../lib/gcc/arm-none-eabi/4.8.4/armv7e-m/libgcc.a(_arm_muldivdf3.o)
                0x00105ef0                __aeabi_dmul
                0x00105ef0                __muldf3
                0x00106144                __aeabi_ddiv
                0x00106144                __divdf3
 .text          0x00106314       0x50 /home/wang/work/gcc-arm-none-eabi-4_8-2014q2/bin/../lib/gcc/arm-none-eabi/4.8.4/armv7e-m/libgcc.a(_arm_fixdfsi.o)
                0x00106314                __fixdfsi
                0x00106314                __aeabi_d2iz
 .text          0x00106364       0x2c /home/wang/work/gcc-arm-none-eabi-4_8-2014q2/bin/../lib/gcc/arm-none-eabi/4.8.4/armv7e-m/libgcc.a(_aeabi_uldivmod.o)
                0x00106364                __aeabi_uldivmod
 .text          0x00106390       0x60 /home/wang/work/gcc-arm-none-eabi-4_8-2014q2/bin/../lib/gcc/arm-none-eabi/4.8.4/armv7e-m/libgcc.a(bpabi.o)
                0x00106390                __gnu_ldivmod_helper
                0x001063c0                __gnu_uldivmod_helper
 .text          0x001063f0        0x4 /home/wang/work/gcc-arm-none-eabi-4_8-2014q2/bin/../lib/gcc/arm-none-eabi/4.8.4/armv7e-m/libgcc.a(_dvmd_tls.o)
                0x001063f0                __aeabi_ldiv0
                0x001063f0                __aeabi_idiv0
 .text          0x001063f4      0x298 /home/wang/work/gcc-arm-none-eabi-4_8-2014q2/bin/../lib/gcc/arm-none-eabi/4.8.4/armv7e-m/libgcc.a(_divdi3.o)
                0x001063f4                __divdi3
 .text          0x0010668c      0x284 /home/wang/work/gcc-arm-none-eabi-4_8-2014q2/bin/../lib/gcc/arm-none-eabi/4.8.4/armv7e-m/libgcc.a(_udivdi3.o)
                0x0010668c                __udivdi3
 .text          0x00106910      0x134 /home/wang/work/gcc-arm-none-eabi-4_8-2014q2/bin/../lib/gcc/arm-none-eabi/4.8.4/../../../../arm-none-eabi/lib/armv7e-m/libg.a(lib_a-memcpy.o)
                0x00106910                memcpy
 .text.memset   0x00106a44       0x94 /home/wang/work/gcc-arm-none-eabi-4_8-2014q2/bin/../lib/gcc/arm-none-eabi/4.8.4/../../../../arm-none-eabi/lib/armv7e-m/libg.a(lib_a-memset.o)
                0x00106a44                memset
 *(.ram .ram.*)
 .ram           0x00106ad8      0x268 /home/wang/wmsdk_bundle-3.1.16/bin/wmsdk/libs/libdrv.a(mdev_iflash.o)
                0x00106ad8                iflash_flashc_to_qspi_read_jedecid
                0x00106b30                iflash_flashc_to_qspi_read_uniqid
                0x00106b88                iflash_flashc_to_qspi_read
                0x00106c14                iflash_flashc_to_qspi_write
                0x00106c8c                iflash_flashc_to_qspi_erase
                0x00106ce8                iflash_flashc_to_qspi_eraseall
 *(.rodata .rodata.* .gnu.linkonce.r.*)
 .rodata.str1.1
                0x00106d40      0x288 /home/wang/wmsdk_bundle-3.1.16/bin/wmsdk/libs/libdrv.a(mdev_startup.o)
                                0x2b2 (size before relaxing)
 .rodata.gptAddr
                0x00106fc8       0x10 /home/wang/wmsdk_bundle-3.1.16/bin/wmsdk/libs/libdrv.a(mw300_gpt.o)
 .rodata.ucExpectedStackBytes.5962
                0x00106fd8       0x14 /home/wang/wmsdk_bundle-3.1.16/bin/wmsdk/libs/libfreertos.a(tasks.o)
 .rodata.str1.4
                0x00106fec       0x3a /home/wang/wmsdk_bundle-3.1.16/bin/wmsdk/libs/libfreertos.a(tasks.o)
                                 0x3c (size before relaxing)
 *fill*         0x00107026        0x2 
 .rodata.str1.4
                0x00107028        0x8 /home/wang/wmsdk_bundle-3.1.16/bin/wmsdk/libs/libfreertos.a(timers.o)
 .rodata.str1.1
                0x00107030      0x188 /home/wang/wmsdk_bundle-3.1.16/bin/wmsdk/libs/libos.a(os.o)
                                0x18b (size before relaxing)
 .rodata.str1.1
                0x001071b8       0xb6 /home/wang/wmsdk_bundle-3.1.16/bin/wmsdk/libs/libutil.a(critical_error.o)
 .rodata.str1.1
                0x0010726e       0x7e obj/main.o
                                 0x81 (size before relaxing)
 .rodata.str1.1
                0x001072ec      0xb10 obj/audio_read_write.o
 .rodata.str1.1
                0x00107dfc       0x9f obj/save_file_addr.o
                                 0xfc (size before relaxing)
 .rodata.lcdigits.3829
                0x00107e9b       0x11 /home/wang/wmsdk_bundle-3.1.16/bin/wmsdk/libs/libc.a(vsnprintf.o)
 .rodata.str1.1
                0x00107eac        0x7 /home/wang/wmsdk_bundle-3.1.16/bin/wmsdk/libs/libc.a(vsnprintf.o)
 .rodata.ucdigits.3830
                0x00107eb3       0x11 /home/wang/wmsdk_bundle-3.1.16/bin/wmsdk/libs/libc.a(vsnprintf.o)
 .rodata.uartAddr
                0x00107ec4        0xc /home/wang/wmsdk_bundle-3.1.16/bin/wmsdk/libs/libdrv.a(mw300_uart.o)
 .rodata.mdev_uart_name
                0x00107ed0        0xc /home/wang/wmsdk_bundle-3.1.16/bin/wmsdk/libs/libdrv.a(mdev_uart.o)
 .rodata.str1.1
                0x00107edc      0x36d /home/wang/wmsdk_bundle-3.1.16/bin/wmsdk/libs/libdrv.a(mdev_uart.o)
 .rodata.__func__.13723
                0x00108249       0x13 /home/wang/wmsdk_bundle-3.1.16/bin/wmsdk/libs/libdrv.a(mdev_uart.o)
 .rodata.str1.1
                0x0010825c       0x39 /home/wang/wmsdk_bundle-3.1.16/bin/wmsdk/libs/libdrv.a(mdev_dma.o)
                                 0x42 (size before relaxing)
 .rodata.str1.1
                0x00108295        0x7 /home/wang/wmsdk_bundle-3.1.16/bin/wmsdk/libs/libutil.a(flash.o)
 .rodata.str1.1
                0x0010829c       0x46 /home/wang/wmsdk_bundle-3.1.16/bin/wmsdk/libs/libdrv.a(mdev_iflash.o)
                                 0x56 (size before relaxing)
 *fill*         0x001082e2        0x2 
 .rodata.fl_dev_list
                0x001082e4       0xb4 /home/wang/wmsdk_bundle-3.1.16/bin/wmsdk/libs/libdrv.a(mw300_flash.o)
                0x001082e4                fl_dev_list
                0x00108398                . = ALIGN (0x4)
                0x00108398                _etext = .

.glue_7         0x00108398        0x0
 .glue_7        0x00000000        0x0 linker stubs

.glue_7t        0x00108398        0x0
 .glue_7t       0x00000000        0x0 linker stubs

.vfp11_veneer   0x00108398        0x0
 .vfp11_veneer  0x00000000        0x0 linker stubs

.v4_bx          0x00108398        0x0
 .v4_bx         0x00000000        0x0 linker stubs

.iplt           0x00108398        0x0
 .iplt          0x00000000        0x0 /home/wang/wmsdk_bundle-3.1.16/bin/wmsdk/libs/libdrv.a(mdev_startup.o)

.rel.dyn        0x00108398        0x0
 .rel.iplt      0x00000000        0x0 /home/wang/wmsdk_bundle-3.1.16/bin/wmsdk/libs/libdrv.a(mdev_startup.o)
                0x00108398                . = ALIGN (0x4)
                0x00108398                _heap_start = .
                0x0015f000                . = _e_sram0
                0x0015f000                _heap_end = .
                0x00056c68                _actual_heap_size = (_heap_end - _heap_start)
                0x00000001                ASSERT ((_actual_heap_size >= _heap_size), Text overflow in heap area.)

.rom_data       0x20000000       0x40
                0x20000000                _rom_data_start = .
                0x20000040                . = (. + _rom_data)
 *fill*         0x20000000       0x40 
                0x00000001                ASSERT ((_rom_data_start == ORIGIN (SRAM1)), Invalid start address of .rom_data)

.data           0x20000040      0x114
                0x20000040                _data = .
 *(.data)
 *(.data.*)
 .data.intCbfArra
                0x20000040       0xf0 /home/wang/wmsdk_bundle-3.1.16/bin/wmsdk/libs/libdrv.a(mw300_driver.o)
                0x20000040                intCbfArra
 .data.uxPreviousTask
                0x20000130        0x4 /home/wang/wmsdk_bundle-3.1.16/bin/wmsdk/libs/libfreertos.a(tasks.o)
 .data.xNextTaskUnblockTime
                0x20000134        0x4 /home/wang/wmsdk_bundle-3.1.16/bin/wmsdk/libs/libfreertos.a(tasks.o)
 .data.uxCriticalNesting
                0x20000138        0x4 /home/wang/wmsdk_bundle-3.1.16/bin/wmsdk/libs/libfreertos.a(port.o)
 .data.c_stdio_funcs
                0x2000013c        0x4 /home/wang/wmsdk_bundle-3.1.16/bin/wmsdk/libs/libwmstdio.a(wmstdio.o)
                0x2000013c                c_stdio_funcs
 .data.serial_console_funcs
                0x20000140       0x10 /home/wang/wmsdk_bundle-3.1.16/bin/wmsdk/libs/libwmstdio.a(console.o)
                0x20000140                serial_console_funcs
 .data.g_fl_cfg
                0x20000150        0x4 /home/wang/wmsdk_bundle-3.1.16/bin/wmsdk/libs/libdrv.a(mw300_flash.o)
                0x20000154                _edata = .

.igot.plt       0x20000154        0x0
 .igot.plt      0x00000000        0x0 /home/wang/wmsdk_bundle-3.1.16/bin/wmsdk/libs/libdrv.a(mdev_startup.o)

.bss            0x20000158      0xba8
                0x20000158                _bss = .
 *(.bss)
 *(.bss.*)
 .bss.stptr     0x20000158        0x4 /home/wang/wmsdk_bundle-3.1.16/bin/wmsdk/libs/libdrv.a(mdev_startup.o)
 .bss.dmaCh24IntCb
                0x2000015c       0x10 /home/wang/wmsdk_bundle-3.1.16/bin/wmsdk/libs/libdrv.a(mw300_driver.o)
                0x2000015c                dmaCh24IntCb
 .bss.dmaCh9IntCb
                0x2000016c       0x10 /home/wang/wmsdk_bundle-3.1.16/bin/wmsdk/libs/libdrv.a(mw300_driver.o)
                0x2000016c                dmaCh9IntCb
 .bss.rtcIntCb  0x2000017c       0x20 /home/wang/wmsdk_bundle-3.1.16/bin/wmsdk/libs/libdrv.a(mw300_driver.o)
                0x2000017c                rtcIntCb
 .bss.dacIntCb  0x2000019c       0x14 /home/wang/wmsdk_bundle-3.1.16/bin/wmsdk/libs/libdrv.a(mw300_driver.o)
                0x2000019c                dacIntCb
 .bss.wdtIntCb  0x200001b0       0x14 /home/wang/wmsdk_bundle-3.1.16/bin/wmsdk/libs/libdrv.a(mw300_driver.o)
                0x200001b0                wdtIntCb
 .bss.usbIntCb  0x200001c4        0xc /home/wang/wmsdk_bundle-3.1.16/bin/wmsdk/libs/libdrv.a(mw300_driver.o)
                0x200001c4                usbIntCb
 .bss.wifiwakeupIntCb
                0x200001d0        0x4 /home/wang/wmsdk_bundle-3.1.16/bin/wmsdk/libs/libdrv.a(mw300_driver.o)
                0x200001d0                wifiwakeupIntCb
 .bss.dmaCh0IntCb
                0x200001d4       0x10 /home/wang/wmsdk_bundle-3.1.16/bin/wmsdk/libs/libdrv.a(mw300_driver.o)
                0x200001d4                dmaCh0IntCb
 .bss.dmaCh15IntCb
                0x200001e4       0x10 /home/wang/wmsdk_bundle-3.1.16/bin/wmsdk/libs/libdrv.a(mw300_driver.o)
                0x200001e4                dmaCh15IntCb
 .bss.dmaCh31IntCb
                0x200001f4       0x10 /home/wang/wmsdk_bundle-3.1.16/bin/wmsdk/libs/libdrv.a(mw300_driver.o)
                0x200001f4                dmaCh31IntCb
 .bss.dmaCh28IntCb
                0x20000204       0x10 /home/wang/wmsdk_bundle-3.1.16/bin/wmsdk/libs/libdrv.a(mw300_driver.o)
                0x20000204                dmaCh28IntCb
 .bss.i2c1IntCb
                0x20000214       0x30 /home/wang/wmsdk_bundle-3.1.16/bin/wmsdk/libs/libdrv.a(mw300_driver.o)
                0x20000214                i2c1IntCb
 .bss.dmaCh12IntCb
                0x20000244       0x10 /home/wang/wmsdk_bundle-3.1.16/bin/wmsdk/libs/libdrv.a(mw300_driver.o)
                0x20000244                dmaCh12IntCb
 .bss.gpt1IntCb
                0x20000254       0x3c /home/wang/wmsdk_bundle-3.1.16/bin/wmsdk/libs/libdrv.a(mw300_driver.o)
                0x20000254                gpt1IntCb
 .bss.rc32mIntCb
                0x20000290        0x8 /home/wang/wmsdk_bundle-3.1.16/bin/wmsdk/libs/libdrv.a(mw300_driver.o)
                0x20000290                rc32mIntCb
 .bss.dmaCh25IntCb
                0x20000298       0x10 /home/wang/wmsdk_bundle-3.1.16/bin/wmsdk/libs/libdrv.a(mw300_driver.o)
                0x20000298                dmaCh25IntCb
 .bss.uart1IntCb
                0x200002a8       0x18 /home/wang/wmsdk_bundle-3.1.16/bin/wmsdk/libs/libdrv.a(mw300_driver.o)
                0x200002a8                uart1IntCb
 .bss.adc0IntCb
                0x200002c0       0x1c /home/wang/wmsdk_bundle-3.1.16/bin/wmsdk/libs/libdrv.a(mw300_driver.o)
                0x200002c0                adc0IntCb
 .bss.dmaCh3IntCb
                0x200002dc       0x10 /home/wang/wmsdk_bundle-3.1.16/bin/wmsdk/libs/libdrv.a(mw300_driver.o)
                0x200002dc                dmaCh3IntCb
 .bss.dmaCh22IntCb
                0x200002ec       0x10 /home/wang/wmsdk_bundle-3.1.16/bin/wmsdk/libs/libdrv.a(mw300_driver.o)
                0x200002ec                dmaCh22IntCb
 .bss.dmaCh7IntCb
                0x200002fc       0x10 /home/wang/wmsdk_bundle-3.1.16/bin/wmsdk/libs/libdrv.a(mw300_driver.o)
                0x200002fc                dmaCh7IntCb
 .bss.acompIntCb
                0x2000030c       0x10 /home/wang/wmsdk_bundle-3.1.16/bin/wmsdk/libs/libdrv.a(mw300_driver.o)
                0x2000030c                acompIntCb
 .bss.ssp2IntCb
                0x2000031c       0x20 /home/wang/wmsdk_bundle-3.1.16/bin/wmsdk/libs/libdrv.a(mw300_driver.o)
                0x2000031c                ssp2IntCb
 .bss.dmaCh6IntCb
                0x2000033c       0x10 /home/wang/wmsdk_bundle-3.1.16/bin/wmsdk/libs/libdrv.a(mw300_driver.o)
                0x2000033c                dmaCh6IntCb
 .bss.dmaCh19IntCb
                0x2000034c       0x10 /home/wang/wmsdk_bundle-3.1.16/bin/wmsdk/libs/libdrv.a(mw300_driver.o)
                0x2000034c                dmaCh19IntCb
 .bss.gpt2IntCb
                0x2000035c       0x3c /home/wang/wmsdk_bundle-3.1.16/bin/wmsdk/libs/libdrv.a(mw300_driver.o)
                0x2000035c                gpt2IntCb
 .bss.uart0IntCb
                0x20000398       0x18 /home/wang/wmsdk_bundle-3.1.16/bin/wmsdk/libs/libdrv.a(mw300_driver.o)
                0x20000398                uart0IntCb
 .bss.mpuIntCb  0x200003b0       0x10 /home/wang/wmsdk_bundle-3.1.16/bin/wmsdk/libs/libdrv.a(mw300_driver.o)
                0x200003b0                mpuIntCb
 .bss.dmaCh16IntCb
                0x200003c0       0x10 /home/wang/wmsdk_bundle-3.1.16/bin/wmsdk/libs/libdrv.a(mw300_driver.o)
                0x200003c0                dmaCh16IntCb
 .bss.uart2IntCb
                0x200003d0       0x18 /home/wang/wmsdk_bundle-3.1.16/bin/wmsdk/libs/libdrv.a(mw300_driver.o)
                0x200003d0                uart2IntCb
 .bss.dmaCh29IntCb
                0x200003e8       0x10 /home/wang/wmsdk_bundle-3.1.16/bin/wmsdk/libs/libdrv.a(mw300_driver.o)
                0x200003e8                dmaCh29IntCb
 .bss.gpt3IntCb
                0x200003f8       0x3c /home/wang/wmsdk_bundle-3.1.16/bin/wmsdk/libs/libdrv.a(mw300_driver.o)
                0x200003f8                gpt3IntCb
 .bss.dmaCh13IntCb
                0x20000434       0x10 /home/wang/wmsdk_bundle-3.1.16/bin/wmsdk/libs/libdrv.a(mw300_driver.o)
                0x20000434                dmaCh13IntCb
 .bss.dmaCh18IntCb
                0x20000444       0x10 /home/wang/wmsdk_bundle-3.1.16/bin/wmsdk/libs/libdrv.a(mw300_driver.o)
                0x20000444                dmaCh18IntCb
 .bss.extpin0IntCb
                0x20000454        0x4 /home/wang/wmsdk_bundle-3.1.16/bin/wmsdk/libs/libdrv.a(mw300_driver.o)
                0x20000454                extpin0IntCb
 .bss.sdioIntCb
                0x20000458       0x50 /home/wang/wmsdk_bundle-3.1.16/bin/wmsdk/libs/libdrv.a(mw300_driver.o)
                0x20000458                sdioIntCb
 .bss.ssp0IntCb
                0x200004a8       0x20 /home/wang/wmsdk_bundle-3.1.16/bin/wmsdk/libs/libdrv.a(mw300_driver.o)
                0x200004a8                ssp0IntCb
 .bss.dmaCh10IntCb
                0x200004c8       0x10 /home/wang/wmsdk_bundle-3.1.16/bin/wmsdk/libs/libdrv.a(mw300_driver.o)
                0x200004c8                dmaCh10IntCb
 .bss.dmaCh23IntCb
                0x200004d8       0x10 /home/wang/wmsdk_bundle-3.1.16/bin/wmsdk/libs/libdrv.a(mw300_driver.o)
                0x200004d8                dmaCh23IntCb
 .bss.dmaCh8IntCb
                0x200004e8       0x10 /home/wang/wmsdk_bundle-3.1.16/bin/wmsdk/libs/libdrv.a(mw300_driver.o)
                0x200004e8                dmaCh8IntCb
 .bss.aesIntCb  0x200004f8       0x20 /home/wang/wmsdk_bundle-3.1.16/bin/wmsdk/libs/libdrv.a(mw300_driver.o)
                0x200004f8                aesIntCb
 .bss.dmaCh1IntCb
                0x20000518       0x10 /home/wang/wmsdk_bundle-3.1.16/bin/wmsdk/libs/libdrv.a(mw300_driver.o)
                0x20000518                dmaCh1IntCb
 .bss.dmaCh20IntCb
                0x20000528       0x10 /home/wang/wmsdk_bundle-3.1.16/bin/wmsdk/libs/libdrv.a(mw300_driver.o)
                0x20000528                dmaCh20IntCb
 .bss.dmaCh5IntCb
                0x20000538       0x10 /home/wang/wmsdk_bundle-3.1.16/bin/wmsdk/libs/libdrv.a(mw300_driver.o)
                0x20000538                dmaCh5IntCb
 .bss.qspiIntCb
                0x20000548       0x30 /home/wang/wmsdk_bundle-3.1.16/bin/wmsdk/libs/libdrv.a(mw300_driver.o)
                0x20000548                qspiIntCb
 .bss.dmaCh2IntCb
                0x20000578       0x10 /home/wang/wmsdk_bundle-3.1.16/bin/wmsdk/libs/libdrv.a(mw300_driver.o)
                0x20000578                dmaCh2IntCb
 .bss.dmaCh21IntCb
                0x20000588       0x10 /home/wang/wmsdk_bundle-3.1.16/bin/wmsdk/libs/libdrv.a(mw300_driver.o)
                0x20000588                dmaCh21IntCb
 .bss.extpin1IntCb
                0x20000598        0x4 /home/wang/wmsdk_bundle-3.1.16/bin/wmsdk/libs/libdrv.a(mw300_driver.o)
                0x20000598                extpin1IntCb
 .bss.dmaCh30IntCb
                0x2000059c       0x10 /home/wang/wmsdk_bundle-3.1.16/bin/wmsdk/libs/libdrv.a(mw300_driver.o)
                0x2000059c                dmaCh30IntCb
 .bss.ssp1IntCb
                0x200005ac       0x20 /home/wang/wmsdk_bundle-3.1.16/bin/wmsdk/libs/libdrv.a(mw300_driver.o)
                0x200005ac                ssp1IntCb
 .bss.dmaCh17IntCb
                0x200005cc       0x10 /home/wang/wmsdk_bundle-3.1.16/bin/wmsdk/libs/libdrv.a(mw300_driver.o)
                0x200005cc                dmaCh17IntCb
 .bss.gpt0IntCb
                0x200005dc       0x3c /home/wang/wmsdk_bundle-3.1.16/bin/wmsdk/libs/libdrv.a(mw300_driver.o)
                0x200005dc                gpt0IntCb
 .bss.dmaCh26IntCb
                0x20000618       0x10 /home/wang/wmsdk_bundle-3.1.16/bin/wmsdk/libs/libdrv.a(mw300_driver.o)
                0x20000618                dmaCh26IntCb
 .bss.dmaCh14IntCb
                0x20000628       0x10 /home/wang/wmsdk_bundle-3.1.16/bin/wmsdk/libs/libdrv.a(mw300_driver.o)
                0x20000628                dmaCh14IntCb
 .bss.dmaCh27IntCb
                0x20000638       0x10 /home/wang/wmsdk_bundle-3.1.16/bin/wmsdk/libs/libdrv.a(mw300_driver.o)
                0x20000638                dmaCh27IntCb
 .bss.crcIntCb  0x20000648       0x20 /home/wang/wmsdk_bundle-3.1.16/bin/wmsdk/libs/libdrv.a(mw300_driver.o)
                0x20000648                crcIntCb
 .bss.i2c0IntCb
                0x20000668       0x30 /home/wang/wmsdk_bundle-3.1.16/bin/wmsdk/libs/libdrv.a(mw300_driver.o)
                0x20000668                i2c0IntCb
 .bss.dmaCh11IntCb
                0x20000698       0x10 /home/wang/wmsdk_bundle-3.1.16/bin/wmsdk/libs/libdrv.a(mw300_driver.o)
                0x20000698                dmaCh11IntCb
 .bss.dmaCh4IntCb
                0x200006a8       0x10 /home/wang/wmsdk_bundle-3.1.16/bin/wmsdk/libs/libdrv.a(mw300_driver.o)
                0x200006a8                dmaCh4IntCb
 .bss.uxTopReadyPriority
                0x200006b8        0x4 /home/wang/wmsdk_bundle-3.1.16/bin/wmsdk/libs/libfreertos.a(tasks.o)
 .bss.uxTasksDeleted
                0x200006bc        0x4 /home/wang/wmsdk_bundle-3.1.16/bin/wmsdk/libs/libfreertos.a(tasks.o)
 .bss.xTickCount
                0x200006c0        0x4 /home/wang/wmsdk_bundle-3.1.16/bin/wmsdk/libs/libfreertos.a(tasks.o)
 .bss.pxReadyTasksLists
                0x200006c4       0x64 /home/wang/wmsdk_bundle-3.1.16/bin/wmsdk/libs/libfreertos.a(tasks.o)
 .bss.pxOverflowDelayedTaskList
                0x20000728        0x4 /home/wang/wmsdk_bundle-3.1.16/bin/wmsdk/libs/libfreertos.a(tasks.o)
 .bss.xTasksWaitingTermination
                0x2000072c       0x14 /home/wang/wmsdk_bundle-3.1.16/bin/wmsdk/libs/libfreertos.a(tasks.o)
 .bss.xTracing  0x20000740        0x4 /home/wang/wmsdk_bundle-3.1.16/bin/wmsdk/libs/libfreertos.a(tasks.o)
 .bss.pxDelayedTaskList
                0x20000744        0x4 /home/wang/wmsdk_bundle-3.1.16/bin/wmsdk/libs/libfreertos.a(tasks.o)
 .bss.uxCurrentNumberOfTasks
                0x20000748        0x4 /home/wang/wmsdk_bundle-3.1.16/bin/wmsdk/libs/libfreertos.a(tasks.o)
 .bss.xPendingReadyList
                0x2000074c       0x14 /home/wang/wmsdk_bundle-3.1.16/bin/wmsdk/libs/libfreertos.a(tasks.o)
 .bss.xSchedulerRunning
                0x20000760        0x4 /home/wang/wmsdk_bundle-3.1.16/bin/wmsdk/libs/libfreertos.a(tasks.o)
 .bss.xMissedYield
                0x20000764        0x4 /home/wang/wmsdk_bundle-3.1.16/bin/wmsdk/libs/libfreertos.a(tasks.o)
 .bss.uxTaskNumber
                0x20000768        0x4 /home/wang/wmsdk_bundle-3.1.16/bin/wmsdk/libs/libfreertos.a(tasks.o)
 .bss.pcTraceBuffer
                0x2000076c        0x4 /home/wang/wmsdk_bundle-3.1.16/bin/wmsdk/libs/libfreertos.a(tasks.o)
 .bss.pxCurrentTCB
                0x20000770        0x4 /home/wang/wmsdk_bundle-3.1.16/bin/wmsdk/libs/libfreertos.a(tasks.o)
                0x20000770                pxCurrentTCB
 .bss.xSuspendedTaskList
                0x20000774       0x14 /home/wang/wmsdk_bundle-3.1.16/bin/wmsdk/libs/libfreertos.a(tasks.o)
 .bss.xDelayedTaskList1
                0x20000788       0x14 /home/wang/wmsdk_bundle-3.1.16/bin/wmsdk/libs/libfreertos.a(tasks.o)
 .bss.xDelayedTaskList2
                0x2000079c       0x14 /home/wang/wmsdk_bundle-3.1.16/bin/wmsdk/libs/libfreertos.a(tasks.o)
 .bss.uxSchedulerSuspended
                0x200007b0        0x4 /home/wang/wmsdk_bundle-3.1.16/bin/wmsdk/libs/libfreertos.a(tasks.o)
 .bss.uxMissedTicks
                0x200007b4        0x4 /home/wang/wmsdk_bundle-3.1.16/bin/wmsdk/libs/libfreertos.a(tasks.o)
 .bss.pcTraceBufferEnd
                0x200007b8        0x4 /home/wang/wmsdk_bundle-3.1.16/bin/wmsdk/libs/libfreertos.a(tasks.o)
 .bss.xNumOfOverflows
                0x200007bc        0x4 /home/wang/wmsdk_bundle-3.1.16/bin/wmsdk/libs/libfreertos.a(tasks.o)
 .bss.uxTopUsedPriority
                0x200007c0        0x4 /home/wang/wmsdk_bundle-3.1.16/bin/wmsdk/libs/libfreertos.a(tasks.o)
 .bss.pxCurrentTimerList
                0x200007c4        0x4 /home/wang/wmsdk_bundle-3.1.16/bin/wmsdk/libs/libfreertos.a(timers.o)
 .bss.xActiveTimerList1
                0x200007c8       0x14 /home/wang/wmsdk_bundle-3.1.16/bin/wmsdk/libs/libfreertos.a(timers.o)
 .bss.xActiveTimerList2
                0x200007dc       0x14 /home/wang/wmsdk_bundle-3.1.16/bin/wmsdk/libs/libfreertos.a(timers.o)
 .bss.xLastTime.4447
                0x200007f0        0x4 /home/wang/wmsdk_bundle-3.1.16/bin/wmsdk/libs/libfreertos.a(timers.o)
 .bss.xTimerQueue
                0x200007f4        0x4 /home/wang/wmsdk_bundle-3.1.16/bin/wmsdk/libs/libfreertos.a(timers.o)
 .bss.pxOverflowTimerList
                0x200007f8        0x4 /home/wang/wmsdk_bundle-3.1.16/bin/wmsdk/libs/libfreertos.a(timers.o)
 .bss.hI        0x200007fc       0x18 /home/wang/wmsdk_bundle-3.1.16/bin/wmsdk/libs/libfreertos.a(heap_4.o)
 .bss.lastHeapAddress
                0x20000814        0x4 /home/wang/wmsdk_bundle-3.1.16/bin/wmsdk/libs/libfreertos.a(heap_4.o)
 .bss.xFreeBytesRemaining
                0x20000818        0x4 /home/wang/wmsdk_bundle-3.1.16/bin/wmsdk/libs/libfreertos.a(heap_4.o)
 .bss.xStart    0x2000081c        0xc /home/wang/wmsdk_bundle-3.1.16/bin/wmsdk/libs/libfreertos.a(heap_4.o)
 .bss.startHeapAddress
                0x20000828        0x4 /home/wang/wmsdk_bundle-3.1.16/bin/wmsdk/libs/libfreertos.a(heap_4.o)
 .bss.configTOTAL_HEAP_SIZE
                0x2000082c        0x4 /home/wang/wmsdk_bundle-3.1.16/bin/wmsdk/libs/libfreertos.a(heap_4.o)
 .bss.xEnd      0x20000830        0xc /home/wang/wmsdk_bundle-3.1.16/bin/wmsdk/libs/libfreertos.a(heap_4.o)
 .bss.xHeapHasBeenInitialised.5075
                0x2000083c        0x4 /home/wang/wmsdk_bundle-3.1.16/bin/wmsdk/libs/libfreertos.a(heap_4.o)
 .bss.xHeap     0x20000840        0x8 /home/wang/wmsdk_bundle-3.1.16/bin/wmsdk/libs/libfreertos.a(heap_4.o)
 .bss.pMdevList
                0x20000848        0x4 /home/wang/wmsdk_bundle-3.1.16/bin/wmsdk/libs/libmdev.a(mdev.o)
                0x20000848                pMdevList
 .bss.g_os_tick_hooks
                0x2000084c       0x10 /home/wang/wmsdk_bundle-3.1.16/bin/wmsdk/libs/libos.a(os.o)
                0x2000084c                g_os_tick_hooks
 .bss.g_sys_lock
                0x2000085c        0x4 /home/wang/wmsdk_bundle-3.1.16/bin/wmsdk/libs/libos.a(os.o)
                0x2000085c                g_sys_lock
 .bss.g_os_idle_hooks
                0x20000860       0x10 /home/wang/wmsdk_bundle-3.1.16/bin/wmsdk/libs/libos.a(os.o)
                0x20000860                g_os_idle_hooks
 .bss.ps_cb_list
                0x20000870       0x78 /home/wang/wmsdk_bundle-3.1.16/bin/wmsdk/libs/libpwrmgr.a(pwrmgr.o)
 .bss.g_rst_cause
                0x200008e8        0x4 /home/wang/wmsdk_bundle-3.1.16/bin/wmsdk/libs/libutil.a(boot_flags.o)
                0x200008e8                g_rst_cause
 .bss.g_boot_flags
                0x200008ec        0x4 /home/wang/wmsdk_bundle-3.1.16/bin/wmsdk/libs/libutil.a(boot_flags.o)
                0x200008ec                g_boot_flags
 .bss.g_prev_version_fw
                0x200008f0        0x4 /home/wang/wmsdk_bundle-3.1.16/bin/wmsdk/libs/libutil.a(boot_flags.o)
                0x200008f0                g_prev_version_fw
 .bss.ll_msg_buf_
                0x200008f4       0x7f /home/wang/wmsdk_bundle-3.1.16/bin/wmsdk/libs/libwmstdio.a(wmstdio.o)
 *fill*         0x20000973        0x1 
 .bss.wmstdio_mutex
                0x20000974        0x4 /home/wang/wmsdk_bundle-3.1.16/bin/wmsdk/libs/libwmstdio.a(wmstdio.o)
 .bss.empty_funcs
                0x20000978       0x10 /home/wang/wmsdk_bundle-3.1.16/bin/wmsdk/libs/libwmstdio.a(wmstdio.o)
                0x20000978                empty_funcs
 .bss.init_done.13540
                0x20000988        0x1 /home/wang/wmsdk_bundle-3.1.16/bin/wmsdk/libs/libwmstdio.a(wmstdio.o)
 .bss.wmstdio_msg_buf_
                0x20000989       0x7f /home/wang/wmsdk_bundle-3.1.16/bin/wmsdk/libs/libwmstdio.a(wmstdio.o)
 .bss.mdev_uart_
                0x20000a08        0x4 /home/wang/wmsdk_bundle-3.1.16/bin/wmsdk/libs/libwmstdio.a(console.o)
 .bss.file_info
                0x20000a0c      0x140 obj/main.o
                0x20000a0c                file_info
 .bss.uart_block_read_sem
                0x20000b4c        0xc /home/wang/wmsdk_bundle-3.1.16/bin/wmsdk/libs/libdrv.a(mdev_uart.o)
 .bss.uart_block_dma_wr_sem
                0x20000b58        0xc /home/wang/wmsdk_bundle-3.1.16/bin/wmsdk/libs/libdrv.a(mdev_uart.o)
 .bss.read_dma  0x20000b64       0x3c /home/wang/wmsdk_bundle-3.1.16/bin/wmsdk/libs/libdrv.a(mdev_uart.o)
                0x20000b64                read_dma
 .bss.uart_8bit_cb_p
                0x20000ba0        0xc /home/wang/wmsdk_bundle-3.1.16/bin/wmsdk/libs/libdrv.a(mdev_uart.o)
 .bss.uart_mutex
                0x20000bac        0xc /home/wang/wmsdk_bundle-3.1.16/bin/wmsdk/libs/libdrv.a(mdev_uart.o)
 .bss.uart_9bit_cb_p
                0x20000bb8        0xc /home/wang/wmsdk_bundle-3.1.16/bin/wmsdk/libs/libdrv.a(mdev_uart.o)
 .bss.uart_dma_rd_cb_p
                0x20000bc4        0xc /home/wang/wmsdk_bundle-3.1.16/bin/wmsdk/libs/libdrv.a(mdev_uart.o)
 .bss.mdev_uart
                0x20000bd0       0x3c /home/wang/wmsdk_bundle-3.1.16/bin/wmsdk/libs/libdrv.a(mdev_uart.o)
 .bss.uartdev_data
                0x20000c0c       0x78 /home/wang/wmsdk_bundle-3.1.16/bin/wmsdk/libs/libdrv.a(mdev_uart.o)
 .bss.mdev_dma_p_data
                0x20000c84       0x3c /home/wang/wmsdk_bundle-3.1.16/bin/wmsdk/libs/libdrv.a(mdev_dma.o)
 .bss.mdev_dma  0x20000cc0       0x14 /home/wang/wmsdk_bundle-3.1.16/bin/wmsdk/libs/libdrv.a(mdev_dma.o)
 .bss.dma_init_done
                0x20000cd4        0x1 /home/wang/wmsdk_bundle-3.1.16/bin/wmsdk/libs/libdrv.a(mdev_dma.o)
 *fill*         0x20000cd5        0x3 
 .bss.fl_cfg    0x20000cd8       0x10 /home/wang/wmsdk_bundle-3.1.16/bin/wmsdk/libs/libdrv.a(mdev_iflash.o)
 .bss.MDEV_iflash
                0x20000ce8       0x14 /home/wang/wmsdk_bundle-3.1.16/bin/wmsdk/libs/libdrv.a(mdev_iflash.o)
 .bss.iflash_mutex
                0x20000cfc        0x4 /home/wang/wmsdk_bundle-3.1.16/bin/wmsdk/libs/libdrv.a(mdev_iflash.o)
 *(COMMON)
                0x20000d00                _ebss = .

._main_stack    0x20000d00      0x800
                0x20000d00                . = ALIGN (0x4)
                0x20001500                . = (. + _min_stack_size)
 *fill*         0x20000d00      0x800 
                0x20001500                . = ALIGN (0x4)

.nvram          0x480c0000       0x44
                0x480c0000                _nvram_start = .
                0x480c0040                . = (. + 0x40)
 *fill*         0x480c0000       0x40 
                0x480c0040                . = ALIGN (0x4)
                0x480c0040                _nvram_begin = .
 *(.nvram)
 *(.nvram.*)
                0x480c0040                _nvram_end = .
                0x480c0040                . = ALIGN (0x4)
 *(.nvram_uninit)
 .nvram_uninit  0x480c0040        0x4 /home/wang/wmsdk_bundle-3.1.16/bin/wmsdk/libs/libdrv.a(mdev_pm.o)
                0x480c0040                pm4_sig
 *(.nvram_uninit.*)

/DISCARD/
 *(.ARM.exidx* .gnu.linkonce.armexidx.*)
OUTPUT(bin/audio_demo.axf elf32-littlearm)

.debug_info     0x00000000    0x2f483
 .debug_info    0x00000000     0x3c01 /home/wang/wmsdk_bundle-3.1.16/bin/wmsdk/libs/libdrv.a(mdev_startup.o)
 .debug_info    0x00003c01     0x4966 /home/wang/wmsdk_bundle-3.1.16/bin/wmsdk/libs/libdrv.a(mdev_pm.o)
 .debug_info    0x00008567     0x3812 /home/wang/wmsdk_bundle-3.1.16/bin/wmsdk/libs/libdrv.a(mw300_clock.o)
 .debug_info    0x0000bd79      0x71f /home/wang/wmsdk_bundle-3.1.16/bin/wmsdk/libs/libdrv.a(mw300_driver.o)
 .debug_info    0x0000c498     0x37de /home/wang/wmsdk_bundle-3.1.16/bin/wmsdk/libs/libdrv.a(mw300_pmu.o)
 .debug_info    0x0000fc76      0x36f /home/wang/wmsdk_bundle-3.1.16/bin/wmsdk/libs/libdrv.a(mw300_pinmux.o)
 .debug_info    0x0000ffe5      0x931 /home/wang/wmsdk_bundle-3.1.16/bin/wmsdk/libs/libdrv.a(mw300_rtc.o)
 .debug_info    0x00010916     0x1b39 /home/wang/wmsdk_bundle-3.1.16/bin/wmsdk/libs/libdrv.a(mw300_gpt.o)
 .debug_info    0x0001244f      0xf14 /home/wang/wmsdk_bundle-3.1.16/bin/wmsdk/libs/libfreertos.a(queue.o)
 .debug_info    0x00013363     0x1efd /home/wang/wmsdk_bundle-3.1.16/bin/wmsdk/libs/libfreertos.a(tasks.o)
 .debug_info    0x00015260      0xddb /home/wang/wmsdk_bundle-3.1.16/bin/wmsdk/libs/libfreertos.a(timers.o)
 .debug_info    0x0001603b      0x212 /home/wang/wmsdk_bundle-3.1.16/bin/wmsdk/libs/libfreertos.a(port.o)
 .debug_info    0x0001624d      0x6c1 /home/wang/wmsdk_bundle-3.1.16/bin/wmsdk/libs/libfreertos.a(heap_4.o)
 .debug_info    0x0001690e      0x27e /home/wang/wmsdk_bundle-3.1.16/bin/wmsdk/libs/libfreertos.a(list.o)
 .debug_info    0x00016b8c      0x3d1 /home/wang/wmsdk_bundle-3.1.16/bin/wmsdk/libs/libmdev.a(mdev.o)
 .debug_info    0x00016f5d     0x204b /home/wang/wmsdk_bundle-3.1.16/bin/wmsdk/libs/libos.a(os.o)
 .debug_info    0x00018fa8     0x10d0 /home/wang/wmsdk_bundle-3.1.16/bin/wmsdk/libs/libpwrmgr.a(pwrmgr.o)
 .debug_info    0x0001a078      0xa20 /home/wang/wmsdk_bundle-3.1.16/bin/wmsdk/libs/libutil.a(boot_flags.o)
 .debug_info    0x0001aa98      0x192 /home/wang/wmsdk_bundle-3.1.16/bin/wmsdk/libs/libutil.a(critical_error.o)
 .debug_info    0x0001ac2a      0xa2e /home/wang/wmsdk_bundle-3.1.16/bin/wmsdk/libs/libwmstdio.a(wmstdio.o)
 .debug_info    0x0001b658      0x41a /home/wang/wmsdk_bundle-3.1.16/bin/wmsdk/libs/libwmstdio.a(console.o)
 .debug_info    0x0001ba72      0x992 obj/main.o
 .debug_info    0x0001c404      0xb5c obj/board.o
 .debug_info    0x0001cf60     0x1068 obj/audio_read_write.o
 .debug_info    0x0001dfc8      0xad6 obj/save_file_addr.o
 .debug_info    0x0001ea9e       0xc2 /home/wang/wmsdk_bundle-3.1.16/bin/wmsdk/libs/libc.a(memcmp.o)
 .debug_info    0x0001eb60      0x129 /home/wang/wmsdk_bundle-3.1.16/bin/wmsdk/libs/libc.a(snprintf.o)
 .debug_info    0x0001ec89      0x4f3 /home/wang/wmsdk_bundle-3.1.16/bin/wmsdk/libs/libc.a(vsnprintf.o)
 .debug_info    0x0001f17c       0xc3 /home/wang/wmsdk_bundle-3.1.16/bin/wmsdk/libs/libc.a(strcmp.o)
 .debug_info    0x0001f23f       0xf4 /home/wang/wmsdk_bundle-3.1.16/bin/wmsdk/libs/libc.a(strncpy.o)
 .debug_info    0x0001f333       0x86 /home/wang/wmsdk_bundle-3.1.16/bin/wmsdk/libs/libc.a(strlen.o)
 .debug_info    0x0001f3b9     0x1986 /home/wang/wmsdk_bundle-3.1.16/bin/wmsdk/libs/libdrv.a(mw300_uart.o)
 .debug_info    0x00020d3f     0x32fe /home/wang/wmsdk_bundle-3.1.16/bin/wmsdk/libs/libdrv.a(mdev_uart.o)
 .debug_info    0x0002403d     0x31f4 /home/wang/wmsdk_bundle-3.1.16/bin/wmsdk/libs/libdrv.a(mdev_dma.o)
 .debug_info    0x00027231     0x21b4 /home/wang/wmsdk_bundle-3.1.16/bin/wmsdk/libs/libdrv.a(mw300_dma.o)
 .debug_info    0x000293e5      0x64b /home/wang/wmsdk_bundle-3.1.16/bin/wmsdk/libs/libutil.a(flash.o)
 .debug_info    0x00029a30     0x212d /home/wang/wmsdk_bundle-3.1.16/bin/wmsdk/libs/libdrv.a(mdev_iflash.o)
 .debug_info    0x0002bb5d     0x2602 /home/wang/wmsdk_bundle-3.1.16/bin/wmsdk/libs/libdrv.a(mw300_flash.o)
 .debug_info    0x0002e15f     0x1324 /home/wang/wmsdk_bundle-3.1.16/bin/wmsdk/libs/libdrv.a(mw300_qspi.o)

.debug_abbrev   0x00000000     0x6297
 .debug_abbrev  0x00000000      0x47b /home/wang/wmsdk_bundle-3.1.16/bin/wmsdk/libs/libdrv.a(mdev_startup.o)
 .debug_abbrev  0x0000047b      0x5eb /home/wang/wmsdk_bundle-3.1.16/bin/wmsdk/libs/libdrv.a(mdev_pm.o)
 .debug_abbrev  0x00000a66      0x2d0 /home/wang/wmsdk_bundle-3.1.16/bin/wmsdk/libs/libdrv.a(mw300_clock.o)
 .debug_abbrev  0x00000d36       0xc1 /home/wang/wmsdk_bundle-3.1.16/bin/wmsdk/libs/libdrv.a(mw300_driver.o)
 .debug_abbrev  0x00000df7      0x374 /home/wang/wmsdk_bundle-3.1.16/bin/wmsdk/libs/libdrv.a(mw300_pmu.o)
 .debug_abbrev  0x0000116b      0x130 /home/wang/wmsdk_bundle-3.1.16/bin/wmsdk/libs/libdrv.a(mw300_pinmux.o)
 .debug_abbrev  0x0000129b      0x21f /home/wang/wmsdk_bundle-3.1.16/bin/wmsdk/libs/libdrv.a(mw300_rtc.o)
 .debug_abbrev  0x000014ba      0x344 /home/wang/wmsdk_bundle-3.1.16/bin/wmsdk/libs/libdrv.a(mw300_gpt.o)
 .debug_abbrev  0x000017fe      0x288 /home/wang/wmsdk_bundle-3.1.16/bin/wmsdk/libs/libfreertos.a(queue.o)
 .debug_abbrev  0x00001a86      0x3a9 /home/wang/wmsdk_bundle-3.1.16/bin/wmsdk/libs/libfreertos.a(tasks.o)
 .debug_abbrev  0x00001e2f      0x2e0 /home/wang/wmsdk_bundle-3.1.16/bin/wmsdk/libs/libfreertos.a(timers.o)
 .debug_abbrev  0x0000210f      0x167 /home/wang/wmsdk_bundle-3.1.16/bin/wmsdk/libs/libfreertos.a(port.o)
 .debug_abbrev  0x00002276      0x34d /home/wang/wmsdk_bundle-3.1.16/bin/wmsdk/libs/libfreertos.a(heap_4.o)
 .debug_abbrev  0x000025c3       0xcb /home/wang/wmsdk_bundle-3.1.16/bin/wmsdk/libs/libfreertos.a(list.o)
 .debug_abbrev  0x0000268e      0x18f /home/wang/wmsdk_bundle-3.1.16/bin/wmsdk/libs/libmdev.a(mdev.o)
 .debug_abbrev  0x0000281d      0x532 /home/wang/wmsdk_bundle-3.1.16/bin/wmsdk/libs/libos.a(os.o)
 .debug_abbrev  0x00002d4f      0x453 /home/wang/wmsdk_bundle-3.1.16/bin/wmsdk/libs/libpwrmgr.a(pwrmgr.o)
 .debug_abbrev  0x000031a2      0x21c /home/wang/wmsdk_bundle-3.1.16/bin/wmsdk/libs/libutil.a(boot_flags.o)
 .debug_abbrev  0x000033be      0x104 /home/wang/wmsdk_bundle-3.1.16/bin/wmsdk/libs/libutil.a(critical_error.o)
 .debug_abbrev  0x000034c2      0x36d /home/wang/wmsdk_bundle-3.1.16/bin/wmsdk/libs/libwmstdio.a(wmstdio.o)
 .debug_abbrev  0x0000382f      0x1bf /home/wang/wmsdk_bundle-3.1.16/bin/wmsdk/libs/libwmstdio.a(console.o)
 .debug_abbrev  0x000039ee      0x229 obj/main.o
 .debug_abbrev  0x00003c17      0x273 obj/board.o
 .debug_abbrev  0x00003e8a      0x1a6 obj/audio_read_write.o
 .debug_abbrev  0x00004030      0x1f5 obj/save_file_addr.o
 .debug_abbrev  0x00004225       0x95 /home/wang/wmsdk_bundle-3.1.16/bin/wmsdk/libs/libc.a(memcmp.o)
 .debug_abbrev  0x000042ba       0xf8 /home/wang/wmsdk_bundle-3.1.16/bin/wmsdk/libs/libc.a(snprintf.o)
 .debug_abbrev  0x000043b2      0x1f0 /home/wang/wmsdk_bundle-3.1.16/bin/wmsdk/libs/libc.a(vsnprintf.o)
 .debug_abbrev  0x000045a2       0x83 /home/wang/wmsdk_bundle-3.1.16/bin/wmsdk/libs/libc.a(strcmp.o)
 .debug_abbrev  0x00004625       0xbb /home/wang/wmsdk_bundle-3.1.16/bin/wmsdk/libs/libc.a(strncpy.o)
 .debug_abbrev  0x000046e0       0x81 /home/wang/wmsdk_bundle-3.1.16/bin/wmsdk/libs/libc.a(strlen.o)
 .debug_abbrev  0x00004761      0x3f6 /home/wang/wmsdk_bundle-3.1.16/bin/wmsdk/libs/libdrv.a(mw300_uart.o)
 .debug_abbrev  0x00004b57      0x58c /home/wang/wmsdk_bundle-3.1.16/bin/wmsdk/libs/libdrv.a(mdev_uart.o)
 .debug_abbrev  0x000050e3      0x4ae /home/wang/wmsdk_bundle-3.1.16/bin/wmsdk/libs/libdrv.a(mdev_dma.o)
 .debug_abbrev  0x00005591      0x237 /home/wang/wmsdk_bundle-3.1.16/bin/wmsdk/libs/libdrv.a(mw300_dma.o)
 .debug_abbrev  0x000057c8      0x184 /home/wang/wmsdk_bundle-3.1.16/bin/wmsdk/libs/libutil.a(flash.o)
 .debug_abbrev  0x0000594c      0x40b /home/wang/wmsdk_bundle-3.1.16/bin/wmsdk/libs/libdrv.a(mdev_iflash.o)
 .debug_abbrev  0x00005d57      0x31d /home/wang/wmsdk_bundle-3.1.16/bin/wmsdk/libs/libdrv.a(mw300_flash.o)
 .debug_abbrev  0x00006074      0x223 /home/wang/wmsdk_bundle-3.1.16/bin/wmsdk/libs/libdrv.a(mw300_qspi.o)

.debug_loc      0x00000000     0xcb44
 .debug_loc     0x00000000      0x209 /home/wang/wmsdk_bundle-3.1.16/bin/wmsdk/libs/libdrv.a(mdev_startup.o)
 .debug_loc     0x00000209      0x501 /home/wang/wmsdk_bundle-3.1.16/bin/wmsdk/libs/libdrv.a(mdev_pm.o)
 .debug_loc     0x0000070a      0x89e /home/wang/wmsdk_bundle-3.1.16/bin/wmsdk/libs/libdrv.a(mw300_clock.o)
 .debug_loc     0x00000fa8      0x30f /home/wang/wmsdk_bundle-3.1.16/bin/wmsdk/libs/libdrv.a(mw300_pmu.o)
 .debug_loc     0x000012b7       0xa8 /home/wang/wmsdk_bundle-3.1.16/bin/wmsdk/libs/libdrv.a(mw300_rtc.o)
 .debug_loc     0x0000135f      0x7d3 /home/wang/wmsdk_bundle-3.1.16/bin/wmsdk/libs/libdrv.a(mw300_gpt.o)
 .debug_loc     0x00001b32      0x93a /home/wang/wmsdk_bundle-3.1.16/bin/wmsdk/libs/libfreertos.a(queue.o)
 .debug_loc     0x0000246c     0x15d1 /home/wang/wmsdk_bundle-3.1.16/bin/wmsdk/libs/libfreertos.a(tasks.o)
 .debug_loc     0x00003a3d      0x80d /home/wang/wmsdk_bundle-3.1.16/bin/wmsdk/libs/libfreertos.a(timers.o)
 .debug_loc     0x0000424a       0x45 /home/wang/wmsdk_bundle-3.1.16/bin/wmsdk/libs/libfreertos.a(port.o)
 .debug_loc     0x0000428f      0x6cc /home/wang/wmsdk_bundle-3.1.16/bin/wmsdk/libs/libfreertos.a(heap_4.o)
 .debug_loc     0x0000495b       0x73 /home/wang/wmsdk_bundle-3.1.16/bin/wmsdk/libs/libfreertos.a(list.o)
 .debug_loc     0x000049ce      0x13f /home/wang/wmsdk_bundle-3.1.16/bin/wmsdk/libs/libmdev.a(mdev.o)
 .debug_loc     0x00004b0d      0xcb7 /home/wang/wmsdk_bundle-3.1.16/bin/wmsdk/libs/libos.a(os.o)
 .debug_loc     0x000057c4      0x6f1 /home/wang/wmsdk_bundle-3.1.16/bin/wmsdk/libs/libpwrmgr.a(pwrmgr.o)
 .debug_loc     0x00005eb5       0x2d /home/wang/wmsdk_bundle-3.1.16/bin/wmsdk/libs/libutil.a(boot_flags.o)
 .debug_loc     0x00005ee2       0x6e /home/wang/wmsdk_bundle-3.1.16/bin/wmsdk/libs/libutil.a(critical_error.o)
 .debug_loc     0x00005f50      0x1a1 /home/wang/wmsdk_bundle-3.1.16/bin/wmsdk/libs/libwmstdio.a(wmstdio.o)
 .debug_loc     0x000060f1      0x11b /home/wang/wmsdk_bundle-3.1.16/bin/wmsdk/libs/libwmstdio.a(console.o)
 .debug_loc     0x0000620c      0x303 obj/main.o
 .debug_loc     0x0000650f      0x12f obj/board.o
 .debug_loc     0x0000663e      0x22b obj/audio_read_write.o
 .debug_loc     0x00006869      0x432 obj/save_file_addr.o
 .debug_loc     0x00006c9b       0xfd /home/wang/wmsdk_bundle-3.1.16/bin/wmsdk/libs/libc.a(memcmp.o)
 .debug_loc     0x00006d98       0x42 /home/wang/wmsdk_bundle-3.1.16/bin/wmsdk/libs/libc.a(snprintf.o)
 .debug_loc     0x00006dda      0xf78 /home/wang/wmsdk_bundle-3.1.16/bin/wmsdk/libs/libc.a(vsnprintf.o)
 .debug_loc     0x00007d52       0xfd /home/wang/wmsdk_bundle-3.1.16/bin/wmsdk/libs/libc.a(strcmp.o)
 .debug_loc     0x00007e4f       0xc6 /home/wang/wmsdk_bundle-3.1.16/bin/wmsdk/libs/libc.a(strncpy.o)
 .debug_loc     0x00007f15       0x3f /home/wang/wmsdk_bundle-3.1.16/bin/wmsdk/libs/libc.a(strlen.o)
 .debug_loc     0x00007f54      0xc0f /home/wang/wmsdk_bundle-3.1.16/bin/wmsdk/libs/libdrv.a(mw300_uart.o)
 .debug_loc     0x00008b63     0x1595 /home/wang/wmsdk_bundle-3.1.16/bin/wmsdk/libs/libdrv.a(mdev_uart.o)
 .debug_loc     0x0000a0f8      0x670 /home/wang/wmsdk_bundle-3.1.16/bin/wmsdk/libs/libdrv.a(mdev_dma.o)
 .debug_loc     0x0000a768      0x209 /home/wang/wmsdk_bundle-3.1.16/bin/wmsdk/libs/libdrv.a(mw300_dma.o)
 .debug_loc     0x0000a971      0x44f /home/wang/wmsdk_bundle-3.1.16/bin/wmsdk/libs/libutil.a(flash.o)
 .debug_loc     0x0000adc0      0x7eb /home/wang/wmsdk_bundle-3.1.16/bin/wmsdk/libs/libdrv.a(mdev_iflash.o)
 .debug_loc     0x0000b5ab      0xe96 /home/wang/wmsdk_bundle-3.1.16/bin/wmsdk/libs/libdrv.a(mw300_flash.o)
 .debug_loc     0x0000c441      0x703 /home/wang/wmsdk_bundle-3.1.16/bin/wmsdk/libs/libdrv.a(mw300_qspi.o)

.debug_aranges  0x00000000     0x1430
 .debug_aranges
                0x00000000       0x58 /home/wang/wmsdk_bundle-3.1.16/bin/wmsdk/libs/libdrv.a(mdev_startup.o)
 .debug_aranges
                0x00000058       0xd8 /home/wang/wmsdk_bundle-3.1.16/bin/wmsdk/libs/libdrv.a(mdev_pm.o)
 .debug_aranges
                0x00000130      0x140 /home/wang/wmsdk_bundle-3.1.16/bin/wmsdk/libs/libdrv.a(mw300_clock.o)
 .debug_aranges
                0x00000270       0x20 /home/wang/wmsdk_bundle-3.1.16/bin/wmsdk/libs/libdrv.a(mw300_driver.o)
 .debug_aranges
                0x00000290      0x120 /home/wang/wmsdk_bundle-3.1.16/bin/wmsdk/libs/libdrv.a(mw300_pmu.o)
 .debug_aranges
                0x000003b0       0x28 /home/wang/wmsdk_bundle-3.1.16/bin/wmsdk/libs/libdrv.a(mw300_pinmux.o)
 .debug_aranges
                0x000003d8       0x80 /home/wang/wmsdk_bundle-3.1.16/bin/wmsdk/libs/libdrv.a(mw300_rtc.o)
 .debug_aranges
                0x00000458       0xf0 /home/wang/wmsdk_bundle-3.1.16/bin/wmsdk/libs/libdrv.a(mw300_gpt.o)
 .debug_aranges
                0x00000548       0xb0 /home/wang/wmsdk_bundle-3.1.16/bin/wmsdk/libs/libfreertos.a(queue.o)
 .debug_aranges
                0x000005f8      0x168 /home/wang/wmsdk_bundle-3.1.16/bin/wmsdk/libs/libfreertos.a(tasks.o)
 .debug_aranges
                0x00000760       0x60 /home/wang/wmsdk_bundle-3.1.16/bin/wmsdk/libs/libfreertos.a(timers.o)
 .debug_aranges
                0x000007c0       0x68 /home/wang/wmsdk_bundle-3.1.16/bin/wmsdk/libs/libfreertos.a(port.o)
 .debug_aranges
                0x00000828       0x68 /home/wang/wmsdk_bundle-3.1.16/bin/wmsdk/libs/libfreertos.a(heap_4.o)
 .debug_aranges
                0x00000890       0x40 /home/wang/wmsdk_bundle-3.1.16/bin/wmsdk/libs/libfreertos.a(list.o)
 .debug_aranges
                0x000008d0       0x30 /home/wang/wmsdk_bundle-3.1.16/bin/wmsdk/libs/libmdev.a(mdev.o)
 .debug_aranges
                0x00000900      0x118 /home/wang/wmsdk_bundle-3.1.16/bin/wmsdk/libs/libos.a(os.o)
 .debug_aranges
                0x00000a18       0xc8 /home/wang/wmsdk_bundle-3.1.16/bin/wmsdk/libs/libpwrmgr.a(pwrmgr.o)
 .debug_aranges
                0x00000ae0       0x28 /home/wang/wmsdk_bundle-3.1.16/bin/wmsdk/libs/libutil.a(boot_flags.o)
 .debug_aranges
                0x00000b08       0x28 /home/wang/wmsdk_bundle-3.1.16/bin/wmsdk/libs/libutil.a(critical_error.o)
 .debug_aranges
                0x00000b30       0x68 /home/wang/wmsdk_bundle-3.1.16/bin/wmsdk/libs/libwmstdio.a(wmstdio.o)
 .debug_aranges
                0x00000b98       0x48 /home/wang/wmsdk_bundle-3.1.16/bin/wmsdk/libs/libwmstdio.a(console.o)
 .debug_aranges
                0x00000be0       0x30 obj/main.o
 .debug_aranges
                0x00000c10      0x110 obj/board.o
 .debug_aranges
                0x00000d20       0x30 obj/audio_read_write.o
 .debug_aranges
                0x00000d50       0x48 obj/save_file_addr.o
 .debug_aranges
                0x00000d98       0x20 /home/wang/wmsdk_bundle-3.1.16/bin/wmsdk/libs/libc.a(memcmp.o)
 .debug_aranges
                0x00000db8       0x20 /home/wang/wmsdk_bundle-3.1.16/bin/wmsdk/libs/libc.a(snprintf.o)
 .debug_aranges
                0x00000dd8       0x20 /home/wang/wmsdk_bundle-3.1.16/bin/wmsdk/libs/libc.a(vsnprintf.o)
 .debug_aranges
                0x00000df8       0x20 /home/wang/wmsdk_bundle-3.1.16/bin/wmsdk/libs/libc.a(strcmp.o)
 .debug_aranges
                0x00000e18       0x20 /home/wang/wmsdk_bundle-3.1.16/bin/wmsdk/libs/libc.a(strncpy.o)
 .debug_aranges
                0x00000e38       0x20 /home/wang/wmsdk_bundle-3.1.16/bin/wmsdk/libs/libc.a(strlen.o)
 .debug_aranges
                0x00000e58      0x110 /home/wang/wmsdk_bundle-3.1.16/bin/wmsdk/libs/libdrv.a(mw300_uart.o)
 .debug_aranges
                0x00000f68      0x120 /home/wang/wmsdk_bundle-3.1.16/bin/wmsdk/libs/libdrv.a(mdev_uart.o)
 .debug_aranges
                0x00001088       0x78 /home/wang/wmsdk_bundle-3.1.16/bin/wmsdk/libs/libdrv.a(mdev_dma.o)
 .debug_aranges
                0x00001100       0x68 /home/wang/wmsdk_bundle-3.1.16/bin/wmsdk/libs/libdrv.a(mw300_dma.o)
 .debug_aranges
                0x00001168       0x58 /home/wang/wmsdk_bundle-3.1.16/bin/wmsdk/libs/libutil.a(flash.o)
 .debug_aranges
                0x000011c0       0x98 /home/wang/wmsdk_bundle-3.1.16/bin/wmsdk/libs/libdrv.a(mdev_iflash.o)
 .debug_aranges
                0x00001258       0xf0 /home/wang/wmsdk_bundle-3.1.16/bin/wmsdk/libs/libdrv.a(mw300_flash.o)
 .debug_aranges
                0x00001348       0xe8 /home/wang/wmsdk_bundle-3.1.16/bin/wmsdk/libs/libdrv.a(mw300_qspi.o)

.debug_ranges   0x00000000     0x17b8
 .debug_ranges  0x00000000       0x48 /home/wang/wmsdk_bundle-3.1.16/bin/wmsdk/libs/libdrv.a(mdev_startup.o)
 .debug_ranges  0x00000048      0x1a0 /home/wang/wmsdk_bundle-3.1.16/bin/wmsdk/libs/libdrv.a(mdev_pm.o)
 .debug_ranges  0x000001e8      0x130 /home/wang/wmsdk_bundle-3.1.16/bin/wmsdk/libs/libdrv.a(mw300_clock.o)
 .debug_ranges  0x00000318       0x10 /home/wang/wmsdk_bundle-3.1.16/bin/wmsdk/libs/libdrv.a(mw300_driver.o)
 .debug_ranges  0x00000328      0x110 /home/wang/wmsdk_bundle-3.1.16/bin/wmsdk/libs/libdrv.a(mw300_pmu.o)
 .debug_ranges  0x00000438       0x18 /home/wang/wmsdk_bundle-3.1.16/bin/wmsdk/libs/libdrv.a(mw300_pinmux.o)
 .debug_ranges  0x00000450       0x70 /home/wang/wmsdk_bundle-3.1.16/bin/wmsdk/libs/libdrv.a(mw300_rtc.o)
 .debug_ranges  0x000004c0       0xf8 /home/wang/wmsdk_bundle-3.1.16/bin/wmsdk/libs/libdrv.a(mw300_gpt.o)
 .debug_ranges  0x000005b8       0xa0 /home/wang/wmsdk_bundle-3.1.16/bin/wmsdk/libs/libfreertos.a(queue.o)
 .debug_ranges  0x00000658      0x3a8 /home/wang/wmsdk_bundle-3.1.16/bin/wmsdk/libs/libfreertos.a(tasks.o)
 .debug_ranges  0x00000a00       0xd8 /home/wang/wmsdk_bundle-3.1.16/bin/wmsdk/libs/libfreertos.a(timers.o)
 .debug_ranges  0x00000ad8       0x78 /home/wang/wmsdk_bundle-3.1.16/bin/wmsdk/libs/libfreertos.a(port.o)
 .debug_ranges  0x00000b50       0x90 /home/wang/wmsdk_bundle-3.1.16/bin/wmsdk/libs/libfreertos.a(heap_4.o)
 .debug_ranges  0x00000be0       0x30 /home/wang/wmsdk_bundle-3.1.16/bin/wmsdk/libs/libfreertos.a(list.o)
 .debug_ranges  0x00000c10       0x20 /home/wang/wmsdk_bundle-3.1.16/bin/wmsdk/libs/libmdev.a(mdev.o)
 .debug_ranges  0x00000c30      0x120 /home/wang/wmsdk_bundle-3.1.16/bin/wmsdk/libs/libos.a(os.o)
 .debug_ranges  0x00000d50       0xe8 /home/wang/wmsdk_bundle-3.1.16/bin/wmsdk/libs/libpwrmgr.a(pwrmgr.o)
 .debug_ranges  0x00000e38       0x18 /home/wang/wmsdk_bundle-3.1.16/bin/wmsdk/libs/libutil.a(boot_flags.o)
 .debug_ranges  0x00000e50       0x18 /home/wang/wmsdk_bundle-3.1.16/bin/wmsdk/libs/libutil.a(critical_error.o)
 .debug_ranges  0x00000e68       0x58 /home/wang/wmsdk_bundle-3.1.16/bin/wmsdk/libs/libwmstdio.a(wmstdio.o)
 .debug_ranges  0x00000ec0       0x38 /home/wang/wmsdk_bundle-3.1.16/bin/wmsdk/libs/libwmstdio.a(console.o)
 .debug_ranges  0x00000ef8       0x20 obj/main.o
 .debug_ranges  0x00000f18      0x100 obj/board.o
 .debug_ranges  0x00001018       0x20 obj/audio_read_write.o
 .debug_ranges  0x00001038       0x38 obj/save_file_addr.o
 .debug_ranges  0x00001070       0x10 /home/wang/wmsdk_bundle-3.1.16/bin/wmsdk/libs/libc.a(memcmp.o)
 .debug_ranges  0x00001080       0x10 /home/wang/wmsdk_bundle-3.1.16/bin/wmsdk/libs/libc.a(snprintf.o)
 .debug_ranges  0x00001090       0x48 /home/wang/wmsdk_bundle-3.1.16/bin/wmsdk/libs/libc.a(vsnprintf.o)
 .debug_ranges  0x000010d8       0x10 /home/wang/wmsdk_bundle-3.1.16/bin/wmsdk/libs/libc.a(strcmp.o)
 .debug_ranges  0x000010e8       0x10 /home/wang/wmsdk_bundle-3.1.16/bin/wmsdk/libs/libc.a(strncpy.o)
 .debug_ranges  0x000010f8       0x10 /home/wang/wmsdk_bundle-3.1.16/bin/wmsdk/libs/libc.a(strlen.o)
 .debug_ranges  0x00001108      0x118 /home/wang/wmsdk_bundle-3.1.16/bin/wmsdk/libs/libdrv.a(mw300_uart.o)
 .debug_ranges  0x00001220      0x1e8 /home/wang/wmsdk_bundle-3.1.16/bin/wmsdk/libs/libdrv.a(mdev_uart.o)
 .debug_ranges  0x00001408       0xd0 /home/wang/wmsdk_bundle-3.1.16/bin/wmsdk/libs/libdrv.a(mdev_dma.o)
 .debug_ranges  0x000014d8       0x58 /home/wang/wmsdk_bundle-3.1.16/bin/wmsdk/libs/libdrv.a(mw300_dma.o)
 .debug_ranges  0x00001530       0x48 /home/wang/wmsdk_bundle-3.1.16/bin/wmsdk/libs/libutil.a(flash.o)
 .debug_ranges  0x00001578       0x88 /home/wang/wmsdk_bundle-3.1.16/bin/wmsdk/libs/libdrv.a(mdev_iflash.o)
 .debug_ranges  0x00001600       0xe0 /home/wang/wmsdk_bundle-3.1.16/bin/wmsdk/libs/libdrv.a(mw300_flash.o)
 .debug_ranges  0x000016e0       0xd8 /home/wang/wmsdk_bundle-3.1.16/bin/wmsdk/libs/libdrv.a(mw300_qspi.o)

.debug_line     0x00000000     0x7f4a
 .debug_line    0x00000000      0x3c8 /home/wang/wmsdk_bundle-3.1.16/bin/wmsdk/libs/libdrv.a(mdev_startup.o)
 .debug_line    0x000003c8      0x73c /home/wang/wmsdk_bundle-3.1.16/bin/wmsdk/libs/libdrv.a(mdev_pm.o)
 .debug_line    0x00000b04      0x5ab /home/wang/wmsdk_bundle-3.1.16/bin/wmsdk/libs/libdrv.a(mw300_clock.o)
 .debug_line    0x000010af       0xe8 /home/wang/wmsdk_bundle-3.1.16/bin/wmsdk/libs/libdrv.a(mw300_driver.o)
 .debug_line    0x00001197      0x438 /home/wang/wmsdk_bundle-3.1.16/bin/wmsdk/libs/libdrv.a(mw300_pmu.o)
 .debug_line    0x000015cf      0x17c /home/wang/wmsdk_bundle-3.1.16/bin/wmsdk/libs/libdrv.a(mw300_pinmux.o)
 .debug_line    0x0000174b      0x23f /home/wang/wmsdk_bundle-3.1.16/bin/wmsdk/libs/libdrv.a(mw300_rtc.o)
 .debug_line    0x0000198a      0x3c6 /home/wang/wmsdk_bundle-3.1.16/bin/wmsdk/libs/libdrv.a(mw300_gpt.o)
 .debug_line    0x00001d50      0x3fe /home/wang/wmsdk_bundle-3.1.16/bin/wmsdk/libs/libfreertos.a(queue.o)
 .debug_line    0x0000214e      0x8da /home/wang/wmsdk_bundle-3.1.16/bin/wmsdk/libs/libfreertos.a(tasks.o)
 .debug_line    0x00002a28      0x296 /home/wang/wmsdk_bundle-3.1.16/bin/wmsdk/libs/libfreertos.a(timers.o)
 .debug_line    0x00002cbe      0x155 /home/wang/wmsdk_bundle-3.1.16/bin/wmsdk/libs/libfreertos.a(port.o)
 .debug_line    0x00002e13      0x2eb /home/wang/wmsdk_bundle-3.1.16/bin/wmsdk/libs/libfreertos.a(heap_4.o)
 .debug_line    0x000030fe      0x10d /home/wang/wmsdk_bundle-3.1.16/bin/wmsdk/libs/libfreertos.a(list.o)
 .debug_line    0x0000320b      0x265 /home/wang/wmsdk_bundle-3.1.16/bin/wmsdk/libs/libmdev.a(mdev.o)
 .debug_line    0x00003470      0x6cc /home/wang/wmsdk_bundle-3.1.16/bin/wmsdk/libs/libos.a(os.o)
 .debug_line    0x00003b3c      0x4f8 /home/wang/wmsdk_bundle-3.1.16/bin/wmsdk/libs/libpwrmgr.a(pwrmgr.o)
 .debug_line    0x00004034      0x1f1 /home/wang/wmsdk_bundle-3.1.16/bin/wmsdk/libs/libutil.a(boot_flags.o)
 .debug_line    0x00004225      0x137 /home/wang/wmsdk_bundle-3.1.16/bin/wmsdk/libs/libutil.a(critical_error.o)
 .debug_line    0x0000435c      0x3e0 /home/wang/wmsdk_bundle-3.1.16/bin/wmsdk/libs/libwmstdio.a(wmstdio.o)
 .debug_line    0x0000473c      0x1e5 /home/wang/wmsdk_bundle-3.1.16/bin/wmsdk/libs/libwmstdio.a(console.o)
 .debug_line    0x00004921      0x26c obj/main.o
 .debug_line    0x00004b8d      0x3e9 obj/board.o
 .debug_line    0x00004f76      0x242 obj/audio_read_write.o
 .debug_line    0x000051b8      0x2b0 obj/save_file_addr.o
 .debug_line    0x00005468       0x7f /home/wang/wmsdk_bundle-3.1.16/bin/wmsdk/libs/libc.a(memcmp.o)
 .debug_line    0x000054e7       0xf1 /home/wang/wmsdk_bundle-3.1.16/bin/wmsdk/libs/libc.a(snprintf.o)
 .debug_line    0x000055d8      0x26b /home/wang/wmsdk_bundle-3.1.16/bin/wmsdk/libs/libc.a(vsnprintf.o)
 .debug_line    0x00005843       0x41 /home/wang/wmsdk_bundle-3.1.16/bin/wmsdk/libs/libc.a(strcmp.o)
 .debug_line    0x00005884       0x8e /home/wang/wmsdk_bundle-3.1.16/bin/wmsdk/libs/libc.a(strncpy.o)
 .debug_line    0x00005912       0x7b /home/wang/wmsdk_bundle-3.1.16/bin/wmsdk/libs/libc.a(strlen.o)
 .debug_line    0x0000598d      0x4fb /home/wang/wmsdk_bundle-3.1.16/bin/wmsdk/libs/libdrv.a(mw300_uart.o)
 .debug_line    0x00005e88      0x8b2 /home/wang/wmsdk_bundle-3.1.16/bin/wmsdk/libs/libdrv.a(mdev_uart.o)
 .debug_line    0x0000673a      0x4f0 /home/wang/wmsdk_bundle-3.1.16/bin/wmsdk/libs/libdrv.a(mdev_dma.o)
 .debug_line    0x00006c2a      0x22e /home/wang/wmsdk_bundle-3.1.16/bin/wmsdk/libs/libdrv.a(mw300_dma.o)
 .debug_line    0x00006e58      0x250 /home/wang/wmsdk_bundle-3.1.16/bin/wmsdk/libs/libutil.a(flash.o)
 .debug_line    0x000070a8      0x5c6 /home/wang/wmsdk_bundle-3.1.16/bin/wmsdk/libs/libdrv.a(mdev_iflash.o)
 .debug_line    0x0000766e      0x526 /home/wang/wmsdk_bundle-3.1.16/bin/wmsdk/libs/libdrv.a(mw300_flash.o)
 .debug_line    0x00007b94      0x3b6 /home/wang/wmsdk_bundle-3.1.16/bin/wmsdk/libs/libdrv.a(mw300_qspi.o)

.debug_str      0x00000000     0xce8f
 .debug_str     0x00000000     0x1e6b /home/wang/wmsdk_bundle-3.1.16/bin/wmsdk/libs/libdrv.a(mdev_startup.o)
                               0x1fd3 (size before relaxing)
 .debug_str     0x00001e6b     0x1230 /home/wang/wmsdk_bundle-3.1.16/bin/wmsdk/libs/libdrv.a(mdev_pm.o)
                               0x2c8d (size before relaxing)
 .debug_str     0x0000309b      0x52b /home/wang/wmsdk_bundle-3.1.16/bin/wmsdk/libs/libdrv.a(mw300_clock.o)
                               0x23a6 (size before relaxing)
 .debug_str     0x000035c6      0x2d6 /home/wang/wmsdk_bundle-3.1.16/bin/wmsdk/libs/libdrv.a(mw300_driver.o)
                                0x745 (size before relaxing)
 .debug_str     0x0000389c      0xab1 /home/wang/wmsdk_bundle-3.1.16/bin/wmsdk/libs/libdrv.a(mw300_pmu.o)
                               0x2b46 (size before relaxing)
 .debug_str     0x0000434d      0x1ca /home/wang/wmsdk_bundle-3.1.16/bin/wmsdk/libs/libdrv.a(mw300_pinmux.o)
                                0x4f4 (size before relaxing)
 .debug_str     0x00004517      0x39c /home/wang/wmsdk_bundle-3.1.16/bin/wmsdk/libs/libdrv.a(mw300_rtc.o)
                                0x89e (size before relaxing)
 .debug_str     0x000048b3      0xd35 /home/wang/wmsdk_bundle-3.1.16/bin/wmsdk/libs/libdrv.a(mw300_gpt.o)
                               0x13dc (size before relaxing)
 .debug_str     0x000055e8      0x681 /home/wang/wmsdk_bundle-3.1.16/bin/wmsdk/libs/libfreertos.a(queue.o)
                                0x757 (size before relaxing)
 .debug_str     0x00005c69      0x8bd /home/wang/wmsdk_bundle-3.1.16/bin/wmsdk/libs/libfreertos.a(tasks.o)
                                0xcf4 (size before relaxing)
 .debug_str     0x00006526      0x31f /home/wang/wmsdk_bundle-3.1.16/bin/wmsdk/libs/libfreertos.a(timers.o)
                                0x725 (size before relaxing)
 .debug_str     0x00006845       0xb4 /home/wang/wmsdk_bundle-3.1.16/bin/wmsdk/libs/libfreertos.a(port.o)
                                0x29b (size before relaxing)
 .debug_str     0x000068f9      0x309 /home/wang/wmsdk_bundle-3.1.16/bin/wmsdk/libs/libfreertos.a(heap_4.o)
                                0x4bf (size before relaxing)
 .debug_str     0x00006c02       0x44 /home/wang/wmsdk_bundle-3.1.16/bin/wmsdk/libs/libfreertos.a(list.o)
                                0x2a0 (size before relaxing)
 .debug_str     0x00006c46       0xd9 /home/wang/wmsdk_bundle-3.1.16/bin/wmsdk/libs/libmdev.a(mdev.o)
                                0x2d0 (size before relaxing)
 .debug_str     0x00006d1f      0x67d /home/wang/wmsdk_bundle-3.1.16/bin/wmsdk/libs/libos.a(os.o)
                                0xdd1 (size before relaxing)
 .debug_str     0x0000739c      0x23f /home/wang/wmsdk_bundle-3.1.16/bin/wmsdk/libs/libpwrmgr.a(pwrmgr.o)
                                0x864 (size before relaxing)
 .debug_str     0x000075db      0x384 /home/wang/wmsdk_bundle-3.1.16/bin/wmsdk/libs/libutil.a(boot_flags.o)
                                0x63a (size before relaxing)
 .debug_str     0x0000795f       0x24 /home/wang/wmsdk_bundle-3.1.16/bin/wmsdk/libs/libutil.a(critical_error.o)
                                0x249 (size before relaxing)
 .debug_str     0x00007983      0x200 /home/wang/wmsdk_bundle-3.1.16/bin/wmsdk/libs/libwmstdio.a(wmstdio.o)
                                0x6ce (size before relaxing)
 .debug_str     0x00007b83       0xbe /home/wang/wmsdk_bundle-3.1.16/bin/wmsdk/libs/libwmstdio.a(console.o)
                                0x36a (size before relaxing)
 .debug_str     0x00007c41      0x8b0 obj/main.o
                                0xa57 (size before relaxing)
 .debug_str     0x000084f1      0x26e obj/board.o
                                0x91c (size before relaxing)
 .debug_str     0x0000875f       0x40 obj/audio_read_write.o
                                0x917 (size before relaxing)
 .debug_str     0x0000879f       0x45 obj/save_file_addr.o
                                0xa2d (size before relaxing)
 .debug_str     0x000087e4       0x3b /home/wang/wmsdk_bundle-3.1.16/bin/wmsdk/libs/libc.a(memcmp.o)
                                0x120 (size before relaxing)
 .debug_str     0x0000881f        0x7 /home/wang/wmsdk_bundle-3.1.16/bin/wmsdk/libs/libc.a(snprintf.o)
                                0x159 (size before relaxing)
 .debug_str     0x00008826      0x177 /home/wang/wmsdk_bundle-3.1.16/bin/wmsdk/libs/libc.a(vsnprintf.o)
                                0x360 (size before relaxing)
 .debug_str     0x0000899d        0x9 /home/wang/wmsdk_bundle-3.1.16/bin/wmsdk/libs/libc.a(strcmp.o)
                                0x11e (size before relaxing)
 .debug_str     0x000089a6        0xa /home/wang/wmsdk_bundle-3.1.16/bin/wmsdk/libs/libc.a(strncpy.o)
                                0x120 (size before relaxing)
 .debug_str     0x000089b0        0x9 /home/wang/wmsdk_bundle-3.1.16/bin/wmsdk/libs/libc.a(strlen.o)
                                0x117 (size before relaxing)
 .debug_str     0x000089b9      0xa23 /home/wang/wmsdk_bundle-3.1.16/bin/wmsdk/libs/libdrv.a(mw300_uart.o)
                               0x10c1 (size before relaxing)
 .debug_str     0x000093dc      0xb51 /home/wang/wmsdk_bundle-3.1.16/bin/wmsdk/libs/libdrv.a(mdev_uart.o)
                               0x2075 (size before relaxing)
 .debug_str     0x00009f2d     0x1885 /home/wang/wmsdk_bundle-3.1.16/bin/wmsdk/libs/libdrv.a(mdev_dma.o)
                               0x29ae (size before relaxing)
 .debug_str     0x0000b7b2       0xb4 /home/wang/wmsdk_bundle-3.1.16/bin/wmsdk/libs/libdrv.a(mw300_dma.o)
                               0x2045 (size before relaxing)
 .debug_str     0x0000b866       0xa0 /home/wang/wmsdk_bundle-3.1.16/bin/wmsdk/libs/libutil.a(flash.o)
                                0x4f5 (size before relaxing)
 .debug_str     0x0000b906      0x655 /home/wang/wmsdk_bundle-3.1.16/bin/wmsdk/libs/libdrv.a(mdev_iflash.o)
                               0x14dc (size before relaxing)
 .debug_str     0x0000bf5b      0x8e6 /home/wang/wmsdk_bundle-3.1.16/bin/wmsdk/libs/libdrv.a(mw300_flash.o)
                               0x1356 (size before relaxing)
 .debug_str     0x0000c841      0x64e /home/wang/wmsdk_bundle-3.1.16/bin/wmsdk/libs/libdrv.a(mw300_qspi.o)
                               0x12f9 (size before relaxing)

.comment        0x00000000       0x70
 .comment       0x00000000       0x70 /home/wang/wmsdk_bundle-3.1.16/bin/wmsdk/libs/libdrv.a(mdev_startup.o)
                                 0x71 (size before relaxing)
 .comment       0x00000000       0x71 /home/wang/wmsdk_bundle-3.1.16/bin/wmsdk/libs/libdrv.a(mdev_pm.o)
 .comment       0x00000000       0x71 /home/wang/wmsdk_bundle-3.1.16/bin/wmsdk/libs/libdrv.a(mw300_clock.o)
 .comment       0x00000000       0x71 /home/wang/wmsdk_bundle-3.1.16/bin/wmsdk/libs/libdrv.a(mw300_driver.o)
 .comment       0x00000000       0x71 /home/wang/wmsdk_bundle-3.1.16/bin/wmsdk/libs/libdrv.a(mw300_pmu.o)
 .comment       0x00000000       0x71 /home/wang/wmsdk_bundle-3.1.16/bin/wmsdk/libs/libdrv.a(mw300_pinmux.o)
 .comment       0x00000000       0x71 /home/wang/wmsdk_bundle-3.1.16/bin/wmsdk/libs/libdrv.a(mw300_rtc.o)
 .comment       0x00000000       0x71 /home/wang/wmsdk_bundle-3.1.16/bin/wmsdk/libs/libdrv.a(mw300_gpt.o)
 .comment       0x00000000       0x71 /home/wang/wmsdk_bundle-3.1.16/bin/wmsdk/libs/libfreertos.a(queue.o)
 .comment       0x00000000       0x71 /home/wang/wmsdk_bundle-3.1.16/bin/wmsdk/libs/libfreertos.a(tasks.o)
 .comment       0x00000000       0x71 /home/wang/wmsdk_bundle-3.1.16/bin/wmsdk/libs/libfreertos.a(timers.o)
 .comment       0x00000000       0x71 /home/wang/wmsdk_bundle-3.1.16/bin/wmsdk/libs/libfreertos.a(port.o)
 .comment       0x00000000       0x71 /home/wang/wmsdk_bundle-3.1.16/bin/wmsdk/libs/libfreertos.a(heap_4.o)
 .comment       0x00000000       0x71 /home/wang/wmsdk_bundle-3.1.16/bin/wmsdk/libs/libfreertos.a(list.o)
 .comment       0x00000000       0x71 /home/wang/wmsdk_bundle-3.1.16/bin/wmsdk/libs/libmdev.a(mdev.o)
 .comment       0x00000000       0x71 /home/wang/wmsdk_bundle-3.1.16/bin/wmsdk/libs/libos.a(os.o)
 .comment       0x00000000       0x71 /home/wang/wmsdk_bundle-3.1.16/bin/wmsdk/libs/libpwrmgr.a(pwrmgr.o)
 .comment       0x00000000       0x71 /home/wang/wmsdk_bundle-3.1.16/bin/wmsdk/libs/libutil.a(boot_flags.o)
 .comment       0x00000000       0x71 /home/wang/wmsdk_bundle-3.1.16/bin/wmsdk/libs/libutil.a(critical_error.o)
 .comment       0x00000000       0x71 /home/wang/wmsdk_bundle-3.1.16/bin/wmsdk/libs/libwmstdio.a(wmstdio.o)
 .comment       0x00000000       0x71 /home/wang/wmsdk_bundle-3.1.16/bin/wmsdk/libs/libwmstdio.a(console.o)
 .comment       0x00000000       0x71 obj/main.o
 .comment       0x00000000       0x71 obj/board.o
 .comment       0x00000000       0x71 obj/audio_read_write.o
 .comment       0x00000000       0x71 obj/save_file_addr.o
 .comment       0x00000000       0x71 /home/wang/wmsdk_bundle-3.1.16/bin/wmsdk/libs/libc.a(memcmp.o)
 .comment       0x00000000       0x71 /home/wang/wmsdk_bundle-3.1.16/bin/wmsdk/libs/libc.a(snprintf.o)
 .comment       0x00000000       0x71 /home/wang/wmsdk_bundle-3.1.16/bin/wmsdk/libs/libc.a(vsnprintf.o)
 .comment       0x00000000       0x71 /home/wang/wmsdk_bundle-3.1.16/bin/wmsdk/libs/libc.a(strcmp.o)
 .comment       0x00000000       0x71 /home/wang/wmsdk_bundle-3.1.16/bin/wmsdk/libs/libc.a(strncpy.o)
 .comment       0x00000000       0x71 /home/wang/wmsdk_bundle-3.1.16/bin/wmsdk/libs/libc.a(strlen.o)
 .comment       0x00000000       0x71 /home/wang/wmsdk_bundle-3.1.16/bin/wmsdk/libs/libdrv.a(mw300_uart.o)
 .comment       0x00000000       0x71 /home/wang/wmsdk_bundle-3.1.16/bin/wmsdk/libs/libdrv.a(mdev_uart.o)
 .comment       0x00000000       0x71 /home/wang/wmsdk_bundle-3.1.16/bin/wmsdk/libs/libdrv.a(mdev_dma.o)
 .comment       0x00000000       0x71 /home/wang/wmsdk_bundle-3.1.16/bin/wmsdk/libs/libdrv.a(mw300_dma.o)
 .comment       0x00000000       0x71 /home/wang/wmsdk_bundle-3.1.16/bin/wmsdk/libs/libutil.a(flash.o)
 .comment       0x00000000       0x71 /home/wang/wmsdk_bundle-3.1.16/bin/wmsdk/libs/libdrv.a(mdev_iflash.o)
 .comment       0x00000000       0x71 /home/wang/wmsdk_bundle-3.1.16/bin/wmsdk/libs/libdrv.a(mw300_flash.o)
 .comment       0x00000000       0x71 /home/wang/wmsdk_bundle-3.1.16/bin/wmsdk/libs/libdrv.a(mw300_qspi.o)

.ARM.attributes
                0x00000000       0x31
 .ARM.attributes
                0x00000000       0x33 /home/wang/wmsdk_bundle-3.1.16/bin/wmsdk/libs/libdrv.a(mdev_startup.o)
 .ARM.attributes
                0x00000033       0x33 /home/wang/wmsdk_bundle-3.1.16/bin/wmsdk/libs/libdrv.a(mdev_pm.o)
 .ARM.attributes
                0x00000066       0x33 /home/wang/wmsdk_bundle-3.1.16/bin/wmsdk/libs/libdrv.a(mw300_clock.o)
 .ARM.attributes
                0x00000099       0x33 /home/wang/wmsdk_bundle-3.1.16/bin/wmsdk/libs/libdrv.a(mw300_driver.o)
 .ARM.attributes
                0x000000cc       0x33 /home/wang/wmsdk_bundle-3.1.16/bin/wmsdk/libs/libdrv.a(mw300_pmu.o)
 .ARM.attributes
                0x000000ff       0x33 /home/wang/wmsdk_bundle-3.1.16/bin/wmsdk/libs/libdrv.a(mw300_pinmux.o)
 .ARM.attributes
                0x00000132       0x33 /home/wang/wmsdk_bundle-3.1.16/bin/wmsdk/libs/libdrv.a(mw300_rtc.o)
 .ARM.attributes
                0x00000165       0x33 /home/wang/wmsdk_bundle-3.1.16/bin/wmsdk/libs/libdrv.a(mw300_gpt.o)
 .ARM.attributes
                0x00000198       0x33 /home/wang/wmsdk_bundle-3.1.16/bin/wmsdk/libs/libfreertos.a(queue.o)
 .ARM.attributes
                0x000001cb       0x33 /home/wang/wmsdk_bundle-3.1.16/bin/wmsdk/libs/libfreertos.a(tasks.o)
 .ARM.attributes
                0x000001fe       0x33 /home/wang/wmsdk_bundle-3.1.16/bin/wmsdk/libs/libfreertos.a(timers.o)
 .ARM.attributes
                0x00000231       0x33 /home/wang/wmsdk_bundle-3.1.16/bin/wmsdk/libs/libfreertos.a(port.o)
 .ARM.attributes
                0x00000264       0x33 /home/wang/wmsdk_bundle-3.1.16/bin/wmsdk/libs/libfreertos.a(heap_4.o)
 .ARM.attributes
                0x00000297       0x33 /home/wang/wmsdk_bundle-3.1.16/bin/wmsdk/libs/libfreertos.a(list.o)
 .ARM.attributes
                0x000002ca       0x33 /home/wang/wmsdk_bundle-3.1.16/bin/wmsdk/libs/libmdev.a(mdev.o)
 .ARM.attributes
                0x000002fd       0x33 /home/wang/wmsdk_bundle-3.1.16/bin/wmsdk/libs/libos.a(os.o)
 .ARM.attributes
                0x00000330       0x33 /home/wang/wmsdk_bundle-3.1.16/bin/wmsdk/libs/libpwrmgr.a(pwrmgr.o)
 .ARM.attributes
                0x00000363       0x33 /home/wang/wmsdk_bundle-3.1.16/bin/wmsdk/libs/libutil.a(boot_flags.o)
 .ARM.attributes
                0x00000396       0x33 /home/wang/wmsdk_bundle-3.1.16/bin/wmsdk/libs/libutil.a(critical_error.o)
 .ARM.attributes
                0x000003c9       0x33 /home/wang/wmsdk_bundle-3.1.16/bin/wmsdk/libs/libwmstdio.a(wmstdio.o)
 .ARM.attributes
                0x000003fc       0x33 /home/wang/wmsdk_bundle-3.1.16/bin/wmsdk/libs/libwmstdio.a(console.o)
 .ARM.attributes
                0x0000042f       0x33 obj/main.o
 .ARM.attributes
                0x00000462       0x33 obj/board.o
 .ARM.attributes
                0x00000495       0x33 obj/audio_read_write.o
 .ARM.attributes
                0x000004c8       0x33 obj/save_file_addr.o
 .ARM.attributes
                0x000004fb       0x33 /home/wang/wmsdk_bundle-3.1.16/bin/wmsdk/libs/libc.a(memcmp.o)
 .ARM.attributes
                0x0000052e       0x33 /home/wang/wmsdk_bundle-3.1.16/bin/wmsdk/libs/libc.a(snprintf.o)
 .ARM.attributes
                0x00000561       0x33 /home/wang/wmsdk_bundle-3.1.16/bin/wmsdk/libs/libc.a(vsnprintf.o)
 .ARM.attributes
                0x00000594       0x33 /home/wang/wmsdk_bundle-3.1.16/bin/wmsdk/libs/libc.a(strcmp.o)
 .ARM.attributes
                0x000005c7       0x33 /home/wang/wmsdk_bundle-3.1.16/bin/wmsdk/libs/libc.a(strncpy.o)
 .ARM.attributes
                0x000005fa       0x33 /home/wang/wmsdk_bundle-3.1.16/bin/wmsdk/libs/libc.a(strlen.o)
 .ARM.attributes
                0x0000062d       0x33 /home/wang/wmsdk_bundle-3.1.16/bin/wmsdk/libs/libdrv.a(mw300_uart.o)
 .ARM.attributes
                0x00000660       0x33 /home/wang/wmsdk_bundle-3.1.16/bin/wmsdk/libs/libdrv.a(mdev_uart.o)
 .ARM.attributes
                0x00000693       0x33 /home/wang/wmsdk_bundle-3.1.16/bin/wmsdk/libs/libdrv.a(mdev_dma.o)
 .ARM.attributes
                0x000006c6       0x33 /home/wang/wmsdk_bundle-3.1.16/bin/wmsdk/libs/libdrv.a(mw300_dma.o)
 .ARM.attributes
                0x000006f9       0x33 /home/wang/wmsdk_bundle-3.1.16/bin/wmsdk/libs/libutil.a(flash.o)
 .ARM.attributes
                0x0000072c       0x33 /home/wang/wmsdk_bundle-3.1.16/bin/wmsdk/libs/libdrv.a(mdev_iflash.o)
 .ARM.attributes
                0x0000075f       0x33 /home/wang/wmsdk_bundle-3.1.16/bin/wmsdk/libs/libdrv.a(mw300_flash.o)
 .ARM.attributes
                0x00000792       0x33 /home/wang/wmsdk_bundle-3.1.16/bin/wmsdk/libs/libdrv.a(mw300_qspi.o)
 .ARM.attributes
                0x000007c5       0x1e /home/wang/work/gcc-arm-none-eabi-4_8-2014q2/bin/../lib/gcc/arm-none-eabi/4.8.4/armv7e-m/libgcc.a(_arm_addsubdf3.o)
 .ARM.attributes
                0x000007e3       0x1e /home/wang/work/gcc-arm-none-eabi-4_8-2014q2/bin/../lib/gcc/arm-none-eabi/4.8.4/armv7e-m/libgcc.a(_arm_muldivdf3.o)
 .ARM.attributes
                0x00000801       0x1e /home/wang/work/gcc-arm-none-eabi-4_8-2014q2/bin/../lib/gcc/arm-none-eabi/4.8.4/armv7e-m/libgcc.a(_arm_fixdfsi.o)
 .ARM.attributes
                0x0000081f       0x1e /home/wang/work/gcc-arm-none-eabi-4_8-2014q2/bin/../lib/gcc/arm-none-eabi/4.8.4/armv7e-m/libgcc.a(_aeabi_uldivmod.o)
 .ARM.attributes
                0x0000083d       0x2e /home/wang/work/gcc-arm-none-eabi-4_8-2014q2/bin/../lib/gcc/arm-none-eabi/4.8.4/armv7e-m/libgcc.a(bpabi.o)
 .ARM.attributes
                0x0000086b       0x1e /home/wang/work/gcc-arm-none-eabi-4_8-2014q2/bin/../lib/gcc/arm-none-eabi/4.8.4/armv7e-m/libgcc.a(_dvmd_tls.o)
 .ARM.attributes
                0x00000889       0x2e /home/wang/work/gcc-arm-none-eabi-4_8-2014q2/bin/../lib/gcc/arm-none-eabi/4.8.4/armv7e-m/libgcc.a(_divdi3.o)
 .ARM.attributes
                0x000008b7       0x2e /home/wang/work/gcc-arm-none-eabi-4_8-2014q2/bin/../lib/gcc/arm-none-eabi/4.8.4/armv7e-m/libgcc.a(_udivdi3.o)
 .ARM.attributes
                0x000008e5       0x1c /home/wang/work/gcc-arm-none-eabi-4_8-2014q2/bin/../lib/gcc/arm-none-eabi/4.8.4/../../../../arm-none-eabi/lib/armv7e-m/libg.a(lib_a-memcpy.o)
 .ARM.attributes
                0x00000901       0x2e /home/wang/work/gcc-arm-none-eabi-4_8-2014q2/bin/../lib/gcc/arm-none-eabi/4.8.4/../../../../arm-none-eabi/lib/armv7e-m/libg.a(lib_a-memset.o)

.debug_frame    0x00000000     0x30f0
 .debug_frame   0x00000000       0xd8 /home/wang/wmsdk_bundle-3.1.16/bin/wmsdk/libs/libdrv.a(mdev_startup.o)
 .debug_frame   0x000000d8      0x218 /home/wang/wmsdk_bundle-3.1.16/bin/wmsdk/libs/libdrv.a(mdev_pm.o)
 .debug_frame   0x000002f0      0x27c /home/wang/wmsdk_bundle-3.1.16/bin/wmsdk/libs/libdrv.a(mw300_clock.o)
 .debug_frame   0x0000056c       0x20 /home/wang/wmsdk_bundle-3.1.16/bin/wmsdk/libs/libdrv.a(mw300_driver.o)
 .debug_frame   0x0000058c      0x244 /home/wang/wmsdk_bundle-3.1.16/bin/wmsdk/libs/libdrv.a(mw300_pmu.o)
 .debug_frame   0x000007d0       0x30 /home/wang/wmsdk_bundle-3.1.16/bin/wmsdk/libs/libdrv.a(mw300_pinmux.o)
 .debug_frame   0x00000800       0xec /home/wang/wmsdk_bundle-3.1.16/bin/wmsdk/libs/libdrv.a(mw300_rtc.o)
 .debug_frame   0x000008ec      0x200 /home/wang/wmsdk_bundle-3.1.16/bin/wmsdk/libs/libdrv.a(mw300_gpt.o)
 .debug_frame   0x00000aec      0x1f8 /home/wang/wmsdk_bundle-3.1.16/bin/wmsdk/libs/libfreertos.a(queue.o)
 .debug_frame   0x00000ce4      0x44c /home/wang/wmsdk_bundle-3.1.16/bin/wmsdk/libs/libfreertos.a(tasks.o)
 .debug_frame   0x00001130      0x110 /home/wang/wmsdk_bundle-3.1.16/bin/wmsdk/libs/libfreertos.a(timers.o)
 .debug_frame   0x00001240       0xcc /home/wang/wmsdk_bundle-3.1.16/bin/wmsdk/libs/libfreertos.a(port.o)
 .debug_frame   0x0000130c      0x104 /home/wang/wmsdk_bundle-3.1.16/bin/wmsdk/libs/libfreertos.a(heap_4.o)
 .debug_frame   0x00001410       0x70 /home/wang/wmsdk_bundle-3.1.16/bin/wmsdk/libs/libfreertos.a(list.o)
 .debug_frame   0x00001480       0x68 /home/wang/wmsdk_bundle-3.1.16/bin/wmsdk/libs/libmdev.a(mdev.o)
 .debug_frame   0x000014e8      0x338 /home/wang/wmsdk_bundle-3.1.16/bin/wmsdk/libs/libos.a(os.o)
 .debug_frame   0x00001820      0x224 /home/wang/wmsdk_bundle-3.1.16/bin/wmsdk/libs/libpwrmgr.a(pwrmgr.o)
 .debug_frame   0x00001a44       0x44 /home/wang/wmsdk_bundle-3.1.16/bin/wmsdk/libs/libutil.a(boot_flags.o)
 .debug_frame   0x00001a88       0x38 /home/wang/wmsdk_bundle-3.1.16/bin/wmsdk/libs/libutil.a(critical_error.o)
 .debug_frame   0x00001ac0      0x134 /home/wang/wmsdk_bundle-3.1.16/bin/wmsdk/libs/libwmstdio.a(wmstdio.o)
 .debug_frame   0x00001bf4       0x94 /home/wang/wmsdk_bundle-3.1.16/bin/wmsdk/libs/libwmstdio.a(console.o)
 .debug_frame   0x00001c88       0x64 obj/main.o
 .debug_frame   0x00001cec      0x248 obj/board.o
 .debug_frame   0x00001f34       0x68 obj/audio_read_write.o
 .debug_frame   0x00001f9c       0xb8 obj/save_file_addr.o
 .debug_frame   0x00002054       0x2c /home/wang/wmsdk_bundle-3.1.16/bin/wmsdk/libs/libc.a(memcmp.o)
 .debug_frame   0x00002080       0x34 /home/wang/wmsdk_bundle-3.1.16/bin/wmsdk/libs/libc.a(snprintf.o)
 .debug_frame   0x000020b4       0x3c /home/wang/wmsdk_bundle-3.1.16/bin/wmsdk/libs/libc.a(vsnprintf.o)
 .debug_frame   0x000020f0       0x28 /home/wang/wmsdk_bundle-3.1.16/bin/wmsdk/libs/libc.a(strcmp.o)
 .debug_frame   0x00002118       0x28 /home/wang/wmsdk_bundle-3.1.16/bin/wmsdk/libs/libc.a(strncpy.o)
 .debug_frame   0x00002140       0x20 /home/wang/wmsdk_bundle-3.1.16/bin/wmsdk/libs/libc.a(strlen.o)
 .debug_frame   0x00002160      0x240 /home/wang/wmsdk_bundle-3.1.16/bin/wmsdk/libs/libdrv.a(mw300_uart.o)
 .debug_frame   0x000023a0      0x348 /home/wang/wmsdk_bundle-3.1.16/bin/wmsdk/libs/libdrv.a(mdev_uart.o)
 .debug_frame   0x000026e8      0x168 /home/wang/wmsdk_bundle-3.1.16/bin/wmsdk/libs/libdrv.a(mdev_dma.o)
 .debug_frame   0x00002850       0xbc /home/wang/wmsdk_bundle-3.1.16/bin/wmsdk/libs/libdrv.a(mw300_dma.o)
 .debug_frame   0x0000290c       0xa0 /home/wang/wmsdk_bundle-3.1.16/bin/wmsdk/libs/libutil.a(flash.o)
 .debug_frame   0x000029ac      0x194 /home/wang/wmsdk_bundle-3.1.16/bin/wmsdk/libs/libdrv.a(mdev_iflash.o)
 .debug_frame   0x00002b40      0x2f8 /home/wang/wmsdk_bundle-3.1.16/bin/wmsdk/libs/libdrv.a(mw300_flash.o)
 .debug_frame   0x00002e38      0x1d4 /home/wang/wmsdk_bundle-3.1.16/bin/wmsdk/libs/libdrv.a(mw300_qspi.o)
 .debug_frame   0x0000300c       0x50 /home/wang/work/gcc-arm-none-eabi-4_8-2014q2/bin/../lib/gcc/arm-none-eabi/4.8.4/armv7e-m/libgcc.a(bpabi.o)
 .debug_frame   0x0000305c       0x34 /home/wang/work/gcc-arm-none-eabi-4_8-2014q2/bin/../lib/gcc/arm-none-eabi/4.8.4/armv7e-m/libgcc.a(_divdi3.o)
 .debug_frame   0x00003090       0x34 /home/wang/work/gcc-arm-none-eabi-4_8-2014q2/bin/../lib/gcc/arm-none-eabi/4.8.4/armv7e-m/libgcc.a(_udivdi3.o)
 .debug_frame   0x000030c4       0x2c /home/wang/work/gcc-arm-none-eabi-4_8-2014q2/bin/../lib/gcc/arm-none-eabi/4.8.4/../../../../arm-none-eabi/lib/armv7e-m/libg.a(lib_a-memset.o)

Cross Reference Table

Symbol                                            File
ACOMPWKUP_IRQHandler                              /home/wang/wmsdk_bundle-3.1.16/bin/wmsdk/libs/libdrv.a(mdev_startup.o)
ACOMP_IRQHandler                                  /home/wang/wmsdk_bundle-3.1.16/bin/wmsdk/libs/libdrv.a(mdev_startup.o)
ADC0_IRQHandler                                   /home/wang/wmsdk_bundle-3.1.16/bin/wmsdk/libs/libdrv.a(mdev_startup.o)
AES_IRQHandler                                    /home/wang/wmsdk_bundle-3.1.16/bin/wmsdk/libs/libdrv.a(mdev_startup.o)
BRNDET_IRQHandler                                 /home/wang/wmsdk_bundle-3.1.16/bin/wmsdk/libs/libdrv.a(mdev_startup.o)
BusFault_IRQHandler                               /home/wang/wmsdk_bundle-3.1.16/bin/wmsdk/libs/libdrv.a(mdev_startup.o)
CLK_AupllDisable                                  /home/wang/wmsdk_bundle-3.1.16/bin/wmsdk/libs/libdrv.a(mw300_clock.o)
                                                  /home/wang/wmsdk_bundle-3.1.16/bin/wmsdk/libs/libdrv.a(mdev_pm.o)
CLK_AupllEnable                                   /home/wang/wmsdk_bundle-3.1.16/bin/wmsdk/libs/libdrv.a(mw300_clock.o)
CLK_AupllRefClkSrc                                /home/wang/wmsdk_bundle-3.1.16/bin/wmsdk/libs/libdrv.a(mw300_clock.o)
CLK_GAUClkSrc                                     /home/wang/wmsdk_bundle-3.1.16/bin/wmsdk/libs/libdrv.a(mw300_clock.o)
CLK_GPTInternalClkSrc                             /home/wang/wmsdk_bundle-3.1.16/bin/wmsdk/libs/libdrv.a(mw300_clock.o)
                                                  /home/wang/wmsdk_bundle-3.1.16/bin/wmsdk/libs/libdrv.a(mdev_gpt.o)
                                                  /home/wang/wmsdk_bundle-3.1.16/bin/wmsdk/libs/libdrv.a(mdev_rtc.o)
CLK_GetClkStatus                                  /home/wang/wmsdk_bundle-3.1.16/bin/wmsdk/libs/libdrv.a(mw300_clock.o)
                                                  /home/wang/wmsdk_bundle-3.1.16/bin/wmsdk/libs/libdrv.a(mdev_rtc.o)
                                                  /home/wang/wmsdk_bundle-3.1.16/bin/wmsdk/libs/libdrv.a(mdev_startup.o)
CLK_GetModuleClkDivider                           /home/wang/wmsdk_bundle-3.1.16/bin/wmsdk/libs/libdrv.a(mw300_clock.o)
CLK_GetSystemClk                                  /home/wang/wmsdk_bundle-3.1.16/bin/wmsdk/libs/libdrv.a(mw300_clock.o)
                                                  /home/wang/wmsdk_bundle-3.1.16/bin/wmsdk/libs/libdrv.a(mdev_iflash.o)
                                                  /home/wang/wmsdk_bundle-3.1.16/bin/wmsdk/libs/libdrv.a(mw300_uart.o)
                                                  /home/wang/wmsdk_bundle-3.1.16/bin/wmsdk/libs/libcli.a(cli.o)
                                                  /home/wang/wmsdk_bundle-3.1.16/bin/wmsdk/libs/libdrv.a(mdev_gpt.o)
CLK_GetUARTClkSrc                                 /home/wang/wmsdk_bundle-3.1.16/bin/wmsdk/libs/libdrv.a(mw300_clock.o)
                                                  /home/wang/wmsdk_bundle-3.1.16/bin/wmsdk/libs/libdrv.a(mw300_uart.o)
CLK_GetUARTDivider                                /home/wang/wmsdk_bundle-3.1.16/bin/wmsdk/libs/libdrv.a(mw300_clock.o)
                                                  /home/wang/wmsdk_bundle-3.1.16/bin/wmsdk/libs/libdrv.a(mw300_uart.o)
CLK_Init                                          /home/wang/wmsdk_bundle-3.1.16/bin/wmsdk/libs/libdrv.a(mdev_startup.o)
                                                  /home/wang/wmsdk_bundle-3.1.16/bin/wmsdk/libs/libdrv.a(mdev_pm.o)
CLK_ModuleClkDisable                              /home/wang/wmsdk_bundle-3.1.16/bin/wmsdk/libs/libdrv.a(mw300_clock.o)
CLK_ModuleClkDivider                              /home/wang/wmsdk_bundle-3.1.16/bin/wmsdk/libs/libdrv.a(mw300_clock.o)
                                                  /home/wang/wmsdk_bundle-3.1.16/bin/wmsdk/libs/libdrv.a(mdev_iflash.o)
                                                  /home/wang/wmsdk_bundle-3.1.16/bin/wmsdk/libs/libdrv.a(mdev_gpt.o)
                                                  /home/wang/wmsdk_bundle-3.1.16/bin/wmsdk/libs/libdrv.a(mdev_rtc.o)
                                                  /home/wang/wmsdk_bundle-3.1.16/bin/wmsdk/libs/libdrv.a(mdev_startup.o)
CLK_ModuleClkEnable                               /home/wang/wmsdk_bundle-3.1.16/bin/wmsdk/libs/libdrv.a(mw300_clock.o)
                                                  /home/wang/wmsdk_bundle-3.1.16/bin/wmsdk/libs/libdrv.a(mdev_uart.o)
                                                  /home/wang/wmsdk_bundle-3.1.16/bin/wmsdk/libs/libdrv.a(mdev_gpt.o)
                                                  /home/wang/wmsdk_bundle-3.1.16/bin/wmsdk/libs/libdrv.a(mdev_rtc.o)
CLK_PDMClkSrc                                     /home/wang/wmsdk_bundle-3.1.16/bin/wmsdk/libs/libdrv.a(mw300_clock.o)
CLK_RC32KCalibration                              /home/wang/wmsdk_bundle-3.1.16/bin/wmsdk/libs/libdrv.a(mw300_clock.o)
                                                  /home/wang/wmsdk_bundle-3.1.16/bin/wmsdk/libs/libdrv.a(mdev_rtc.o)
CLK_RC32KDisable                                  /home/wang/wmsdk_bundle-3.1.16/bin/wmsdk/libs/libdrv.a(mw300_clock.o)
CLK_RC32KEnable                                   /home/wang/wmsdk_bundle-3.1.16/bin/wmsdk/libs/libdrv.a(mw300_clock.o)
                                                  /home/wang/wmsdk_bundle-3.1.16/bin/wmsdk/libs/libdrv.a(mdev_rtc.o)
CLK_RC32MCalibration                              /home/wang/wmsdk_bundle-3.1.16/bin/wmsdk/libs/libdrv.a(mw300_clock.o)
                                                  /home/wang/wmsdk_bundle-3.1.16/bin/wmsdk/libs/libdrv.a(mdev_startup.o)
CLK_RC32MDisable                                  /home/wang/wmsdk_bundle-3.1.16/bin/wmsdk/libs/libdrv.a(mw300_clock.o)
CLK_RC32MEnable                                   /home/wang/wmsdk_bundle-3.1.16/bin/wmsdk/libs/libdrv.a(mw300_clock.o)
CLK_RTCClkSrc                                     /home/wang/wmsdk_bundle-3.1.16/bin/wmsdk/libs/libdrv.a(mw300_clock.o)
                                                  /home/wang/wmsdk_bundle-3.1.16/bin/wmsdk/libs/libdrv.a(mdev_rtc.o)
CLK_RefClkDisable                                 /home/wang/wmsdk_bundle-3.1.16/bin/wmsdk/libs/libdrv.a(mw300_clock.o)
                                                  /home/wang/wmsdk_bundle-3.1.16/bin/wmsdk/libs/libdrv.a(mdev_pm.o)
CLK_RefClkEnable                                  /home/wang/wmsdk_bundle-3.1.16/bin/wmsdk/libs/libdrv.a(mw300_clock.o)
                                                  /home/wang/wmsdk_bundle-3.1.16/bin/wmsdk/libs/libdrv.a(mdev_startup.o)
CLK_SSPClkSrc                                     /home/wang/wmsdk_bundle-3.1.16/bin/wmsdk/libs/libdrv.a(mw300_clock.o)
CLK_SetAupllPostDiv                               /home/wang/wmsdk_bundle-3.1.16/bin/wmsdk/libs/libdrv.a(mw300_clock.o)
CLK_SetUARTClkSrc                                 /home/wang/wmsdk_bundle-3.1.16/bin/wmsdk/libs/libdrv.a(mw300_clock.o)
                                                  /home/wang/wmsdk_bundle-3.1.16/bin/wmsdk/libs/libdrv.a(mdev_uart.o)
CLK_SfllDisable                                   /home/wang/wmsdk_bundle-3.1.16/bin/wmsdk/libs/libdrv.a(mw300_clock.o)
                                                  /home/wang/wmsdk_bundle-3.1.16/bin/wmsdk/libs/libdrv.a(mdev_pm.o)
                                                  /home/wang/wmsdk_bundle-3.1.16/bin/wmsdk/libs/libdrv.a(mdev_startup.o)
CLK_SfllEnable                                    /home/wang/wmsdk_bundle-3.1.16/bin/wmsdk/libs/libdrv.a(mw300_clock.o)
                                                  /home/wang/wmsdk_bundle-3.1.16/bin/wmsdk/libs/libdrv.a(mdev_startup.o)
CLK_SystemClkSrc                                  /home/wang/wmsdk_bundle-3.1.16/bin/wmsdk/libs/libdrv.a(mw300_clock.o)
                                                  /home/wang/wmsdk_bundle-3.1.16/bin/wmsdk/libs/libdrv.a(mdev_pm.o)
                                                  /home/wang/wmsdk_bundle-3.1.16/bin/wmsdk/libs/libdrv.a(mdev_startup.o)
CLK_UARTDividerSet                                /home/wang/wmsdk_bundle-3.1.16/bin/wmsdk/libs/libdrv.a(mw300_clock.o)
                                                  /home/wang/wmsdk_bundle-3.1.16/bin/wmsdk/libs/libdrv.a(mw300_uart.o)
CLK_Xtal32KDisable                                /home/wang/wmsdk_bundle-3.1.16/bin/wmsdk/libs/libdrv.a(mw300_clock.o)
                                                  /home/wang/wmsdk_bundle-3.1.16/bin/wmsdk/libs/libdrv.a(mdev_rtc.o)
CLK_Xtal32KEnable                                 /home/wang/wmsdk_bundle-3.1.16/bin/wmsdk/libs/libdrv.a(mw300_clock.o)
                                                  /home/wang/wmsdk_bundle-3.1.16/bin/wmsdk/libs/libdrv.a(mdev_rtc.o)
CRC_IRQHandler                                    /home/wang/wmsdk_bundle-3.1.16/bin/wmsdk/libs/libdrv.a(mdev_startup.o)
DAC_IRQHandler                                    /home/wang/wmsdk_bundle-3.1.16/bin/wmsdk/libs/libdrv.a(mdev_startup.o)
DMA_ChannelInit                                   /home/wang/wmsdk_bundle-3.1.16/bin/wmsdk/libs/libdrv.a(mw300_dma.o)
                                                  /home/wang/wmsdk_bundle-3.1.16/bin/wmsdk/libs/libdrv.a(mdev_dma.o)
                                                  /home/wang/wmsdk_bundle-3.1.16/bin/wmsdk/libs/libdrv.a(mdev_uart.o)
DMA_Disable                                       /home/wang/wmsdk_bundle-3.1.16/bin/wmsdk/libs/libdrv.a(mw300_dma.o)
                                                  /home/wang/wmsdk_bundle-3.1.16/bin/wmsdk/libs/libdrv.a(mdev_dma.o)
                                                  /home/wang/wmsdk_bundle-3.1.16/bin/wmsdk/libs/libdrv.a(mdev_uart.o)
DMA_Enable                                        /home/wang/wmsdk_bundle-3.1.16/bin/wmsdk/libs/libdrv.a(mw300_dma.o)
                                                  /home/wang/wmsdk_bundle-3.1.16/bin/wmsdk/libs/libdrv.a(mdev_dma.o)
                                                  /home/wang/wmsdk_bundle-3.1.16/bin/wmsdk/libs/libdrv.a(mdev_uart.o)
DMA_GetChannelEnableStatus                        /home/wang/wmsdk_bundle-3.1.16/bin/wmsdk/libs/libdrv.a(mw300_dma.o)
DMA_GetChannelIntStatus                           /home/wang/wmsdk_bundle-3.1.16/bin/wmsdk/libs/libdrv.a(mw300_dma.o)
DMA_IRQHandler                                    /home/wang/wmsdk_bundle-3.1.16/bin/wmsdk/libs/libdrv.a(mdev_dma.o)
                                                  /home/wang/wmsdk_bundle-3.1.16/bin/wmsdk/libs/libdrv.a(mdev_startup.o)
DMA_IntClr                                        /home/wang/wmsdk_bundle-3.1.16/bin/wmsdk/libs/libdrv.a(mw300_dma.o)
                                                  /home/wang/wmsdk_bundle-3.1.16/bin/wmsdk/libs/libdrv.a(mdev_uart.o)
DMA_IntMask                                       /home/wang/wmsdk_bundle-3.1.16/bin/wmsdk/libs/libdrv.a(mw300_dma.o)
                                                  /home/wang/wmsdk_bundle-3.1.16/bin/wmsdk/libs/libdrv.a(mdev_dma.o)
                                                  /home/wang/wmsdk_bundle-3.1.16/bin/wmsdk/libs/libdrv.a(mdev_uart.o)
DMA_SetAckDelayCycle                              /home/wang/wmsdk_bundle-3.1.16/bin/wmsdk/libs/libdrv.a(mw300_dma.o)
DMA_SetPeripheralType                             /home/wang/wmsdk_bundle-3.1.16/bin/wmsdk/libs/libdrv.a(mw300_dma.o)
                                                  /home/wang/wmsdk_bundle-3.1.16/bin/wmsdk/libs/libdrv.a(mdev_dma.o)
                                                  /home/wang/wmsdk_bundle-3.1.16/bin/wmsdk/libs/libdrv.a(mdev_uart.o)
DMA_Stop                                          /home/wang/wmsdk_bundle-3.1.16/bin/wmsdk/libs/libdrv.a(mw300_dma.o)
DebugMonitor_IRQHandler                           /home/wang/wmsdk_bundle-3.1.16/bin/wmsdk/libs/libdrv.a(mdev_startup.o)
Default_IRQHandler                                /home/wang/wmsdk_bundle-3.1.16/bin/wmsdk/libs/libdrv.a(mdev_startup.o)
Default_IRQHandler_C                              /home/wang/wmsdk_bundle-3.1.16/bin/wmsdk/libs/libdrv.a(mdev_startup.o)
ExtPin0_IRQHandler                                /home/wang/wmsdk_bundle-3.1.16/bin/wmsdk/libs/libdrv.a(mw300_pmu.o)
                                                  /home/wang/wmsdk_bundle-3.1.16/bin/wmsdk/libs/libdrv.a(mdev_startup.o)
ExtPin10_IRQHandler                               /home/wang/wmsdk_bundle-3.1.16/bin/wmsdk/libs/libdrv.a(mdev_startup.o)
ExtPin11_IRQHandler                               /home/wang/wmsdk_bundle-3.1.16/bin/wmsdk/libs/libdrv.a(mdev_startup.o)
ExtPin12_IRQHandler                               /home/wang/wmsdk_bundle-3.1.16/bin/wmsdk/libs/libdrv.a(mdev_startup.o)
ExtPin13_IRQHandler                               /home/wang/wmsdk_bundle-3.1.16/bin/wmsdk/libs/libdrv.a(mdev_startup.o)
ExtPin14_IRQHandler                               /home/wang/wmsdk_bundle-3.1.16/bin/wmsdk/libs/libdrv.a(mdev_startup.o)
ExtPin15_IRQHandler                               /home/wang/wmsdk_bundle-3.1.16/bin/wmsdk/libs/libdrv.a(mdev_startup.o)
ExtPin16_IRQHandler                               /home/wang/wmsdk_bundle-3.1.16/bin/wmsdk/libs/libdrv.a(mdev_startup.o)
ExtPin17_IRQHandler                               /home/wang/wmsdk_bundle-3.1.16/bin/wmsdk/libs/libdrv.a(mdev_startup.o)
ExtPin18_IRQHandler                               /home/wang/wmsdk_bundle-3.1.16/bin/wmsdk/libs/libdrv.a(mdev_startup.o)
ExtPin19_IRQHandler                               /home/wang/wmsdk_bundle-3.1.16/bin/wmsdk/libs/libdrv.a(mdev_startup.o)
ExtPin1_IRQHandler                                /home/wang/wmsdk_bundle-3.1.16/bin/wmsdk/libs/libdrv.a(mw300_pmu.o)
                                                  /home/wang/wmsdk_bundle-3.1.16/bin/wmsdk/libs/libdrv.a(mdev_startup.o)
ExtPin20_IRQHandler                               /home/wang/wmsdk_bundle-3.1.16/bin/wmsdk/libs/libdrv.a(mdev_startup.o)
ExtPin21_IRQHandler                               /home/wang/wmsdk_bundle-3.1.16/bin/wmsdk/libs/libdrv.a(mdev_startup.o)
ExtPin22_IRQHandler                               /home/wang/wmsdk_bundle-3.1.16/bin/wmsdk/libs/libdrv.a(mdev_startup.o)
ExtPin23_IRQHandler                               /home/wang/wmsdk_bundle-3.1.16/bin/wmsdk/libs/libdrv.a(mdev_startup.o)
ExtPin24_IRQHandler                               /home/wang/wmsdk_bundle-3.1.16/bin/wmsdk/libs/libdrv.a(mdev_startup.o)
ExtPin25_IRQHandler                               /home/wang/wmsdk_bundle-3.1.16/bin/wmsdk/libs/libdrv.a(mdev_startup.o)
ExtPin26_IRQHandler                               /home/wang/wmsdk_bundle-3.1.16/bin/wmsdk/libs/libdrv.a(mdev_startup.o)
ExtPin27_IRQHandler                               /home/wang/wmsdk_bundle-3.1.16/bin/wmsdk/libs/libdrv.a(mdev_startup.o)
ExtPin3_IRQHandler                                /home/wang/wmsdk_bundle-3.1.16/bin/wmsdk/libs/libdrv.a(mdev_startup.o)
ExtPin4_IRQHandler                                /home/wang/wmsdk_bundle-3.1.16/bin/wmsdk/libs/libdrv.a(mdev_startup.o)
ExtPin5_IRQHandler                                /home/wang/wmsdk_bundle-3.1.16/bin/wmsdk/libs/libdrv.a(mdev_startup.o)
ExtPin6_IRQHandler                                /home/wang/wmsdk_bundle-3.1.16/bin/wmsdk/libs/libdrv.a(mdev_startup.o)
ExtPin7_IRQHandler                                /home/wang/wmsdk_bundle-3.1.16/bin/wmsdk/libs/libdrv.a(mdev_startup.o)
ExtPin8_IRQHandler                                /home/wang/wmsdk_bundle-3.1.16/bin/wmsdk/libs/libdrv.a(mdev_startup.o)
ExtPin9_IRQHandler                                /home/wang/wmsdk_bundle-3.1.16/bin/wmsdk/libs/libdrv.a(mdev_startup.o)
FLASH_Block32KErase                               /home/wang/wmsdk_bundle-3.1.16/bin/wmsdk/libs/libdrv.a(mw300_flash.o)
FLASH_Block64KErase                               /home/wang/wmsdk_bundle-3.1.16/bin/wmsdk/libs/libdrv.a(mw300_flash.o)
FLASH_ByteRead                                    /home/wang/wmsdk_bundle-3.1.16/bin/wmsdk/libs/libdrv.a(mw300_flash.o)
FLASH_ByteWrite                                   /home/wang/wmsdk_bundle-3.1.16/bin/wmsdk/libs/libdrv.a(mw300_flash.o)
FLASH_Erase                                       /home/wang/wmsdk_bundle-3.1.16/bin/wmsdk/libs/libdrv.a(mw300_flash.o)
                                                  /home/wang/wmsdk_bundle-3.1.16/bin/wmsdk/libs/libdrv.a(mdev_iflash.o)
FLASH_EraseAll                                    /home/wang/wmsdk_bundle-3.1.16/bin/wmsdk/libs/libdrv.a(mw300_flash.o)
                                                  /home/wang/wmsdk_bundle-3.1.16/bin/wmsdk/libs/libdrv.a(mdev_iflash.o)
FLASH_GetBusyStatus                               /home/wang/wmsdk_bundle-3.1.16/bin/wmsdk/libs/libdrv.a(mw300_flash.o)
FLASH_GetConfig                                   /home/wang/wmsdk_bundle-3.1.16/bin/wmsdk/libs/libdrv.a(mw300_flash.o)
                                                  /home/wang/wmsdk_bundle-3.1.16/bin/wmsdk/libs/libdrv.a(mdev_iflash.o)
FLASH_GetJEDECID                                  /home/wang/wmsdk_bundle-3.1.16/bin/wmsdk/libs/libdrv.a(mw300_flash.o)
                                                  /home/wang/wmsdk_bundle-3.1.16/bin/wmsdk/libs/libdrv.a(mdev_iflash.o)
FLASH_GetStatus                                   /home/wang/wmsdk_bundle-3.1.16/bin/wmsdk/libs/libdrv.a(mw300_flash.o)
FLASH_GetUniqueID                                 /home/wang/wmsdk_bundle-3.1.16/bin/wmsdk/libs/libdrv.a(mw300_flash.o)
                                                  /home/wang/wmsdk_bundle-3.1.16/bin/wmsdk/libs/libdrv.a(mdev_iflash.o)
FLASH_IsBlank                                     /home/wang/wmsdk_bundle-3.1.16/bin/wmsdk/libs/libdrv.a(mw300_flash.o)
FLASH_IsSectorBlank                               /home/wang/wmsdk_bundle-3.1.16/bin/wmsdk/libs/libdrv.a(mw300_flash.o)
FLASH_PageWrite                                   /home/wang/wmsdk_bundle-3.1.16/bin/wmsdk/libs/libdrv.a(mw300_flash.o)
FLASH_Read                                        /home/wang/wmsdk_bundle-3.1.16/bin/wmsdk/libs/libdrv.a(mw300_flash.o)
                                                  /home/wang/wmsdk_bundle-3.1.16/bin/wmsdk/libs/libdrv.a(mdev_iflash.o)
FLASH_ResetFastReadDual                           /home/wang/wmsdk_bundle-3.1.16/bin/wmsdk/libs/libdrv.a(mw300_flash.o)
FLASH_ResetFastReadQuad                           /home/wang/wmsdk_bundle-3.1.16/bin/wmsdk/libs/libdrv.a(mw300_flash.o)
                                                  /home/wang/wmsdk_bundle-3.1.16/bin/wmsdk/libs/libdrv.a(mdev_iflash.o)
FLASH_SectorErase                                 /home/wang/wmsdk_bundle-3.1.16/bin/wmsdk/libs/libdrv.a(mw300_flash.o)
FLASH_SelectInterface                             /home/wang/wmsdk_bundle-3.1.16/bin/wmsdk/libs/libdrv.a(mw300_flash.o)
FLASH_SetConfig                                   /home/wang/wmsdk_bundle-3.1.16/bin/wmsdk/libs/libdrv.a(mw300_flash.o)
                                                  /home/wang/wmsdk_bundle-3.1.16/bin/wmsdk/libs/libdrv.a(mdev_iflash.o)
FLASH_SetProtectionMode                           /home/wang/wmsdk_bundle-3.1.16/bin/wmsdk/libs/libdrv.a(mw300_flash.o)
FLASH_SetWriteEnableBit                           /home/wang/wmsdk_bundle-3.1.16/bin/wmsdk/libs/libdrv.a(mw300_flash.o)
FLASH_WordRead                                    /home/wang/wmsdk_bundle-3.1.16/bin/wmsdk/libs/libdrv.a(mw300_flash.o)
FLASH_WordWrite                                   /home/wang/wmsdk_bundle-3.1.16/bin/wmsdk/libs/libdrv.a(mw300_flash.o)
FLASH_Write                                       /home/wang/wmsdk_bundle-3.1.16/bin/wmsdk/libs/libdrv.a(mw300_flash.o)
                                                  /home/wang/wmsdk_bundle-3.1.16/bin/wmsdk/libs/libdrv.a(mdev_iflash.o)
FLASH_WriteEnableVSR                              /home/wang/wmsdk_bundle-3.1.16/bin/wmsdk/libs/libdrv.a(mw300_flash.o)
FLASH_WriteStatus                                 /home/wang/wmsdk_bundle-3.1.16/bin/wmsdk/libs/libdrv.a(mw300_flash.o)
GPIO_GetIntStatus                                 /home/wang/wmsdk_bundle-3.1.16/bin/wmsdk/libs/libdrv.a(mw300_gpio.o)
GPIO_IRQHandler                                   /home/wang/wmsdk_bundle-3.1.16/bin/wmsdk/libs/libdrv.a(mdev_startup.o)
GPIO_IntClr                                       /home/wang/wmsdk_bundle-3.1.16/bin/wmsdk/libs/libdrv.a(mw300_gpio.o)
GPIO_IntConfig                                    /home/wang/wmsdk_bundle-3.1.16/bin/wmsdk/libs/libdrv.a(mw300_gpio.o)
GPIO_IntMask                                      /home/wang/wmsdk_bundle-3.1.16/bin/wmsdk/libs/libdrv.a(mw300_gpio.o)
GPIO_PinModeConfig                                /home/wang/wmsdk_bundle-3.1.16/bin/wmsdk/libs/libdrv.a(mw300_pinmux.o)
GPIO_PinMuxFun                                    /home/wang/wmsdk_bundle-3.1.16/bin/wmsdk/libs/libdrv.a(mw300_pinmux.o)
                                                  /home/wang/wmsdk_bundle-3.1.16/bin/wmsdk/libs/libdrv.a(mdev_iflash.o)
                                                  obj/board.o
                                                  /home/wang/wmsdk_bundle-3.1.16/bin/wmsdk/libs/libdrv.a(mdev_rtc.o)
GPIO_ReadPinLevel                                 /home/wang/wmsdk_bundle-3.1.16/bin/wmsdk/libs/libdrv.a(mw300_gpio.o)
                                                  obj/board.o
GPIO_ReadPortLevel                                /home/wang/wmsdk_bundle-3.1.16/bin/wmsdk/libs/libdrv.a(mw300_gpio.o)
GPIO_SetPinDir                                    /home/wang/wmsdk_bundle-3.1.16/bin/wmsdk/libs/libdrv.a(mw300_gpio.o)
                                                  obj/board.o
GPIO_SetPortPinDir                                /home/wang/wmsdk_bundle-3.1.16/bin/wmsdk/libs/libdrv.a(mw300_gpio.o)
GPIO_WritePinOutput                               /home/wang/wmsdk_bundle-3.1.16/bin/wmsdk/libs/libdrv.a(mw300_gpio.o)
                                                  obj/board.o
GPIO_WritePortOutput                              /home/wang/wmsdk_bundle-3.1.16/bin/wmsdk/libs/libdrv.a(mw300_gpio.o)
GPT0_IRQHandler                                   /home/wang/wmsdk_bundle-3.1.16/bin/wmsdk/libs/libdrv.a(mw300_gpt.o)
                                                  /home/wang/wmsdk_bundle-3.1.16/bin/wmsdk/libs/libdrv.a(mdev_startup.o)
GPT1_IRQHandler                                   /home/wang/wmsdk_bundle-3.1.16/bin/wmsdk/libs/libdrv.a(mw300_gpt.o)
                                                  /home/wang/wmsdk_bundle-3.1.16/bin/wmsdk/libs/libdrv.a(mdev_startup.o)
GPT2_IRQHandler                                   /home/wang/wmsdk_bundle-3.1.16/bin/wmsdk/libs/libdrv.a(mw300_gpt.o)
                                                  /home/wang/wmsdk_bundle-3.1.16/bin/wmsdk/libs/libdrv.a(mdev_startup.o)
GPT3_IRQHandler                                   /home/wang/wmsdk_bundle-3.1.16/bin/wmsdk/libs/libdrv.a(mw300_gpt.o)
                                                  /home/wang/wmsdk_bundle-3.1.16/bin/wmsdk/libs/libdrv.a(mdev_startup.o)
GPT_ChannelFuncSelect                             /home/wang/wmsdk_bundle-3.1.16/bin/wmsdk/libs/libdrv.a(mw300_gpt.o)
                                                  /home/wang/wmsdk_bundle-3.1.16/bin/wmsdk/libs/libdrv.a(mdev_gpt.o)
GPT_ChannelInputConfig                            /home/wang/wmsdk_bundle-3.1.16/bin/wmsdk/libs/libdrv.a(mw300_gpt.o)
GPT_ChannelOutputConfig                           /home/wang/wmsdk_bundle-3.1.16/bin/wmsdk/libs/libdrv.a(mw300_gpt.o)
                                                  /home/wang/wmsdk_bundle-3.1.16/bin/wmsdk/libs/libdrv.a(mdev_gpt.o)
GPT_ChannelReset                                  /home/wang/wmsdk_bundle-3.1.16/bin/wmsdk/libs/libdrv.a(mw300_gpt.o)
                                                  /home/wang/wmsdk_bundle-3.1.16/bin/wmsdk/libs/libdrv.a(mdev_gpt.o)
GPT_CounterReset                                  /home/wang/wmsdk_bundle-3.1.16/bin/wmsdk/libs/libdrv.a(mw300_gpt.o)
                                                  /home/wang/wmsdk_bundle-3.1.16/bin/wmsdk/libs/libdrv.a(mdev_gpt.o)
GPT_DMAChannelSelect                              /home/wang/wmsdk_bundle-3.1.16/bin/wmsdk/libs/libdrv.a(mw300_gpt.o)
GPT_DMACmd                                        /home/wang/wmsdk_bundle-3.1.16/bin/wmsdk/libs/libdrv.a(mw300_gpt.o)
GPT_GetCaptureVal                                 /home/wang/wmsdk_bundle-3.1.16/bin/wmsdk/libs/libdrv.a(mw300_gpt.o)
GPT_GetCounterVal                                 /home/wang/wmsdk_bundle-3.1.16/bin/wmsdk/libs/libdrv.a(mw300_gpt.o)
GPT_GetStatus                                     /home/wang/wmsdk_bundle-3.1.16/bin/wmsdk/libs/libdrv.a(mw300_gpt.o)
GPT_Init                                          /home/wang/wmsdk_bundle-3.1.16/bin/wmsdk/libs/libdrv.a(mw300_gpt.o)
                                                  /home/wang/wmsdk_bundle-3.1.16/bin/wmsdk/libs/libdrv.a(mdev_gpt.o)
GPT_InputConfig                                   /home/wang/wmsdk_bundle-3.1.16/bin/wmsdk/libs/libdrv.a(mw300_gpt.o)
GPT_IntMask                                       /home/wang/wmsdk_bundle-3.1.16/bin/wmsdk/libs/libdrv.a(mw300_gpt.o)
                                                  /home/wang/wmsdk_bundle-3.1.16/bin/wmsdk/libs/libdrv.a(mdev_gpt.o)
GPT_SetChannelBothMatchVal                        /home/wang/wmsdk_bundle-3.1.16/bin/wmsdk/libs/libdrv.a(mw300_gpt.o)
GPT_SetChannelMatchVal0                           /home/wang/wmsdk_bundle-3.1.16/bin/wmsdk/libs/libdrv.a(mw300_gpt.o)
GPT_SetChannelMatchVal1                           /home/wang/wmsdk_bundle-3.1.16/bin/wmsdk/libs/libdrv.a(mw300_gpt.o)
GPT_SetCounterUppVal                              /home/wang/wmsdk_bundle-3.1.16/bin/wmsdk/libs/libdrv.a(mw300_gpt.o)
GPT_Start                                         /home/wang/wmsdk_bundle-3.1.16/bin/wmsdk/libs/libdrv.a(mw300_gpt.o)
                                                  /home/wang/wmsdk_bundle-3.1.16/bin/wmsdk/libs/libdrv.a(mdev_gpt.o)
GPT_StatusClr                                     /home/wang/wmsdk_bundle-3.1.16/bin/wmsdk/libs/libdrv.a(mw300_gpt.o)
                                                  /home/wang/wmsdk_bundle-3.1.16/bin/wmsdk/libs/libdrv.a(mdev_gpt.o)
GPT_Stop                                          /home/wang/wmsdk_bundle-3.1.16/bin/wmsdk/libs/libdrv.a(mw300_gpt.o)
                                                  /home/wang/wmsdk_bundle-3.1.16/bin/wmsdk/libs/libdrv.a(mdev_gpt.o)
GPT_TrigCmd                                       /home/wang/wmsdk_bundle-3.1.16/bin/wmsdk/libs/libdrv.a(mw300_gpt.o)
GPT_TrigConfig                                    /home/wang/wmsdk_bundle-3.1.16/bin/wmsdk/libs/libdrv.a(mw300_gpt.o)
HardFault_IRQHandler                              /home/wang/wmsdk_bundle-3.1.16/bin/wmsdk/libs/libdrv.a(mdev_startup.o)
HardFault_IRQHandler_C                            /home/wang/wmsdk_bundle-3.1.16/bin/wmsdk/libs/libdrv.a(mdev_startup.o)
I2C0_IRQHandler                                   /home/wang/wmsdk_bundle-3.1.16/bin/wmsdk/libs/libdrv.a(mdev_startup.o)
I2C1_IRQHandler                                   /home/wang/wmsdk_bundle-3.1.16/bin/wmsdk/libs/libdrv.a(mdev_startup.o)
MemManage_IRQHandler                              /home/wang/wmsdk_bundle-3.1.16/bin/wmsdk/libs/libdrv.a(mdev_startup.o)
NMI_IRQHandler                                    /home/wang/wmsdk_bundle-3.1.16/bin/wmsdk/libs/libdrv.a(mdev_startup.o)
PLL_IRQHandler                                    /home/wang/wmsdk_bundle-3.1.16/bin/wmsdk/libs/libdrv.a(mdev_startup.o)
PMU_ClearWakeupSrcInt                             /home/wang/wmsdk_bundle-3.1.16/bin/wmsdk/libs/libdrv.a(mw300_pmu.o)
                                                  /home/wang/wmsdk_bundle-3.1.16/bin/wmsdk/libs/libdrv.a(mdev_pm.o)
PMU_ClrLastResetCause                             /home/wang/wmsdk_bundle-3.1.16/bin/wmsdk/libs/libdrv.a(mw300_pmu.o)
                                                  /home/wang/wmsdk_bundle-3.1.16/bin/wmsdk/libs/libutil.a(boot_flags.o)
PMU_ConfigExtraInterrupt                          /home/wang/wmsdk_bundle-3.1.16/bin/wmsdk/libs/libdrv.a(mw300_pmu.o)
PMU_ConfigVDDIOLevel                              /home/wang/wmsdk_bundle-3.1.16/bin/wmsdk/libs/libdrv.a(mw300_pmu.o)
PMU_ConfigVbatBrndet                              /home/wang/wmsdk_bundle-3.1.16/bin/wmsdk/libs/libdrv.a(mw300_pmu.o)
PMU_ConfigWakeupPin                               /home/wang/wmsdk_bundle-3.1.16/bin/wmsdk/libs/libdrv.a(mw300_pmu.o)
                                                  obj/board.o
PMU_GetLastResetCause                             /home/wang/wmsdk_bundle-3.1.16/bin/wmsdk/libs/libdrv.a(mw300_pmu.o)
                                                  /home/wang/wmsdk_bundle-3.1.16/bin/wmsdk/libs/libutil.a(boot_flags.o)
PMU_GetLastWakeupStatus                           /home/wang/wmsdk_bundle-3.1.16/bin/wmsdk/libs/libdrv.a(mw300_pmu.o)
PMU_GetSleepMode                                  /home/wang/wmsdk_bundle-3.1.16/bin/wmsdk/libs/libdrv.a(mw300_pmu.o)
PMU_GetUlpcompOutValue                            /home/wang/wmsdk_bundle-3.1.16/bin/wmsdk/libs/libdrv.a(mw300_pmu.o)
PMU_GetUlpcompStatus                              /home/wang/wmsdk_bundle-3.1.16/bin/wmsdk/libs/libdrv.a(mw300_pmu.o)
PMU_GetVbatBrndetOutValue                         /home/wang/wmsdk_bundle-3.1.16/bin/wmsdk/libs/libdrv.a(mw300_pmu.o)
PMU_GetVbatBrndetStatus                           /home/wang/wmsdk_bundle-3.1.16/bin/wmsdk/libs/libdrv.a(mw300_pmu.o)
PMU_MCIWakeupWLANDisable                          /home/wang/wmsdk_bundle-3.1.16/bin/wmsdk/libs/libdrv.a(mw300_pmu.o)
PMU_MCIWakeupWLANEnable                           /home/wang/wmsdk_bundle-3.1.16/bin/wmsdk/libs/libdrv.a(mw300_pmu.o)
PMU_PowerDownVDDIO                                /home/wang/wmsdk_bundle-3.1.16/bin/wmsdk/libs/libdrv.a(mw300_pmu.o)
                                                  /home/wang/wmsdk_bundle-3.1.16/bin/wmsdk/libs/libdrv.a(mdev_pm.o)
PMU_PowerDownWLAN                                 /home/wang/wmsdk_bundle-3.1.16/bin/wmsdk/libs/libdrv.a(mw300_pmu.o)
                                                  /home/wang/wmsdk_bundle-3.1.16/bin/wmsdk/libs/libdrv.a(mdev_pm.o)
PMU_PowerNormalVDDIO                              /home/wang/wmsdk_bundle-3.1.16/bin/wmsdk/libs/libdrv.a(mw300_pmu.o)
                                                  /home/wang/wmsdk_bundle-3.1.16/bin/wmsdk/libs/libdrv.a(mdev_pm.o)
PMU_PowerOffVDDIO                                 /home/wang/wmsdk_bundle-3.1.16/bin/wmsdk/libs/libdrv.a(mw300_pmu.o)
                                                  /home/wang/wmsdk_bundle-3.1.16/bin/wmsdk/libs/libdrv.a(mdev_pm.o)
PMU_PowerOnVDDIO                                  /home/wang/wmsdk_bundle-3.1.16/bin/wmsdk/libs/libdrv.a(mw300_pmu.o)
                                                  /home/wang/wmsdk_bundle-3.1.16/bin/wmsdk/libs/libdrv.a(mdev_iflash.o)
                                                  /home/wang/wmsdk_bundle-3.1.16/bin/wmsdk/libs/libdrv.a(mdev_rtc.o)
                                                  /home/wang/wmsdk_bundle-3.1.16/bin/wmsdk/libs/libdrv.a(mdev_pm.o)
                                                  /home/wang/wmsdk_bundle-3.1.16/bin/wmsdk/libs/libdrv.a(mdev_startup.o)
PMU_PowerOnWLAN                                   /home/wang/wmsdk_bundle-3.1.16/bin/wmsdk/libs/libdrv.a(mw300_pmu.o)
                                                  /home/wang/wmsdk_bundle-3.1.16/bin/wmsdk/libs/libdrv.a(mdev_startup.o)
PMU_SetSleepMode                                  /home/wang/wmsdk_bundle-3.1.16/bin/wmsdk/libs/libdrv.a(mw300_pmu.o)
                                                  /home/wang/wmsdk_bundle-3.1.16/bin/wmsdk/libs/libdrv.a(mdev_pm.o)
PMU_UlpcompCmd                                    /home/wang/wmsdk_bundle-3.1.16/bin/wmsdk/libs/libdrv.a(mw300_pmu.o)
PMU_UlpcompHysteresisSel                          /home/wang/wmsdk_bundle-3.1.16/bin/wmsdk/libs/libdrv.a(mw300_pmu.o)
PMU_UlpcompModeSelect                             /home/wang/wmsdk_bundle-3.1.16/bin/wmsdk/libs/libdrv.a(mw300_pmu.o)
PMU_UlpcompRefVoltageSel                          /home/wang/wmsdk_bundle-3.1.16/bin/wmsdk/libs/libdrv.a(mw300_pmu.o)
PMU_VbatBrndetCmd                                 /home/wang/wmsdk_bundle-3.1.16/bin/wmsdk/libs/libdrv.a(mw300_pmu.o)
                                                  /home/wang/wmsdk_bundle-3.1.16/bin/wmsdk/libs/libdrv.a(mdev_startup.o)
PMU_VbatBrndetIntCmd                              /home/wang/wmsdk_bundle-3.1.16/bin/wmsdk/libs/libdrv.a(mw300_pmu.o)
PMU_VbatBrndetRstCmd                              /home/wang/wmsdk_bundle-3.1.16/bin/wmsdk/libs/libdrv.a(mw300_pmu.o)
                                                  /home/wang/wmsdk_bundle-3.1.16/bin/wmsdk/libs/libdrv.a(mdev_startup.o)
PMU_WakeupSrcIntMask                              /home/wang/wmsdk_bundle-3.1.16/bin/wmsdk/libs/libdrv.a(mw300_pmu.o)
                                                  /home/wang/wmsdk_bundle-3.1.16/bin/wmsdk/libs/libdrv.a(mdev_pm.o)
PendSV_IRQHandler                                 /home/wang/wmsdk_bundle-3.1.16/bin/wmsdk/libs/libfreertos.a(port.o)
                                                  /home/wang/wmsdk_bundle-3.1.16/bin/wmsdk/libs/libdrv.a(mdev_startup.o)
QSPI_DmaCmd                                       /home/wang/wmsdk_bundle-3.1.16/bin/wmsdk/libs/libdrv.a(mw300_qspi.o)
QSPI_FlushFIFO                                    /home/wang/wmsdk_bundle-3.1.16/bin/wmsdk/libs/libdrv.a(mw300_qspi.o)
                                                  /home/wang/wmsdk_bundle-3.1.16/bin/wmsdk/libs/libdrv.a(mw300_flash.o)
QSPI_GetIntStatus                                 /home/wang/wmsdk_bundle-3.1.16/bin/wmsdk/libs/libdrv.a(mw300_qspi.o)
QSPI_GetStatus                                    /home/wang/wmsdk_bundle-3.1.16/bin/wmsdk/libs/libdrv.a(mw300_qspi.o)
QSPI_IRQHandler                                   /home/wang/wmsdk_bundle-3.1.16/bin/wmsdk/libs/libdrv.a(mw300_qspi.o)
                                                  /home/wang/wmsdk_bundle-3.1.16/bin/wmsdk/libs/libdrv.a(mdev_startup.o)
QSPI_Init                                         /home/wang/wmsdk_bundle-3.1.16/bin/wmsdk/libs/libdrv.a(mw300_qspi.o)
QSPI_IntClr                                       /home/wang/wmsdk_bundle-3.1.16/bin/wmsdk/libs/libdrv.a(mw300_qspi.o)
QSPI_IntMask                                      /home/wang/wmsdk_bundle-3.1.16/bin/wmsdk/libs/libdrv.a(mw300_qspi.o)
QSPI_IsTransferCompleted                          /home/wang/wmsdk_bundle-3.1.16/bin/wmsdk/libs/libdrv.a(mw300_qspi.o)
QSPI_ReadByte                                     /home/wang/wmsdk_bundle-3.1.16/bin/wmsdk/libs/libdrv.a(mw300_qspi.o)
                                                  /home/wang/wmsdk_bundle-3.1.16/bin/wmsdk/libs/libdrv.a(mw300_flash.o)
QSPI_ReadWord                                     /home/wang/wmsdk_bundle-3.1.16/bin/wmsdk/libs/libdrv.a(mw300_qspi.o)
QSPI_Reset                                        /home/wang/wmsdk_bundle-3.1.16/bin/wmsdk/libs/libdrv.a(mw300_qspi.o)
QSPI_SetAddr                                      /home/wang/wmsdk_bundle-3.1.16/bin/wmsdk/libs/libdrv.a(mw300_qspi.o)
                                                  /home/wang/wmsdk_bundle-3.1.16/bin/wmsdk/libs/libdrv.a(mw300_flash.o)
QSPI_SetAddrCnt                                   /home/wang/wmsdk_bundle-3.1.16/bin/wmsdk/libs/libdrv.a(mw300_qspi.o)
                                                  /home/wang/wmsdk_bundle-3.1.16/bin/wmsdk/libs/libdrv.a(mw300_flash.o)
QSPI_SetDInCnt                                    /home/wang/wmsdk_bundle-3.1.16/bin/wmsdk/libs/libdrv.a(mw300_qspi.o)
                                                  /home/wang/wmsdk_bundle-3.1.16/bin/wmsdk/libs/libdrv.a(mw300_flash.o)
QSPI_SetDummyCnt                                  /home/wang/wmsdk_bundle-3.1.16/bin/wmsdk/libs/libdrv.a(mw300_qspi.o)
                                                  /home/wang/wmsdk_bundle-3.1.16/bin/wmsdk/libs/libdrv.a(mw300_flash.o)
QSPI_SetHdrcnt                                    /home/wang/wmsdk_bundle-3.1.16/bin/wmsdk/libs/libdrv.a(mw300_qspi.o)
                                                  /home/wang/wmsdk_bundle-3.1.16/bin/wmsdk/libs/libdrv.a(mw300_flash.o)
QSPI_SetInstr                                     /home/wang/wmsdk_bundle-3.1.16/bin/wmsdk/libs/libdrv.a(mw300_qspi.o)
                                                  /home/wang/wmsdk_bundle-3.1.16/bin/wmsdk/libs/libdrv.a(mw300_flash.o)
QSPI_SetInstrCnt                                  /home/wang/wmsdk_bundle-3.1.16/bin/wmsdk/libs/libdrv.a(mw300_qspi.o)
QSPI_SetRMode                                     /home/wang/wmsdk_bundle-3.1.16/bin/wmsdk/libs/libdrv.a(mw300_qspi.o)
                                                  /home/wang/wmsdk_bundle-3.1.16/bin/wmsdk/libs/libdrv.a(mw300_flash.o)
QSPI_SetRModeCnt                                  /home/wang/wmsdk_bundle-3.1.16/bin/wmsdk/libs/libdrv.a(mw300_qspi.o)
                                                  /home/wang/wmsdk_bundle-3.1.16/bin/wmsdk/libs/libdrv.a(mw300_flash.o)
QSPI_SetSSEnable                                  /home/wang/wmsdk_bundle-3.1.16/bin/wmsdk/libs/libdrv.a(mw300_qspi.o)
                                                  /home/wang/wmsdk_bundle-3.1.16/bin/wmsdk/libs/libdrv.a(mw300_flash.o)
QSPI_StartTransfer                                /home/wang/wmsdk_bundle-3.1.16/bin/wmsdk/libs/libdrv.a(mw300_qspi.o)
                                                  /home/wang/wmsdk_bundle-3.1.16/bin/wmsdk/libs/libdrv.a(mw300_flash.o)
QSPI_StopTransfer                                 /home/wang/wmsdk_bundle-3.1.16/bin/wmsdk/libs/libdrv.a(mw300_qspi.o)
                                                  /home/wang/wmsdk_bundle-3.1.16/bin/wmsdk/libs/libdrv.a(mw300_flash.o)
QSPI_WriteByte                                    /home/wang/wmsdk_bundle-3.1.16/bin/wmsdk/libs/libdrv.a(mw300_qspi.o)
                                                  /home/wang/wmsdk_bundle-3.1.16/bin/wmsdk/libs/libdrv.a(mw300_flash.o)
QSPI_WriteWord                                    /home/wang/wmsdk_bundle-3.1.16/bin/wmsdk/libs/libdrv.a(mw300_qspi.o)
RC32M_GetIntStatus                                /home/wang/wmsdk_bundle-3.1.16/bin/wmsdk/libs/libdrv.a(mw300_clock.o)
RC32M_IRQHandler                                  /home/wang/wmsdk_bundle-3.1.16/bin/wmsdk/libs/libdrv.a(mw300_clock.o)
                                                  /home/wang/wmsdk_bundle-3.1.16/bin/wmsdk/libs/libdrv.a(mdev_startup.o)
RC32M_IntClr                                      /home/wang/wmsdk_bundle-3.1.16/bin/wmsdk/libs/libdrv.a(mw300_clock.o)
RC32M_IntMask                                     /home/wang/wmsdk_bundle-3.1.16/bin/wmsdk/libs/libdrv.a(mw300_clock.o)
RC32M_SelOutput32MHz                              /home/wang/wmsdk_bundle-3.1.16/bin/wmsdk/libs/libdrv.a(mw300_clock.o)
RTC_CounterReset                                  /home/wang/wmsdk_bundle-3.1.16/bin/wmsdk/libs/libdrv.a(mw300_rtc.o)
                                                  /home/wang/wmsdk_bundle-3.1.16/bin/wmsdk/libs/libdrv.a(mdev_rtc.o)
RTC_GetCntStatus                                  /home/wang/wmsdk_bundle-3.1.16/bin/wmsdk/libs/libdrv.a(mw300_rtc.o)
                                                  /home/wang/wmsdk_bundle-3.1.16/bin/wmsdk/libs/libdrv.a(mdev_rtc.o)
RTC_GetCounterUppVal                              /home/wang/wmsdk_bundle-3.1.16/bin/wmsdk/libs/libdrv.a(mw300_rtc.o)
                                                  /home/wang/wmsdk_bundle-3.1.16/bin/wmsdk/libs/libdrv.a(mdev_rtc.o)
RTC_GetCounterVal                                 /home/wang/wmsdk_bundle-3.1.16/bin/wmsdk/libs/libdrv.a(mw300_rtc.o)
                                                  /home/wang/wmsdk_bundle-3.1.16/bin/wmsdk/libs/libdrv.a(mdev_rtc.o)
RTC_GetStatus                                     /home/wang/wmsdk_bundle-3.1.16/bin/wmsdk/libs/libdrv.a(mw300_rtc.o)
RTC_IRQHandler                                    /home/wang/wmsdk_bundle-3.1.16/bin/wmsdk/libs/libdrv.a(mw300_rtc.o)
                                                  /home/wang/wmsdk_bundle-3.1.16/bin/wmsdk/libs/libdrv.a(mdev_startup.o)
RTC_Init                                          /home/wang/wmsdk_bundle-3.1.16/bin/wmsdk/libs/libdrv.a(mw300_rtc.o)
                                                  /home/wang/wmsdk_bundle-3.1.16/bin/wmsdk/libs/libdrv.a(mdev_rtc.o)
RTC_IntClr                                        /home/wang/wmsdk_bundle-3.1.16/bin/wmsdk/libs/libdrv.a(mw300_rtc.o)
                                                  /home/wang/wmsdk_bundle-3.1.16/bin/wmsdk/libs/libdrv.a(mdev_rtc.o)
RTC_IntMask                                       /home/wang/wmsdk_bundle-3.1.16/bin/wmsdk/libs/libdrv.a(mw300_rtc.o)
                                                  /home/wang/wmsdk_bundle-3.1.16/bin/wmsdk/libs/libdrv.a(mdev_rtc.o)
RTC_SetCounterAlarmVal                            /home/wang/wmsdk_bundle-3.1.16/bin/wmsdk/libs/libdrv.a(mw300_rtc.o)
                                                  /home/wang/wmsdk_bundle-3.1.16/bin/wmsdk/libs/libdrv.a(mdev_rtc.o)
RTC_SetCounterUppVal                              /home/wang/wmsdk_bundle-3.1.16/bin/wmsdk/libs/libdrv.a(mw300_rtc.o)
                                                  /home/wang/wmsdk_bundle-3.1.16/bin/wmsdk/libs/libdrv.a(mdev_rtc.o)
RTC_Start                                         /home/wang/wmsdk_bundle-3.1.16/bin/wmsdk/libs/libdrv.a(mw300_rtc.o)
                                                  /home/wang/wmsdk_bundle-3.1.16/bin/wmsdk/libs/libdrv.a(mdev_rtc.o)
RTC_Stop                                          /home/wang/wmsdk_bundle-3.1.16/bin/wmsdk/libs/libdrv.a(mw300_rtc.o)
                                                  /home/wang/wmsdk_bundle-3.1.16/bin/wmsdk/libs/libdrv.a(mdev_rtc.o)
Reset_IRQHandler                                  /home/wang/wmsdk_bundle-3.1.16/bin/wmsdk/libs/libdrv.a(mdev_startup.o)
Reset_IRQHandler_C                                /home/wang/wmsdk_bundle-3.1.16/bin/wmsdk/libs/libdrv.a(mdev_startup.o)
SDIO_IRQHandler                                   /home/wang/wmsdk_bundle-3.1.16/bin/wmsdk/libs/libdrv.a(mdev_startup.o)
SSP0_IRQHandler                                   /home/wang/wmsdk_bundle-3.1.16/bin/wmsdk/libs/libdrv.a(mdev_startup.o)
SSP1_IRQHandler                                   /home/wang/wmsdk_bundle-3.1.16/bin/wmsdk/libs/libdrv.a(mdev_startup.o)
SSP2_IRQHandler                                   /home/wang/wmsdk_bundle-3.1.16/bin/wmsdk/libs/libdrv.a(mdev_startup.o)
SVC_IRQHandler                                    /home/wang/wmsdk_bundle-3.1.16/bin/wmsdk/libs/libfreertos.a(port.o)
                                                  /home/wang/wmsdk_bundle-3.1.16/bin/wmsdk/libs/libdrv.a(mdev_startup.o)
SysTick_IRQHandler                                /home/wang/wmsdk_bundle-3.1.16/bin/wmsdk/libs/libfreertos.a(port.o)
                                                  /home/wang/wmsdk_bundle-3.1.16/bin/wmsdk/libs/libdrv.a(mdev_startup.o)
UART0_IRQHandler                                  /home/wang/wmsdk_bundle-3.1.16/bin/wmsdk/libs/libdrv.a(mw300_uart.o)
                                                  /home/wang/wmsdk_bundle-3.1.16/bin/wmsdk/libs/libdrv.a(mdev_startup.o)
UART1_IRQHandler                                  /home/wang/wmsdk_bundle-3.1.16/bin/wmsdk/libs/libdrv.a(mw300_uart.o)
                                                  /home/wang/wmsdk_bundle-3.1.16/bin/wmsdk/libs/libdrv.a(mdev_startup.o)
UART2_IRQHandler                                  /home/wang/wmsdk_bundle-3.1.16/bin/wmsdk/libs/libdrv.a(mw300_uart.o)
                                                  /home/wang/wmsdk_bundle-3.1.16/bin/wmsdk/libs/libdrv.a(mdev_startup.o)
UART_BaudConfig                                   /home/wang/wmsdk_bundle-3.1.16/bin/wmsdk/libs/libdrv.a(mw300_uart.o)
UART_Disable                                      /home/wang/wmsdk_bundle-3.1.16/bin/wmsdk/libs/libdrv.a(mw300_uart.o)
                                                  /home/wang/wmsdk_bundle-3.1.16/bin/wmsdk/libs/libdrv.a(mdev_uart.o)
UART_DmaCmd                                       /home/wang/wmsdk_bundle-3.1.16/bin/wmsdk/libs/libdrv.a(mw300_uart.o)
                                                  /home/wang/wmsdk_bundle-3.1.16/bin/wmsdk/libs/libdrv.a(mdev_uart.o)
UART_Enable                                       /home/wang/wmsdk_bundle-3.1.16/bin/wmsdk/libs/libdrv.a(mw300_uart.o)
                                                  /home/wang/wmsdk_bundle-3.1.16/bin/wmsdk/libs/libdrv.a(mdev_uart.o)
UART_FifoConfig                                   /home/wang/wmsdk_bundle-3.1.16/bin/wmsdk/libs/libdrv.a(mw300_uart.o)
                                                  /home/wang/wmsdk_bundle-3.1.16/bin/wmsdk/libs/libdrv.a(mdev_uart.o)
UART_GetAutoBaudCount                             /home/wang/wmsdk_bundle-3.1.16/bin/wmsdk/libs/libdrv.a(mw300_uart.o)
UART_GetLineStatus                                /home/wang/wmsdk_bundle-3.1.16/bin/wmsdk/libs/libdrv.a(mw300_uart.o)
                                                  /home/wang/wmsdk_bundle-3.1.16/bin/wmsdk/libs/libdrv.a(mdev_uart.o)
UART_GetModemStatus                               /home/wang/wmsdk_bundle-3.1.16/bin/wmsdk/libs/libdrv.a(mw300_uart.o)
UART_GetRxFIFOLevel                               /home/wang/wmsdk_bundle-3.1.16/bin/wmsdk/libs/libdrv.a(mw300_uart.o)
UART_Init                                         /home/wang/wmsdk_bundle-3.1.16/bin/wmsdk/libs/libdrv.a(mw300_uart.o)
                                                  /home/wang/wmsdk_bundle-3.1.16/bin/wmsdk/libs/libdrv.a(mdev_uart.o)
UART_IntHandler                                   /home/wang/wmsdk_bundle-3.1.16/bin/wmsdk/libs/libdrv.a(mw300_uart.o)
UART_IntMask                                      /home/wang/wmsdk_bundle-3.1.16/bin/wmsdk/libs/libdrv.a(mw300_uart.o)
                                                  /home/wang/wmsdk_bundle-3.1.16/bin/wmsdk/libs/libdrv.a(mdev_uart.o)
UART_IrConfig                                     /home/wang/wmsdk_bundle-3.1.16/bin/wmsdk/libs/libdrv.a(mw300_uart.o)
UART_RTS_Assert                                   /home/wang/wmsdk_bundle-3.1.16/bin/wmsdk/libs/libdrv.a(mw300_uart.o)
UART_RTS_Deassert                                 /home/wang/wmsdk_bundle-3.1.16/bin/wmsdk/libs/libdrv.a(mw300_uart.o)
UART_Receive9bits                                 /home/wang/wmsdk_bundle-3.1.16/bin/wmsdk/libs/libdrv.a(mw300_uart.o)
                                                  /home/wang/wmsdk_bundle-3.1.16/bin/wmsdk/libs/libdrv.a(mdev_uart.o)
UART_ReceiveData                                  /home/wang/wmsdk_bundle-3.1.16/bin/wmsdk/libs/libdrv.a(mw300_uart.o)
                                                  /home/wang/wmsdk_bundle-3.1.16/bin/wmsdk/libs/libdrv.a(mdev_uart.o)
UART_Send9bits                                    /home/wang/wmsdk_bundle-3.1.16/bin/wmsdk/libs/libdrv.a(mw300_uart.o)
                                                  /home/wang/wmsdk_bundle-3.1.16/bin/wmsdk/libs/libdrv.a(mdev_uart.o)
UART_SendData                                     /home/wang/wmsdk_bundle-3.1.16/bin/wmsdk/libs/libdrv.a(mw300_uart.o)
                                                  /home/wang/wmsdk_bundle-3.1.16/bin/wmsdk/libs/libdrv.a(mdev_uart.o)
UART_SetAutoBaudDL                                /home/wang/wmsdk_bundle-3.1.16/bin/wmsdk/libs/libdrv.a(mw300_uart.o)
UART_SetBreakCmd                                  /home/wang/wmsdk_bundle-3.1.16/bin/wmsdk/libs/libdrv.a(mw300_uart.o)
UART_SetDTRSignal                                 /home/wang/wmsdk_bundle-3.1.16/bin/wmsdk/libs/libdrv.a(mw300_uart.o)
UART_SetLoopBackMode                              /home/wang/wmsdk_bundle-3.1.16/bin/wmsdk/libs/libdrv.a(mw300_uart.o)
UART_SetOut1Signal                                /home/wang/wmsdk_bundle-3.1.16/bin/wmsdk/libs/libdrv.a(mw300_uart.o)
UART_SetOut2Signal                                /home/wang/wmsdk_bundle-3.1.16/bin/wmsdk/libs/libdrv.a(mw300_uart.o)
UART_SetStopBits                                  /home/wang/wmsdk_bundle-3.1.16/bin/wmsdk/libs/libdrv.a(mw300_uart.o)
                                                  /home/wang/wmsdk_bundle-3.1.16/bin/wmsdk/libs/libdrv.a(mdev_uart.o)
UART_WriteLine                                    /home/wang/wmsdk_bundle-3.1.16/bin/wmsdk/libs/libdrv.a(mw300_uart.o)
                                                  /home/wang/wmsdk_bundle-3.1.16/bin/wmsdk/libs/libwmstdio.a(wmstdio.o)
ULPCOMP_IRQHandler                                /home/wang/wmsdk_bundle-3.1.16/bin/wmsdk/libs/libdrv.a(mdev_startup.o)
USB_IRQHandler                                    /home/wang/wmsdk_bundle-3.1.16/bin/wmsdk/libs/libdrv.a(mdev_startup.o)
UsageFault_IRQHandler                             /home/wang/wmsdk_bundle-3.1.16/bin/wmsdk/libs/libdrv.a(mdev_startup.o)
WDT_IRQHandler                                    /home/wang/wmsdk_bundle-3.1.16/bin/wmsdk/libs/libdrv.a(mdev_startup.o)
WIFIWKUP_IRQHandler                               /home/wang/wmsdk_bundle-3.1.16/bin/wmsdk/libs/libdrv.a(mw300_pmu.o)
                                                  /home/wang/wmsdk_bundle-3.1.16/bin/wmsdk/libs/libdrv.a(mdev_startup.o)
__adddf3                                          /home/wang/work/gcc-arm-none-eabi-4_8-2014q2/bin/../lib/gcc/arm-none-eabi/4.8.4/armv7e-m/libgcc.a(_arm_addsubdf3.o)
__aeabi_d2iz                                      /home/wang/work/gcc-arm-none-eabi-4_8-2014q2/bin/../lib/gcc/arm-none-eabi/4.8.4/armv7e-m/libgcc.a(_arm_fixdfsi.o)
                                                  /home/wang/wmsdk_bundle-3.1.16/bin/wmsdk/libs/libdrv.a(mdev_startup.o)
__aeabi_dadd                                      /home/wang/work/gcc-arm-none-eabi-4_8-2014q2/bin/../lib/gcc/arm-none-eabi/4.8.4/armv7e-m/libgcc.a(_arm_addsubdf3.o)
                                                  /home/wang/wmsdk_bundle-3.1.16/bin/wmsdk/libs/libdrv.a(mdev_startup.o)
__aeabi_ddiv                                      /home/wang/work/gcc-arm-none-eabi-4_8-2014q2/bin/../lib/gcc/arm-none-eabi/4.8.4/armv7e-m/libgcc.a(_arm_muldivdf3.o)
                                                  /home/wang/wmsdk_bundle-3.1.16/bin/wmsdk/libs/libdrv.a(mdev_startup.o)
__aeabi_dmul                                      /home/wang/work/gcc-arm-none-eabi-4_8-2014q2/bin/../lib/gcc/arm-none-eabi/4.8.4/armv7e-m/libgcc.a(_arm_muldivdf3.o)
__aeabi_drsub                                     /home/wang/work/gcc-arm-none-eabi-4_8-2014q2/bin/../lib/gcc/arm-none-eabi/4.8.4/armv7e-m/libgcc.a(_arm_addsubdf3.o)
__aeabi_dsub                                      /home/wang/work/gcc-arm-none-eabi-4_8-2014q2/bin/../lib/gcc/arm-none-eabi/4.8.4/armv7e-m/libgcc.a(_arm_addsubdf3.o)
__aeabi_f2d                                       /home/wang/work/gcc-arm-none-eabi-4_8-2014q2/bin/../lib/gcc/arm-none-eabi/4.8.4/armv7e-m/libgcc.a(_arm_addsubdf3.o)
__aeabi_i2d                                       /home/wang/work/gcc-arm-none-eabi-4_8-2014q2/bin/../lib/gcc/arm-none-eabi/4.8.4/armv7e-m/libgcc.a(_arm_addsubdf3.o)
                                                  /home/wang/wmsdk_bundle-3.1.16/bin/wmsdk/libs/libdrv.a(mdev_startup.o)
__aeabi_idiv0                                     /home/wang/work/gcc-arm-none-eabi-4_8-2014q2/bin/../lib/gcc/arm-none-eabi/4.8.4/armv7e-m/libgcc.a(_dvmd_tls.o)
__aeabi_l2d                                       /home/wang/work/gcc-arm-none-eabi-4_8-2014q2/bin/../lib/gcc/arm-none-eabi/4.8.4/armv7e-m/libgcc.a(_arm_addsubdf3.o)
__aeabi_ldiv0                                     /home/wang/work/gcc-arm-none-eabi-4_8-2014q2/bin/../lib/gcc/arm-none-eabi/4.8.4/armv7e-m/libgcc.a(_dvmd_tls.o)
                                                  /home/wang/work/gcc-arm-none-eabi-4_8-2014q2/bin/../lib/gcc/arm-none-eabi/4.8.4/armv7e-m/libgcc.a(_aeabi_uldivmod.o)
__aeabi_ui2d                                      /home/wang/work/gcc-arm-none-eabi-4_8-2014q2/bin/../lib/gcc/arm-none-eabi/4.8.4/armv7e-m/libgcc.a(_arm_addsubdf3.o)
__aeabi_ul2d                                      /home/wang/work/gcc-arm-none-eabi-4_8-2014q2/bin/../lib/gcc/arm-none-eabi/4.8.4/armv7e-m/libgcc.a(_arm_addsubdf3.o)
__aeabi_uldivmod                                  /home/wang/work/gcc-arm-none-eabi-4_8-2014q2/bin/../lib/gcc/arm-none-eabi/4.8.4/armv7e-m/libgcc.a(_aeabi_uldivmod.o)
                                                  /home/wang/wmsdk_bundle-3.1.16/bin/wmsdk/libs/libc.a(vsnprintf.o)
                                                  /home/wang/wmsdk_bundle-3.1.16/bin/wmsdk/libs/libdrv.a(mw300_clock.o)
__console_wmprintf                                /home/wang/wmsdk_bundle-3.1.16/bin/wmsdk/libs/libwmstdio.a(wmstdio.o)
__ctypes                                          /home/wang/wmsdk_bundle-3.1.16/bin/wmsdk/libs/libc.a(ctypes.o)
                                                  /home/wang/wmsdk_bundle-3.1.16/bin/wmsdk/libs/libc.a(strcasecmp.o)
                                                  /home/wang/wmsdk_bundle-3.1.16/bin/wmsdk/libs/libcli.a(cli.o)
                                                  /home/wang/wmsdk_bundle-3.1.16/bin/wmsdk/libs/libc.a(strntoumax.o)
                                                  /home/wang/wmsdk_bundle-3.1.16/bin/wmsdk/libs/libc.a(vsscanf.o)
__divdf3                                          /home/wang/work/gcc-arm-none-eabi-4_8-2014q2/bin/../lib/gcc/arm-none-eabi/4.8.4/armv7e-m/libgcc.a(_arm_muldivdf3.o)
__divdi3                                          /home/wang/work/gcc-arm-none-eabi-4_8-2014q2/bin/../lib/gcc/arm-none-eabi/4.8.4/armv7e-m/libgcc.a(_divdi3.o)
                                                  /home/wang/work/gcc-arm-none-eabi-4_8-2014q2/bin/../lib/gcc/arm-none-eabi/4.8.4/armv7e-m/libgcc.a(bpabi.o)
__extendsfdf2                                     /home/wang/work/gcc-arm-none-eabi-4_8-2014q2/bin/../lib/gcc/arm-none-eabi/4.8.4/armv7e-m/libgcc.a(_arm_addsubdf3.o)
__fixdfsi                                         /home/wang/work/gcc-arm-none-eabi-4_8-2014q2/bin/../lib/gcc/arm-none-eabi/4.8.4/armv7e-m/libgcc.a(_arm_fixdfsi.o)
__floatdidf                                       /home/wang/work/gcc-arm-none-eabi-4_8-2014q2/bin/../lib/gcc/arm-none-eabi/4.8.4/armv7e-m/libgcc.a(_arm_addsubdf3.o)
__floatsidf                                       /home/wang/work/gcc-arm-none-eabi-4_8-2014q2/bin/../lib/gcc/arm-none-eabi/4.8.4/armv7e-m/libgcc.a(_arm_addsubdf3.o)
__floatundidf                                     /home/wang/work/gcc-arm-none-eabi-4_8-2014q2/bin/../lib/gcc/arm-none-eabi/4.8.4/armv7e-m/libgcc.a(_arm_addsubdf3.o)
__floatunsidf                                     /home/wang/work/gcc-arm-none-eabi-4_8-2014q2/bin/../lib/gcc/arm-none-eabi/4.8.4/armv7e-m/libgcc.a(_arm_addsubdf3.o)
__gnu_ldivmod_helper                              /home/wang/work/gcc-arm-none-eabi-4_8-2014q2/bin/../lib/gcc/arm-none-eabi/4.8.4/armv7e-m/libgcc.a(bpabi.o)
__gnu_uldivmod_helper                             /home/wang/work/gcc-arm-none-eabi-4_8-2014q2/bin/../lib/gcc/arm-none-eabi/4.8.4/armv7e-m/libgcc.a(bpabi.o)
                                                  /home/wang/work/gcc-arm-none-eabi-4_8-2014q2/bin/../lib/gcc/arm-none-eabi/4.8.4/armv7e-m/libgcc.a(_aeabi_uldivmod.o)
__muldf3                                          /home/wang/work/gcc-arm-none-eabi-4_8-2014q2/bin/../lib/gcc/arm-none-eabi/4.8.4/armv7e-m/libgcc.a(_arm_muldivdf3.o)
__strxspn                                         /home/wang/wmsdk_bundle-3.1.16/bin/wmsdk/libs/libc.a(strxspn.o)
                                                  /home/wang/wmsdk_bundle-3.1.16/bin/wmsdk/libs/libc.a(strpbrk.o)
__subdf3                                          /home/wang/work/gcc-arm-none-eabi-4_8-2014q2/bin/../lib/gcc/arm-none-eabi/4.8.4/armv7e-m/libgcc.a(_arm_addsubdf3.o)
__udivdi3                                         /home/wang/work/gcc-arm-none-eabi-4_8-2014q2/bin/../lib/gcc/arm-none-eabi/4.8.4/armv7e-m/libgcc.a(_udivdi3.o)
                                                  /home/wang/work/gcc-arm-none-eabi-4_8-2014q2/bin/../lib/gcc/arm-none-eabi/4.8.4/armv7e-m/libgcc.a(bpabi.o)
__vector_table                                    /home/wang/wmsdk_bundle-3.1.16/bin/wmsdk/libs/libdrv.a(mdev_startup.o)
_bss                                              /home/wang/wmsdk_bundle-3.1.16/bin/wmsdk/libs/libdrv.a(mdev_startup.o)
_ebss                                             /home/wang/wmsdk_bundle-3.1.16/bin/wmsdk/libs/libdrv.a(mdev_startup.o)
_estack                                           /home/wang/wmsdk_bundle-3.1.16/bin/wmsdk/libs/libdrv.a(mdev_startup.o)
_flashc_mem_start                                 /home/wang/wmsdk_bundle-3.1.16/bin/wmsdk/libs/libdrv.a(mdev_iflash.o)
_heap_end                                         /home/wang/wmsdk_bundle-3.1.16/bin/wmsdk/libs/libfreertos.a(heap_4.o)
_heap_start                                       /home/wang/wmsdk_bundle-3.1.16/bin/wmsdk/libs/libfreertos.a(heap_4.o)
_nvram_begin                                      /home/wang/wmsdk_bundle-3.1.16/bin/wmsdk/libs/libdrv.a(mdev_startup.o)
_nvram_end                                        /home/wang/wmsdk_bundle-3.1.16/bin/wmsdk/libs/libdrv.a(mdev_startup.o)
_nvram_start                                      /home/wang/wmsdk_bundle-3.1.16/bin/wmsdk/libs/libdrv.a(mdev_pm.o)
_os_delay                                         /home/wang/wmsdk_bundle-3.1.16/bin/wmsdk/libs/libos.a(os.o)
                                                  obj/board.o
                                                  /home/wang/wmsdk_bundle-3.1.16/bin/wmsdk/libs/libdrv.a(mdev_rtc.o)
                                                  /home/wang/wmsdk_bundle-3.1.16/bin/wmsdk/libs/libdrv.a(mdev_pm.o)
acompIntCb                                        /home/wang/wmsdk_bundle-3.1.16/bin/wmsdk/libs/libdrv.a(mw300_driver.o)
adc0IntCb                                         /home/wang/wmsdk_bundle-3.1.16/bin/wmsdk/libs/libdrv.a(mw300_driver.o)
aesIntCb                                          /home/wang/wmsdk_bundle-3.1.16/bin/wmsdk/libs/libdrv.a(mw300_driver.o)
alloc                                             /home/wang/wmsdk_bundle-3.1.16/bin/wmsdk/libs/libcli.a(cli_mem_simple.o)
app_start                                         /home/wang/wmsdk_bundle-3.1.16/bin/wmsdk/libs/libos.a(os.o)
arch_pm_init                                      /home/wang/wmsdk_bundle-3.1.16/bin/wmsdk/libs/libdrv.a(mdev_pm.o)
                                                  /home/wang/wmsdk_bundle-3.1.16/bin/wmsdk/libs/libpwrmgr.a(pwrmgr.o)
arch_reboot                                       /home/wang/wmsdk_bundle-3.1.16/bin/wmsdk/libs/libdrv.a(mdev_pm.o)
                                                  /home/wang/wmsdk_bundle-3.1.16/bin/wmsdk/libs/libpwrmgr.a(pwrmgr.o)
asm_mcu_pm3                                       /home/wang/wmsdk_bundle-3.1.16/bin/wmsdk/libs/libdrv.a(mdev_pm.o)
atoi                                              /home/wang/wmsdk_bundle-3.1.16/bin/wmsdk/libs/libc.a(atoi.o)
                                                  /home/wang/wmsdk_bundle-3.1.16/bin/wmsdk/libs/libpwrmgr.a(pwrmgr.o)
audio_read                                        obj/audio_read_write.o
                                                  obj/save_file_addr.o
                                                  obj/main.o
audio_write                                       obj/audio_read_write.o
                                                  obj/save_file_addr.o
board_32k_osc                                     obj/board.o
                                                  /home/wang/wmsdk_bundle-3.1.16/bin/wmsdk/libs/libdrv.a(mdev_rtc.o)
board_32k_xtal                                    obj/board.o
                                                  /home/wang/wmsdk_bundle-3.1.16/bin/wmsdk/libs/libdrv.a(mdev_rtc.o)
board_button_1                                    obj/board.o
board_button_2                                    obj/board.o
board_button_3                                    obj/board.o
board_button_pressed                              obj/board.o
board_console_uart_id                             obj/board.o
board_cpu_freq                                    obj/board.o
                                                  /home/wang/wmsdk_bundle-3.1.16/bin/wmsdk/libs/libos.a(os.o)
                                                  /home/wang/wmsdk_bundle-3.1.16/bin/wmsdk/libs/libfreertos.a(port.o)
                                                  /home/wang/wmsdk_bundle-3.1.16/bin/wmsdk/libs/libdrv.a(mdev_startup.o)
board_gpio_power_on                               obj/board.o
                                                  /home/wang/wmsdk_bundle-3.1.16/bin/wmsdk/libs/libdrv.a(mdev_startup.o)
board_i2c_pin_config                              obj/board.o
board_led_1                                       obj/board.o
board_led_2                                       obj/board.o
board_led_3                                       obj/board.o
board_led_4                                       obj/board.o
board_led_off                                     obj/board.o
board_led_on                                      obj/board.o
board_main_osc                                    obj/board.o
board_main_xtal                                   obj/board.o
                                                  /home/wang/wmsdk_bundle-3.1.16/bin/wmsdk/libs/libdrv.a(mdev_startup.o)
board_rc32k_calib                                 obj/board.o
                                                  /home/wang/wmsdk_bundle-3.1.16/bin/wmsdk/libs/libdrv.a(mdev_rtc.o)
board_sdio_pdn                                    obj/board.o
board_sdio_pdn_support                            obj/board.o
board_sdio_pwr                                    obj/board.o
board_sdio_reset                                  obj/board.o
board_ssp_pin_config                              obj/board.o
board_supports_5GHz                               obj/board.o
board_uart_pin_config                             obj/board.o
                                                  /home/wang/wmsdk_bundle-3.1.16/bin/wmsdk/libs/libdrv.a(mdev_uart.o)
board_usb_pin_config                              obj/board.o
board_wakeup0_functional                          obj/board.o
                                                  /home/wang/wmsdk_bundle-3.1.16/bin/wmsdk/libs/libdrv.a(mdev_pm.o)
board_wakeup1_functional                          obj/board.o
                                                  /home/wang/wmsdk_bundle-3.1.16/bin/wmsdk/libs/libdrv.a(mdev_pm.o)
board_wifi_host_wakeup                            obj/board.o
boot_init                                         /home/wang/wmsdk_bundle-3.1.16/bin/wmsdk/libs/libutil.a(boot_flags.o)
                                                  /home/wang/wmsdk_bundle-3.1.16/bin/wmsdk/libs/libdrv.a(mdev_startup.o)
boot_report_flags                                 /home/wang/wmsdk_bundle-3.1.16/bin/wmsdk/libs/libutil.a(boot_flags.o)
buff1                                             /home/wang/wmsdk_bundle-3.1.16/bin/wmsdk/libs/libcli.a(cli_mem_simple.o)
buff2                                             /home/wang/wmsdk_bundle-3.1.16/bin/wmsdk/libs/libcli.a(cli_mem_simple.o)
c_stdio_funcs                                     /home/wang/wmsdk_bundle-3.1.16/bin/wmsdk/libs/libwmstdio.a(wmstdio.o)
                                                  /home/wang/wmsdk_bundle-3.1.16/bin/wmsdk/libs/libwmstdio.a(console.o)
cli_get_cmd_buffer                                /home/wang/wmsdk_bundle-3.1.16/bin/wmsdk/libs/libcli.a(cli.o)
cli_init                                          /home/wang/wmsdk_bundle-3.1.16/bin/wmsdk/libs/libcli.a(cli.o)
cli_install_UART_Tick                             /home/wang/wmsdk_bundle-3.1.16/bin/wmsdk/libs/libcli.a(cli.o)
cli_mem_cleanup                                   /home/wang/wmsdk_bundle-3.1.16/bin/wmsdk/libs/libcli.a(cli_mem_simple.o)
                                                  /home/wang/wmsdk_bundle-3.1.16/bin/wmsdk/libs/libcli.a(cli.o)
cli_mem_free                                      /home/wang/wmsdk_bundle-3.1.16/bin/wmsdk/libs/libcli.a(cli_mem_simple.o)
                                                  /home/wang/wmsdk_bundle-3.1.16/bin/wmsdk/libs/libcli.a(cli.o)
cli_mem_init                                      /home/wang/wmsdk_bundle-3.1.16/bin/wmsdk/libs/libcli.a(cli_mem_simple.o)
                                                  /home/wang/wmsdk_bundle-3.1.16/bin/wmsdk/libs/libcli.a(cli.o)
cli_mem_malloc                                    /home/wang/wmsdk_bundle-3.1.16/bin/wmsdk/libs/libcli.a(cli_mem_simple.o)
                                                  /home/wang/wmsdk_bundle-3.1.16/bin/wmsdk/libs/libcli.a(cli.o)
cli_mutex                                         /home/wang/wmsdk_bundle-3.1.16/bin/wmsdk/libs/libcli.a(cli.o)
cli_register_command                              /home/wang/wmsdk_bundle-3.1.16/bin/wmsdk/libs/libcli.a(cli.o)
                                                  /home/wang/wmsdk_bundle-3.1.16/bin/wmsdk/libs/libpwrmgr.a(pwrmgr.o)
cli_register_commands                             /home/wang/wmsdk_bundle-3.1.16/bin/wmsdk/libs/libcli.a(cli.o)
cli_remove_UART_Tick                              /home/wang/wmsdk_bundle-3.1.16/bin/wmsdk/libs/libcli.a(cli.o)
cli_start                                         /home/wang/wmsdk_bundle-3.1.16/bin/wmsdk/libs/libcli.a(cli.o)
cli_stop                                          /home/wang/wmsdk_bundle-3.1.16/bin/wmsdk/libs/libcli.a(cli.o)
cli_submit_cmd_buffer                             /home/wang/wmsdk_bundle-3.1.16/bin/wmsdk/libs/libcli.a(cli.o)
cli_unregister_command                            /home/wang/wmsdk_bundle-3.1.16/bin/wmsdk/libs/libcli.a(cli.o)
cli_unregister_commands                           /home/wang/wmsdk_bundle-3.1.16/bin/wmsdk/libs/libcli.a(cli.o)
crcIntCb                                          /home/wang/wmsdk_bundle-3.1.16/bin/wmsdk/libs/libdrv.a(mw300_driver.o)
critical_error                                    /home/wang/wmsdk_bundle-3.1.16/bin/wmsdk/libs/libutil.a(critical_error.o)
                                                  /home/wang/wmsdk_bundle-3.1.16/bin/wmsdk/libs/libdrv.a(mdev_startup.o)
critical_error_msg                                /home/wang/wmsdk_bundle-3.1.16/bin/wmsdk/libs/libutil.a(critical_error.o)
dacIntCb                                          /home/wang/wmsdk_bundle-3.1.16/bin/wmsdk/libs/libdrv.a(mw300_driver.o)
dmaCh0IntCb                                       /home/wang/wmsdk_bundle-3.1.16/bin/wmsdk/libs/libdrv.a(mw300_driver.o)
dmaCh10IntCb                                      /home/wang/wmsdk_bundle-3.1.16/bin/wmsdk/libs/libdrv.a(mw300_driver.o)
dmaCh11IntCb                                      /home/wang/wmsdk_bundle-3.1.16/bin/wmsdk/libs/libdrv.a(mw300_driver.o)
dmaCh12IntCb                                      /home/wang/wmsdk_bundle-3.1.16/bin/wmsdk/libs/libdrv.a(mw300_driver.o)
dmaCh13IntCb                                      /home/wang/wmsdk_bundle-3.1.16/bin/wmsdk/libs/libdrv.a(mw300_driver.o)
dmaCh14IntCb                                      /home/wang/wmsdk_bundle-3.1.16/bin/wmsdk/libs/libdrv.a(mw300_driver.o)
dmaCh15IntCb                                      /home/wang/wmsdk_bundle-3.1.16/bin/wmsdk/libs/libdrv.a(mw300_driver.o)
dmaCh16IntCb                                      /home/wang/wmsdk_bundle-3.1.16/bin/wmsdk/libs/libdrv.a(mw300_driver.o)
dmaCh17IntCb                                      /home/wang/wmsdk_bundle-3.1.16/bin/wmsdk/libs/libdrv.a(mw300_driver.o)
dmaCh18IntCb                                      /home/wang/wmsdk_bundle-3.1.16/bin/wmsdk/libs/libdrv.a(mw300_driver.o)
dmaCh19IntCb                                      /home/wang/wmsdk_bundle-3.1.16/bin/wmsdk/libs/libdrv.a(mw300_driver.o)
dmaCh1IntCb                                       /home/wang/wmsdk_bundle-3.1.16/bin/wmsdk/libs/libdrv.a(mw300_driver.o)
dmaCh20IntCb                                      /home/wang/wmsdk_bundle-3.1.16/bin/wmsdk/libs/libdrv.a(mw300_driver.o)
dmaCh21IntCb                                      /home/wang/wmsdk_bundle-3.1.16/bin/wmsdk/libs/libdrv.a(mw300_driver.o)
dmaCh22IntCb                                      /home/wang/wmsdk_bundle-3.1.16/bin/wmsdk/libs/libdrv.a(mw300_driver.o)
dmaCh23IntCb                                      /home/wang/wmsdk_bundle-3.1.16/bin/wmsdk/libs/libdrv.a(mw300_driver.o)
dmaCh24IntCb                                      /home/wang/wmsdk_bundle-3.1.16/bin/wmsdk/libs/libdrv.a(mw300_driver.o)
dmaCh25IntCb                                      /home/wang/wmsdk_bundle-3.1.16/bin/wmsdk/libs/libdrv.a(mw300_driver.o)
dmaCh26IntCb                                      /home/wang/wmsdk_bundle-3.1.16/bin/wmsdk/libs/libdrv.a(mw300_driver.o)
dmaCh27IntCb                                      /home/wang/wmsdk_bundle-3.1.16/bin/wmsdk/libs/libdrv.a(mw300_driver.o)
dmaCh28IntCb                                      /home/wang/wmsdk_bundle-3.1.16/bin/wmsdk/libs/libdrv.a(mw300_driver.o)
dmaCh29IntCb                                      /home/wang/wmsdk_bundle-3.1.16/bin/wmsdk/libs/libdrv.a(mw300_driver.o)
dmaCh2IntCb                                       /home/wang/wmsdk_bundle-3.1.16/bin/wmsdk/libs/libdrv.a(mw300_driver.o)
dmaCh30IntCb                                      /home/wang/wmsdk_bundle-3.1.16/bin/wmsdk/libs/libdrv.a(mw300_driver.o)
dmaCh31IntCb                                      /home/wang/wmsdk_bundle-3.1.16/bin/wmsdk/libs/libdrv.a(mw300_driver.o)
dmaCh3IntCb                                       /home/wang/wmsdk_bundle-3.1.16/bin/wmsdk/libs/libdrv.a(mw300_driver.o)
dmaCh4IntCb                                       /home/wang/wmsdk_bundle-3.1.16/bin/wmsdk/libs/libdrv.a(mw300_driver.o)
dmaCh5IntCb                                       /home/wang/wmsdk_bundle-3.1.16/bin/wmsdk/libs/libdrv.a(mw300_driver.o)
dmaCh6IntCb                                       /home/wang/wmsdk_bundle-3.1.16/bin/wmsdk/libs/libdrv.a(mw300_driver.o)
dmaCh7IntCb                                       /home/wang/wmsdk_bundle-3.1.16/bin/wmsdk/libs/libdrv.a(mw300_driver.o)
dmaCh8IntCb                                       /home/wang/wmsdk_bundle-3.1.16/bin/wmsdk/libs/libdrv.a(mw300_driver.o)
dmaCh9IntCb                                       /home/wang/wmsdk_bundle-3.1.16/bin/wmsdk/libs/libdrv.a(mw300_driver.o)
dma_drv_close                                     /home/wang/wmsdk_bundle-3.1.16/bin/wmsdk/libs/libdrv.a(mdev_dma.o)
                                                  /home/wang/wmsdk_bundle-3.1.16/bin/wmsdk/libs/libdrv.a(mdev_uart.o)
dma_drv_deinit                                    /home/wang/wmsdk_bundle-3.1.16/bin/wmsdk/libs/libdrv.a(mdev_dma.o)
dma_drv_init                                      /home/wang/wmsdk_bundle-3.1.16/bin/wmsdk/libs/libdrv.a(mdev_dma.o)
                                                  /home/wang/wmsdk_bundle-3.1.16/bin/wmsdk/libs/libdrv.a(mdev_uart.o)
dma_drv_open                                      /home/wang/wmsdk_bundle-3.1.16/bin/wmsdk/libs/libdrv.a(mdev_dma.o)
                                                  /home/wang/wmsdk_bundle-3.1.16/bin/wmsdk/libs/libdrv.a(mdev_uart.o)
dma_drv_set_cb                                    /home/wang/wmsdk_bundle-3.1.16/bin/wmsdk/libs/libdrv.a(mdev_dma.o)
dma_drv_transfer                                  /home/wang/wmsdk_bundle-3.1.16/bin/wmsdk/libs/libdrv.a(mdev_dma.o)
                                                  /home/wang/wmsdk_bundle-3.1.16/bin/wmsdk/libs/libdrv.a(mdev_uart.o)
dma_drv_wait_for_transfer_complete                /home/wang/wmsdk_bundle-3.1.16/bin/wmsdk/libs/libdrv.a(mdev_dma.o)
                                                  /home/wang/wmsdk_bundle-3.1.16/bin/wmsdk/libs/libdrv.a(mdev_uart.o)
empty_funcs                                       /home/wang/wmsdk_bundle-3.1.16/bin/wmsdk/libs/libwmstdio.a(wmstdio.o)
extpin0IntCb                                      /home/wang/wmsdk_bundle-3.1.16/bin/wmsdk/libs/libdrv.a(mw300_driver.o)
extpin0_cb                                        /home/wang/wmsdk_bundle-3.1.16/bin/wmsdk/libs/libdrv.a(mdev_pm.o)
extpin1IntCb                                      /home/wang/wmsdk_bundle-3.1.16/bin/wmsdk/libs/libdrv.a(mw300_driver.o)
extpin1_cb                                        /home/wang/wmsdk_bundle-3.1.16/bin/wmsdk/libs/libdrv.a(mdev_pm.o)
file_info                                         obj/main.o
                                                  obj/save_file_addr.o
file_read                                         obj/save_file_addr.o
                                                  obj/main.o
file_type                                         obj/save_file_addr.o
file_type_storage                                 obj/main.o
file_write                                        obj/save_file_addr.o
fl_dev_list                                       /home/wang/wmsdk_bundle-3.1.16/bin/wmsdk/libs/libdrv.a(mw300_flash.o)
flash_drv_close                                   /home/wang/wmsdk_bundle-3.1.16/bin/wmsdk/libs/libutil.a(flash.o)
                                                  obj/audio_read_write.o
flash_drv_erase                                   /home/wang/wmsdk_bundle-3.1.16/bin/wmsdk/libs/libutil.a(flash.o)
                                                  obj/audio_read_write.o
flash_drv_eraseall                                /home/wang/wmsdk_bundle-3.1.16/bin/wmsdk/libs/libutil.a(flash.o)
flash_drv_get_id                                  /home/wang/wmsdk_bundle-3.1.16/bin/wmsdk/libs/libutil.a(flash.o)
flash_drv_init                                    /home/wang/wmsdk_bundle-3.1.16/bin/wmsdk/libs/libutil.a(flash.o)
                                                  obj/audio_read_write.o
flash_drv_open                                    /home/wang/wmsdk_bundle-3.1.16/bin/wmsdk/libs/libutil.a(flash.o)
                                                  obj/audio_read_write.o
flash_drv_read                                    /home/wang/wmsdk_bundle-3.1.16/bin/wmsdk/libs/libutil.a(flash.o)
                                                  obj/audio_read_write.o
flash_drv_write                                   /home/wang/wmsdk_bundle-3.1.16/bin/wmsdk/libs/libutil.a(flash.o)
                                                  obj/audio_read_write.o
g_boot_flags                                      /home/wang/wmsdk_bundle-3.1.16/bin/wmsdk/libs/libutil.a(boot_flags.o)
                                                  /home/wang/wmsdk_bundle-3.1.16/bin/wmsdk/libs/libcli.a(cli.o)
g_os_idle_hooks                                   /home/wang/wmsdk_bundle-3.1.16/bin/wmsdk/libs/libos.a(os.o)
                                                  /home/wang/wmsdk_bundle-3.1.16/bin/wmsdk/libs/libcli.a(cli.o)
                                                  /home/wang/wmsdk_bundle-3.1.16/bin/wmsdk/libs/libdrv.a(mdev_pm.o)
g_os_tick_hooks                                   /home/wang/wmsdk_bundle-3.1.16/bin/wmsdk/libs/libos.a(os.o)
g_prev_version_fw                                 /home/wang/wmsdk_bundle-3.1.16/bin/wmsdk/libs/libutil.a(boot_flags.o)
g_rst_cause                                       /home/wang/wmsdk_bundle-3.1.16/bin/wmsdk/libs/libutil.a(boot_flags.o)
g_sys_lock                                        /home/wang/wmsdk_bundle-3.1.16/bin/wmsdk/libs/libos.a(os.o)
                                                  /home/wang/wmsdk_bundle-3.1.16/bin/wmsdk/libs/libpwrmgr.a(pwrmgr.o)
get_current_taskname                              /home/wang/wmsdk_bundle-3.1.16/bin/wmsdk/libs/libfreertos.a(tasks.o)
                                                  /home/wang/wmsdk_bundle-3.1.16/bin/wmsdk/libs/libdrv.a(mdev_startup.o)
getheapAllocInfo                                  /home/wang/wmsdk_bundle-3.1.16/bin/wmsdk/libs/libfreertos.a(heap_4.o)
gpt0IntCb                                         /home/wang/wmsdk_bundle-3.1.16/bin/wmsdk/libs/libdrv.a(mw300_driver.o)
gpt1IntCb                                         /home/wang/wmsdk_bundle-3.1.16/bin/wmsdk/libs/libdrv.a(mw300_driver.o)
gpt2IntCb                                         /home/wang/wmsdk_bundle-3.1.16/bin/wmsdk/libs/libdrv.a(mw300_driver.o)
gpt3IntCb                                         /home/wang/wmsdk_bundle-3.1.16/bin/wmsdk/libs/libdrv.a(mw300_driver.o)
gpt_drv_close                                     /home/wang/wmsdk_bundle-3.1.16/bin/wmsdk/libs/libdrv.a(mdev_gpt.o)
                                                  /home/wang/wmsdk_bundle-3.1.16/bin/wmsdk/libs/libdrv.a(mdev_rtc.o)
gpt_drv_init                                      /home/wang/wmsdk_bundle-3.1.16/bin/wmsdk/libs/libdrv.a(mdev_gpt.o)
                                                  /home/wang/wmsdk_bundle-3.1.16/bin/wmsdk/libs/libdrv.a(mdev_rtc.o)
gpt_drv_open                                      /home/wang/wmsdk_bundle-3.1.16/bin/wmsdk/libs/libdrv.a(mdev_gpt.o)
                                                  /home/wang/wmsdk_bundle-3.1.16/bin/wmsdk/libs/libdrv.a(mdev_rtc.o)
gpt_drv_pwm                                       /home/wang/wmsdk_bundle-3.1.16/bin/wmsdk/libs/libdrv.a(mdev_gpt.o)
                                                  /home/wang/wmsdk_bundle-3.1.16/bin/wmsdk/libs/libdrv.a(mdev_rtc.o)
gpt_drv_set                                       /home/wang/wmsdk_bundle-3.1.16/bin/wmsdk/libs/libdrv.a(mdev_gpt.o)
                                                  /home/wang/wmsdk_bundle-3.1.16/bin/wmsdk/libs/libdrv.a(mdev_rtc.o)
gpt_drv_setcb                                     /home/wang/wmsdk_bundle-3.1.16/bin/wmsdk/libs/libdrv.a(mdev_gpt.o)
gpt_drv_start                                     /home/wang/wmsdk_bundle-3.1.16/bin/wmsdk/libs/libdrv.a(mdev_gpt.o)
                                                  /home/wang/wmsdk_bundle-3.1.16/bin/wmsdk/libs/libdrv.a(mdev_rtc.o)
gpt_drv_stop                                      /home/wang/wmsdk_bundle-3.1.16/bin/wmsdk/libs/libdrv.a(mdev_gpt.o)
                                                  /home/wang/wmsdk_bundle-3.1.16/bin/wmsdk/libs/libdrv.a(mdev_rtc.o)
hwrtc_init                                        /home/wang/wmsdk_bundle-3.1.16/bin/wmsdk/libs/libwmtime.a(hwrtc.o)
hwrtc_time_get                                    /home/wang/wmsdk_bundle-3.1.16/bin/wmsdk/libs/libwmtime.a(hwrtc.o)
hwrtc_time_set                                    /home/wang/wmsdk_bundle-3.1.16/bin/wmsdk/libs/libwmtime.a(hwrtc.o)
hwrtc_time_update                                 /home/wang/wmsdk_bundle-3.1.16/bin/wmsdk/libs/libwmtime.a(hwrtc.o)
                                                  /home/wang/wmsdk_bundle-3.1.16/bin/wmsdk/libs/libpwrmgr.a(pwrmgr.o)
i2c0IntCb                                         /home/wang/wmsdk_bundle-3.1.16/bin/wmsdk/libs/libdrv.a(mw300_driver.o)
i2c1IntCb                                         /home/wang/wmsdk_bundle-3.1.16/bin/wmsdk/libs/libdrv.a(mw300_driver.o)
iflash_drv_close                                  /home/wang/wmsdk_bundle-3.1.16/bin/wmsdk/libs/libdrv.a(mdev_iflash.o)
                                                  /home/wang/wmsdk_bundle-3.1.16/bin/wmsdk/libs/libutil.a(flash.o)
iflash_drv_erase                                  /home/wang/wmsdk_bundle-3.1.16/bin/wmsdk/libs/libdrv.a(mdev_iflash.o)
                                                  /home/wang/wmsdk_bundle-3.1.16/bin/wmsdk/libs/libutil.a(flash.o)
iflash_drv_eraseall                               /home/wang/wmsdk_bundle-3.1.16/bin/wmsdk/libs/libdrv.a(mdev_iflash.o)
                                                  /home/wang/wmsdk_bundle-3.1.16/bin/wmsdk/libs/libutil.a(flash.o)
iflash_drv_get_id                                 /home/wang/wmsdk_bundle-3.1.16/bin/wmsdk/libs/libdrv.a(mdev_iflash.o)
                                                  /home/wang/wmsdk_bundle-3.1.16/bin/wmsdk/libs/libutil.a(flash.o)
iflash_drv_init                                   /home/wang/wmsdk_bundle-3.1.16/bin/wmsdk/libs/libdrv.a(mdev_iflash.o)
                                                  /home/wang/wmsdk_bundle-3.1.16/bin/wmsdk/libs/libutil.a(flash.o)
iflash_drv_open                                   /home/wang/wmsdk_bundle-3.1.16/bin/wmsdk/libs/libdrv.a(mdev_iflash.o)
                                                  /home/wang/wmsdk_bundle-3.1.16/bin/wmsdk/libs/libutil.a(flash.o)
iflash_drv_read                                   /home/wang/wmsdk_bundle-3.1.16/bin/wmsdk/libs/libdrv.a(mdev_iflash.o)
                                                  /home/wang/wmsdk_bundle-3.1.16/bin/wmsdk/libs/libutil.a(flash.o)
iflash_drv_write                                  /home/wang/wmsdk_bundle-3.1.16/bin/wmsdk/libs/libdrv.a(mdev_iflash.o)
                                                  /home/wang/wmsdk_bundle-3.1.16/bin/wmsdk/libs/libutil.a(flash.o)
iflash_flashc_to_qspi_erase                       /home/wang/wmsdk_bundle-3.1.16/bin/wmsdk/libs/libdrv.a(mdev_iflash.o)
iflash_flashc_to_qspi_eraseall                    /home/wang/wmsdk_bundle-3.1.16/bin/wmsdk/libs/libdrv.a(mdev_iflash.o)
iflash_flashc_to_qspi_read                        /home/wang/wmsdk_bundle-3.1.16/bin/wmsdk/libs/libdrv.a(mdev_iflash.o)
iflash_flashc_to_qspi_read_jedecid                /home/wang/wmsdk_bundle-3.1.16/bin/wmsdk/libs/libdrv.a(mdev_iflash.o)
iflash_flashc_to_qspi_read_uniqid                 /home/wang/wmsdk_bundle-3.1.16/bin/wmsdk/libs/libdrv.a(mdev_iflash.o)
iflash_flashc_to_qspi_write                       /home/wang/wmsdk_bundle-3.1.16/bin/wmsdk/libs/libdrv.a(mdev_iflash.o)
init_struct_flash                                 obj/save_file_addr.o
                                                  obj/main.o
install_int_callback                              /home/wang/wmsdk_bundle-3.1.16/bin/wmsdk/libs/libdrv.a(mw300_driver.o)
                                                  /home/wang/wmsdk_bundle-3.1.16/bin/wmsdk/libs/libdrv.a(mdev_uart.o)
                                                  /home/wang/wmsdk_bundle-3.1.16/bin/wmsdk/libs/libdrv.a(mdev_gpt.o)
                                                  /home/wang/wmsdk_bundle-3.1.16/bin/wmsdk/libs/libdrv.a(mdev_rtc.o)
                                                  /home/wang/wmsdk_bundle-3.1.16/bin/wmsdk/libs/libdrv.a(mdev_pm.o)
intCbfArra                                        /home/wang/wmsdk_bundle-3.1.16/bin/wmsdk/libs/libdrv.a(mw300_driver.o)
                                                  /home/wang/wmsdk_bundle-3.1.16/bin/wmsdk/libs/libdrv.a(mw300_qspi.o)
                                                  /home/wang/wmsdk_bundle-3.1.16/bin/wmsdk/libs/libdrv.a(mw300_uart.o)
                                                  /home/wang/wmsdk_bundle-3.1.16/bin/wmsdk/libs/libdrv.a(mw300_gpio.o)
                                                  /home/wang/wmsdk_bundle-3.1.16/bin/wmsdk/libs/libdrv.a(mw300_gpt.o)
                                                  /home/wang/wmsdk_bundle-3.1.16/bin/wmsdk/libs/libdrv.a(mw300_rtc.o)
                                                  /home/wang/wmsdk_bundle-3.1.16/bin/wmsdk/libs/libdrv.a(mw300_pmu.o)
                                                  /home/wang/wmsdk_bundle-3.1.16/bin/wmsdk/libs/libdrv.a(mw300_clock.o)
is_pm_init_done                                   /home/wang/wmsdk_bundle-3.1.16/bin/wmsdk/libs/libpwrmgr.a(pwrmgr.o)
                                                  /home/wang/wmsdk_bundle-3.1.16/bin/wmsdk/libs/libdrv.a(mdev_pm.o)
led_on_off                                        obj/board.o
ll_printf                                         /home/wang/wmsdk_bundle-3.1.16/bin/wmsdk/libs/libwmstdio.a(wmstdio.o)
                                                  /home/wang/wmsdk_bundle-3.1.16/bin/wmsdk/libs/libdrv.a(mdev_uart.o)
                                                  /home/wang/wmsdk_bundle-3.1.16/bin/wmsdk/libs/libos.a(os.o)
                                                  /home/wang/wmsdk_bundle-3.1.16/bin/wmsdk/libs/libdrv.a(mdev_startup.o)
main                                              obj/main.o
                                                  /home/wang/wmsdk_bundle-3.1.16/bin/wmsdk/libs/libos.a(os.o)
mcu_pm2                                           /home/wang/wmsdk_bundle-3.1.16/bin/wmsdk/libs/libdrv.a(mdev_pm.o)
mdev_deregister                                   /home/wang/wmsdk_bundle-3.1.16/bin/wmsdk/libs/libmdev.a(mdev.o)
                                                  /home/wang/wmsdk_bundle-3.1.16/bin/wmsdk/libs/libdrv.a(mdev_dma.o)
                                                  /home/wang/wmsdk_bundle-3.1.16/bin/wmsdk/libs/libdrv.a(mdev_uart.o)
mdev_get_handle                                   /home/wang/wmsdk_bundle-3.1.16/bin/wmsdk/libs/libmdev.a(mdev.o)
                                                  /home/wang/wmsdk_bundle-3.1.16/bin/wmsdk/libs/libdrv.a(mdev_iflash.o)
                                                  /home/wang/wmsdk_bundle-3.1.16/bin/wmsdk/libs/libdrv.a(mdev_uart.o)
                                                  /home/wang/wmsdk_bundle-3.1.16/bin/wmsdk/libs/libdrv.a(mdev_gpt.o)
                                                  /home/wang/wmsdk_bundle-3.1.16/bin/wmsdk/libs/libdrv.a(mdev_rtc.o)
mdev_register                                     /home/wang/wmsdk_bundle-3.1.16/bin/wmsdk/libs/libmdev.a(mdev.o)
                                                  /home/wang/wmsdk_bundle-3.1.16/bin/wmsdk/libs/libdrv.a(mdev_iflash.o)
                                                  /home/wang/wmsdk_bundle-3.1.16/bin/wmsdk/libs/libdrv.a(mdev_dma.o)
                                                  /home/wang/wmsdk_bundle-3.1.16/bin/wmsdk/libs/libdrv.a(mdev_uart.o)
                                                  /home/wang/wmsdk_bundle-3.1.16/bin/wmsdk/libs/libdrv.a(mdev_gpt.o)
                                                  /home/wang/wmsdk_bundle-3.1.16/bin/wmsdk/libs/libdrv.a(mdev_rtc.o)
memcmp                                            /home/wang/wmsdk_bundle-3.1.16/bin/wmsdk/libs/libc.a(memcmp.o)
                                                  /home/wang/wmsdk_bundle-3.1.16/bin/wmsdk/libs/libc.a(memmem.o)
                                                  /home/wang/wmsdk_bundle-3.1.16/bin/wmsdk/libs/libfreertos.a(tasks.o)
memcpy                                            /home/wang/work/gcc-arm-none-eabi-4_8-2014q2/bin/../lib/gcc/arm-none-eabi/4.8.4/../../../../arm-none-eabi/lib/armv7e-m/libg.a(lib_a-memcpy.o)
                                                  /home/wang/wmsdk_bundle-3.1.16/bin/wmsdk/libs/libdrv.a(mdev_iflash.o)
                                                  /home/wang/wmsdk_bundle-3.1.16/bin/wmsdk/libs/libcli.a(cli.o)
                                                  /home/wang/wmsdk_bundle-3.1.16/bin/wmsdk/libs/libfreertos.a(heap_4.o)
                                                  /home/wang/wmsdk_bundle-3.1.16/bin/wmsdk/libs/libfreertos.a(queue.o)
memmem                                            /home/wang/wmsdk_bundle-3.1.16/bin/wmsdk/libs/libc.a(memmem.o)
                                                  /home/wang/wmsdk_bundle-3.1.16/bin/wmsdk/libs/libc.a(strstr.o)
memmove                                           /home/wang/work/gcc-arm-none-eabi-4_8-2014q2/bin/../lib/gcc/arm-none-eabi/4.8.4/../../../../arm-none-eabi/lib/armv7e-m/libg.a(lib_a-memmove.o)
                                                  /home/wang/wmsdk_bundle-3.1.16/bin/wmsdk/libs/libcli.a(cli.o)
memset                                            /home/wang/work/gcc-arm-none-eabi-4_8-2014q2/bin/../lib/gcc/arm-none-eabi/4.8.4/../../../../arm-none-eabi/lib/armv7e-m/libg.a(lib_a-memset.o)
                                                  /home/wang/wmsdk_bundle-3.1.16/bin/wmsdk/libs/libcli.a(cli.o)
                                                  /home/wang/wmsdk_bundle-3.1.16/bin/wmsdk/libs/libc.a(strxspn.o)
                                                  /home/wang/wmsdk_bundle-3.1.16/bin/wmsdk/libs/libc.a(strncpy.o)
                                                  /home/wang/wmsdk_bundle-3.1.16/bin/wmsdk/libs/libc.a(vsscanf.o)
                                                  obj/save_file_addr.o
                                                  /home/wang/wmsdk_bundle-3.1.16/bin/wmsdk/libs/libos.a(os.o)
                                                  /home/wang/wmsdk_bundle-3.1.16/bin/wmsdk/libs/libfreertos.a(heap_4.o)
                                                  /home/wang/wmsdk_bundle-3.1.16/bin/wmsdk/libs/libfreertos.a(tasks.o)
                                                  /home/wang/wmsdk_bundle-3.1.16/bin/wmsdk/libs/libdrv.a(mdev_pm.o)
                                                  /home/wang/wmsdk_bundle-3.1.16/bin/wmsdk/libs/libdrv.a(mdev_startup.o)
mpuIntCb                                          /home/wang/wmsdk_bundle-3.1.16/bin/wmsdk/libs/libdrv.a(mw300_driver.o)
nvram_saved_sp_addr                               /home/wang/wmsdk_bundle-3.1.16/bin/wmsdk/libs/libdrv.a(mdev_pm.o)
os_disable_all_interrupts                         /home/wang/wmsdk_bundle-3.1.16/bin/wmsdk/libs/libos.a(os.o)
                                                  /home/wang/wmsdk_bundle-3.1.16/bin/wmsdk/libs/libdrv.a(mdev_pm.o)
os_dump_threadinfo                                /home/wang/wmsdk_bundle-3.1.16/bin/wmsdk/libs/libos.a(os.o)
os_enable_all_interrupts                          /home/wang/wmsdk_bundle-3.1.16/bin/wmsdk/libs/libos.a(os.o)
                                                  /home/wang/wmsdk_bundle-3.1.16/bin/wmsdk/libs/libdrv.a(mdev_pm.o)
os_event_flags_create                             /home/wang/wmsdk_bundle-3.1.16/bin/wmsdk/libs/libos.a(os.o)
os_event_flags_delete                             /home/wang/wmsdk_bundle-3.1.16/bin/wmsdk/libs/libos.a(os.o)
os_event_flags_get                                /home/wang/wmsdk_bundle-3.1.16/bin/wmsdk/libs/libos.a(os.o)
os_event_flags_set                                /home/wang/wmsdk_bundle-3.1.16/bin/wmsdk/libs/libos.a(os.o)
os_get_timestamp                                  /home/wang/wmsdk_bundle-3.1.16/bin/wmsdk/libs/libos.a(os.o)
os_init                                           /home/wang/wmsdk_bundle-3.1.16/bin/wmsdk/libs/libos.a(os.o)
                                                  /home/wang/wmsdk_bundle-3.1.16/bin/wmsdk/libs/libdrv.a(mdev_startup.o)
os_queue_create                                   /home/wang/wmsdk_bundle-3.1.16/bin/wmsdk/libs/libos.a(os.o)
                                                  /home/wang/wmsdk_bundle-3.1.16/bin/wmsdk/libs/libcli.a(cli.o)
os_rwlock_create                                  /home/wang/wmsdk_bundle-3.1.16/bin/wmsdk/libs/libos.a(os.o)
os_rwlock_create_with_cb                          /home/wang/wmsdk_bundle-3.1.16/bin/wmsdk/libs/libos.a(os.o)
os_rwlock_delete                                  /home/wang/wmsdk_bundle-3.1.16/bin/wmsdk/libs/libos.a(os.o)
os_rwlock_read_lock                               /home/wang/wmsdk_bundle-3.1.16/bin/wmsdk/libs/libos.a(os.o)
os_rwlock_read_unlock                             /home/wang/wmsdk_bundle-3.1.16/bin/wmsdk/libs/libos.a(os.o)
os_rwlock_write_lock                              /home/wang/wmsdk_bundle-3.1.16/bin/wmsdk/libs/libos.a(os.o)
os_rwlock_write_unlock                            /home/wang/wmsdk_bundle-3.1.16/bin/wmsdk/libs/libos.a(os.o)
os_thread_create                                  /home/wang/wmsdk_bundle-3.1.16/bin/wmsdk/libs/libos.a(os.o)
                                                  /home/wang/wmsdk_bundle-3.1.16/bin/wmsdk/libs/libcli.a(cli.o)
os_thread_stackmark                               /home/wang/wmsdk_bundle-3.1.16/bin/wmsdk/libs/libos.a(os.o)
os_timer_create                                   /home/wang/wmsdk_bundle-3.1.16/bin/wmsdk/libs/libos.a(os.o)
pMdevList                                         /home/wang/wmsdk_bundle-3.1.16/bin/wmsdk/libs/libmdev.a(mdev.o)
pm3_entryaddr                                     /home/wang/wmsdk_bundle-3.1.16/bin/wmsdk/libs/libdrv.a(mdev_pm.o)
pm4_sig                                           /home/wang/wmsdk_bundle-3.1.16/bin/wmsdk/libs/libdrv.a(mdev_pm.o)
                                                  /home/wang/wmsdk_bundle-3.1.16/bin/wmsdk/libs/libdrv.a(mdev_startup.o)
pm_change_event                                   /home/wang/wmsdk_bundle-3.1.16/bin/wmsdk/libs/libpwrmgr.a(pwrmgr.o)
pm_cli_init                                       /home/wang/wmsdk_bundle-3.1.16/bin/wmsdk/libs/libpwrmgr.a(pwrmgr.o)
pm_deregister_cb                                  /home/wang/wmsdk_bundle-3.1.16/bin/wmsdk/libs/libpwrmgr.a(pwrmgr.o)
pm_init                                           /home/wang/wmsdk_bundle-3.1.16/bin/wmsdk/libs/libpwrmgr.a(pwrmgr.o)
pm_invoke_ps_callback                             /home/wang/wmsdk_bundle-3.1.16/bin/wmsdk/libs/libpwrmgr.a(pwrmgr.o)
                                                  /home/wang/wmsdk_bundle-3.1.16/bin/wmsdk/libs/libdrv.a(mdev_pm.o)
pm_mcu_cfg                                        /home/wang/wmsdk_bundle-3.1.16/bin/wmsdk/libs/libdrv.a(mdev_pm.o)
                                                  /home/wang/wmsdk_bundle-3.1.16/bin/wmsdk/libs/libpwrmgr.a(pwrmgr.o)
pm_mcu_cli_init                                   /home/wang/wmsdk_bundle-3.1.16/bin/wmsdk/libs/libpwrmgr.a(pwrmgr.o)
pm_mcu_get_mode                                   /home/wang/wmsdk_bundle-3.1.16/bin/wmsdk/libs/libdrv.a(mdev_pm.o)
pm_mcu_io_cfg                                     /home/wang/wmsdk_bundle-3.1.16/bin/wmsdk/libs/libdrv.a(mdev_pm.o)
                                                  /home/wang/wmsdk_bundle-3.1.16/bin/wmsdk/libs/libpwrmgr.a(pwrmgr.o)
pm_mcu_is_enabled                                 /home/wang/wmsdk_bundle-3.1.16/bin/wmsdk/libs/libdrv.a(mdev_pm.o)
pm_mcu_state                                      /home/wang/wmsdk_bundle-3.1.16/bin/wmsdk/libs/libdrv.a(mdev_pm.o)
                                                  /home/wang/wmsdk_bundle-3.1.16/bin/wmsdk/libs/libpwrmgr.a(pwrmgr.o)
pm_pm0_in_idle                                    /home/wang/wmsdk_bundle-3.1.16/bin/wmsdk/libs/libdrv.a(mdev_pm.o)
pm_reboot_soc                                     /home/wang/wmsdk_bundle-3.1.16/bin/wmsdk/libs/libpwrmgr.a(pwrmgr.o)
pm_register_cb                                    /home/wang/wmsdk_bundle-3.1.16/bin/wmsdk/libs/libpwrmgr.a(pwrmgr.o)
                                                  /home/wang/wmsdk_bundle-3.1.16/bin/wmsdk/libs/libdrv.a(mdev_uart.o)
                                                  /home/wang/wmsdk_bundle-3.1.16/bin/wmsdk/libs/libdrv.a(mdev_rtc.o)
pm_wakeup_source                                  /home/wang/wmsdk_bundle-3.1.16/bin/wmsdk/libs/libdrv.a(mdev_pm.o)
prvHeapInit                                       /home/wang/wmsdk_bundle-3.1.16/bin/wmsdk/libs/libfreertos.a(heap_4.o)
ps_wait                                           /home/wang/wmsdk_bundle-3.1.16/bin/wmsdk/libs/libdrv.a(mdev_pm.o)
pvPortMalloc                                      /home/wang/wmsdk_bundle-3.1.16/bin/wmsdk/libs/libfreertos.a(heap_4.o)
                                                  /home/wang/wmsdk_bundle-3.1.16/bin/wmsdk/libs/libdrv.a(mdev_uart.o)
                                                  obj/save_file_addr.o
                                                  /home/wang/wmsdk_bundle-3.1.16/bin/wmsdk/libs/libos.a(os.o)
                                                  /home/wang/wmsdk_bundle-3.1.16/bin/wmsdk/libs/libfreertos.a(timers.o)
                                                  /home/wang/wmsdk_bundle-3.1.16/bin/wmsdk/libs/libfreertos.a(tasks.o)
                                                  /home/wang/wmsdk_bundle-3.1.16/bin/wmsdk/libs/libfreertos.a(queue.o)
pvPortReAlloc                                     /home/wang/wmsdk_bundle-3.1.16/bin/wmsdk/libs/libfreertos.a(heap_4.o)
pvTimerGetTimerID                                 /home/wang/wmsdk_bundle-3.1.16/bin/wmsdk/libs/libfreertos.a(timers.o)
pxCurrentTCB                                      /home/wang/wmsdk_bundle-3.1.16/bin/wmsdk/libs/libfreertos.a(tasks.o)
                                                  /home/wang/wmsdk_bundle-3.1.16/bin/wmsdk/libs/libfreertos.a(port.o)
pxPortInitialiseStack                             /home/wang/wmsdk_bundle-3.1.16/bin/wmsdk/libs/libfreertos.a(port.o)
                                                  /home/wang/wmsdk_bundle-3.1.16/bin/wmsdk/libs/libfreertos.a(tasks.o)
qspiIntCb                                         /home/wang/wmsdk_bundle-3.1.16/bin/wmsdk/libs/libdrv.a(mw300_driver.o)
rc32mIntCb                                        /home/wang/wmsdk_bundle-3.1.16/bin/wmsdk/libs/libdrv.a(mw300_driver.o)
read_dma                                          /home/wang/wmsdk_bundle-3.1.16/bin/wmsdk/libs/libdrv.a(mdev_uart.o)
read_struct                                       obj/save_file_addr.o
                                                  obj/main.o
rtcIntCb                                          /home/wang/wmsdk_bundle-3.1.16/bin/wmsdk/libs/libdrv.a(mw300_driver.o)
rtc_drv_close                                     /home/wang/wmsdk_bundle-3.1.16/bin/wmsdk/libs/libdrv.a(mdev_rtc.o)
rtc_drv_get                                       /home/wang/wmsdk_bundle-3.1.16/bin/wmsdk/libs/libdrv.a(mdev_rtc.o)
                                                  /home/wang/wmsdk_bundle-3.1.16/bin/wmsdk/libs/libwmtime.a(hwrtc.o)
                                                  /home/wang/wmsdk_bundle-3.1.16/bin/wmsdk/libs/libdrv.a(mdev_pm.o)
rtc_drv_get_uppval                                /home/wang/wmsdk_bundle-3.1.16/bin/wmsdk/libs/libdrv.a(mdev_rtc.o)
                                                  /home/wang/wmsdk_bundle-3.1.16/bin/wmsdk/libs/libwmtime.a(hwrtc.o)
rtc_drv_init                                      /home/wang/wmsdk_bundle-3.1.16/bin/wmsdk/libs/libdrv.a(mdev_rtc.o)
                                                  /home/wang/wmsdk_bundle-3.1.16/bin/wmsdk/libs/libwmtime.a(hwrtc.o)
                                                  /home/wang/wmsdk_bundle-3.1.16/bin/wmsdk/libs/libpwrmgr.a(pwrmgr.o)
rtc_drv_open                                      /home/wang/wmsdk_bundle-3.1.16/bin/wmsdk/libs/libdrv.a(mdev_rtc.o)
                                                  /home/wang/wmsdk_bundle-3.1.16/bin/wmsdk/libs/libwmtime.a(hwrtc.o)
                                                  /home/wang/wmsdk_bundle-3.1.16/bin/wmsdk/libs/libdrv.a(mdev_pm.o)
rtc_drv_reset                                     /home/wang/wmsdk_bundle-3.1.16/bin/wmsdk/libs/libdrv.a(mdev_rtc.o)
                                                  /home/wang/wmsdk_bundle-3.1.16/bin/wmsdk/libs/libwmtime.a(hwrtc.o)
rtc_drv_set                                       /home/wang/wmsdk_bundle-3.1.16/bin/wmsdk/libs/libdrv.a(mdev_rtc.o)
                                                  /home/wang/wmsdk_bundle-3.1.16/bin/wmsdk/libs/libwmtime.a(hwrtc.o)
rtc_drv_set_alarm                                 /home/wang/wmsdk_bundle-3.1.16/bin/wmsdk/libs/libdrv.a(mdev_rtc.o)
                                                  /home/wang/wmsdk_bundle-3.1.16/bin/wmsdk/libs/libdrv.a(mdev_pm.o)
rtc_drv_set_alarm_cb                              /home/wang/wmsdk_bundle-3.1.16/bin/wmsdk/libs/libdrv.a(mdev_rtc.o)
                                                  /home/wang/wmsdk_bundle-3.1.16/bin/wmsdk/libs/libdrv.a(mdev_pm.o)
rtc_drv_set_cb                                    /home/wang/wmsdk_bundle-3.1.16/bin/wmsdk/libs/libdrv.a(mdev_rtc.o)
                                                  /home/wang/wmsdk_bundle-3.1.16/bin/wmsdk/libs/libwmtime.a(hwrtc.o)
rtc_drv_start                                     /home/wang/wmsdk_bundle-3.1.16/bin/wmsdk/libs/libdrv.a(mdev_rtc.o)
                                                  /home/wang/wmsdk_bundle-3.1.16/bin/wmsdk/libs/libwmtime.a(hwrtc.o)
rtc_drv_stop                                      /home/wang/wmsdk_bundle-3.1.16/bin/wmsdk/libs/libdrv.a(mdev_rtc.o)
rtc_xtal32k_ps_cb                                 /home/wang/wmsdk_bundle-3.1.16/bin/wmsdk/libs/libdrv.a(mdev_rtc.o)
sdioIntCb                                         /home/wang/wmsdk_bundle-3.1.16/bin/wmsdk/libs/libdrv.a(mw300_driver.o)
serial_console_flush                              /home/wang/wmsdk_bundle-3.1.16/bin/wmsdk/libs/libwmstdio.a(console.o)
serial_console_funcs                              /home/wang/wmsdk_bundle-3.1.16/bin/wmsdk/libs/libwmstdio.a(console.o)
serial_console_get_portid                         /home/wang/wmsdk_bundle-3.1.16/bin/wmsdk/libs/libwmstdio.a(console.o)
                                                  /home/wang/wmsdk_bundle-3.1.16/bin/wmsdk/libs/libwmstdio.a(wmstdio.o)
serial_console_getchar                            /home/wang/wmsdk_bundle-3.1.16/bin/wmsdk/libs/libwmstdio.a(console.o)
serial_console_init                               /home/wang/wmsdk_bundle-3.1.16/bin/wmsdk/libs/libwmstdio.a(console.o)
                                                  /home/wang/wmsdk_bundle-3.1.16/bin/wmsdk/libs/libwmstdio.a(wmstdio.o)
serial_console_printf                             /home/wang/wmsdk_bundle-3.1.16/bin/wmsdk/libs/libwmstdio.a(console.o)
                                                  /home/wang/wmsdk_bundle-3.1.16/bin/wmsdk/libs/libwmstdio.a(wmstdio.o)
serial_console_putchar                            /home/wang/wmsdk_bundle-3.1.16/bin/wmsdk/libs/libwmstdio.a(console.o)
show_audio_file_info                              obj/audio_read_write.o
                                                  obj/save_file_addr.o
snprintf                                          /home/wang/wmsdk_bundle-3.1.16/bin/wmsdk/libs/libc.a(snprintf.o)
                                                  /home/wang/wmsdk_bundle-3.1.16/bin/wmsdk/libs/libdrv.a(mdev_uart.o)
                                                  /home/wang/wmsdk_bundle-3.1.16/bin/wmsdk/libs/libfreertos.a(tasks.o)
sprintf                                           /home/wang/wmsdk_bundle-3.1.16/bin/wmsdk/libs/libc.a(sprintf.o)
                                                  /home/wang/wmsdk_bundle-3.1.16/bin/wmsdk/libs/libfreertos.a(tasks.o)
sscanf                                            /home/wang/wmsdk_bundle-3.1.16/bin/wmsdk/libs/libc.a(sscanf.o)
                                                  /home/wang/wmsdk_bundle-3.1.16/bin/wmsdk/libs/libos.a(os.o)
ssp0IntCb                                         /home/wang/wmsdk_bundle-3.1.16/bin/wmsdk/libs/libdrv.a(mw300_driver.o)
ssp1IntCb                                         /home/wang/wmsdk_bundle-3.1.16/bin/wmsdk/libs/libdrv.a(mw300_driver.o)
ssp2IntCb                                         /home/wang/wmsdk_bundle-3.1.16/bin/wmsdk/libs/libdrv.a(mw300_driver.o)
strcasecmp                                        /home/wang/wmsdk_bundle-3.1.16/bin/wmsdk/libs/libc.a(strcasecmp.o)
                                                  /home/wang/wmsdk_bundle-3.1.16/bin/wmsdk/libs/libcli.a(cli.o)
strcat                                            /home/wang/wmsdk_bundle-3.1.16/bin/wmsdk/libs/libc.a(strcat.o)
                                                  /home/wang/wmsdk_bundle-3.1.16/bin/wmsdk/libs/libfreertos.a(tasks.o)
strchr                                            /home/wang/wmsdk_bundle-3.1.16/bin/wmsdk/libs/libc.a(strchr.o)
                                                  /home/wang/wmsdk_bundle-3.1.16/bin/wmsdk/libs/libcli.a(cli.o)
                                                  /home/wang/wmsdk_bundle-3.1.16/bin/wmsdk/libs/libc.a(strcat.o)
strcmp                                            /home/wang/wmsdk_bundle-3.1.16/bin/wmsdk/libs/libc.a(strcmp.o)
                                                  /home/wang/wmsdk_bundle-3.1.16/bin/wmsdk/libs/libcli.a(cli.o)
                                                  /home/wang/wmsdk_bundle-3.1.16/bin/wmsdk/libs/libmdev.a(mdev.o)
strcpy                                            /home/wang/wmsdk_bundle-3.1.16/bin/wmsdk/libs/libc.a(strcpy.o)
                                                  /home/wang/wmsdk_bundle-3.1.16/bin/wmsdk/libs/libc.a(strcat.o)
strlen                                            /home/wang/wmsdk_bundle-3.1.16/bin/wmsdk/libs/libc.a(strlen.o)
                                                  /home/wang/wmsdk_bundle-3.1.16/bin/wmsdk/libs/libcli.a(cli.o)
                                                  /home/wang/wmsdk_bundle-3.1.16/bin/wmsdk/libs/libc.a(strstr.o)
                                                  /home/wang/wmsdk_bundle-3.1.16/bin/wmsdk/libs/libc.a(vsnprintf.o)
                                                  /home/wang/wmsdk_bundle-3.1.16/bin/wmsdk/libs/libwmstdio.a(console.o)
                                                  /home/wang/wmsdk_bundle-3.1.16/bin/wmsdk/libs/libos.a(os.o)
                                                  /home/wang/wmsdk_bundle-3.1.16/bin/wmsdk/libs/libfreertos.a(tasks.o)
strncmp                                           /home/wang/wmsdk_bundle-3.1.16/bin/wmsdk/libs/libc.a(strncmp.o)
                                                  /home/wang/wmsdk_bundle-3.1.16/bin/wmsdk/libs/libcli.a(cli.o)
                                                  /home/wang/wmsdk_bundle-3.1.16/bin/wmsdk/libs/libos.a(os.o)
strncpy                                           /home/wang/wmsdk_bundle-3.1.16/bin/wmsdk/libs/libc.a(strncpy.o)
                                                  /home/wang/wmsdk_bundle-3.1.16/bin/wmsdk/libs/libos.a(os.o)
                                                  /home/wang/wmsdk_bundle-3.1.16/bin/wmsdk/libs/libfreertos.a(tasks.o)
strntoumax                                        /home/wang/wmsdk_bundle-3.1.16/bin/wmsdk/libs/libc.a(strntoumax.o)
                                                  /home/wang/wmsdk_bundle-3.1.16/bin/wmsdk/libs/libc.a(vsscanf.o)
                                                  /home/wang/wmsdk_bundle-3.1.16/bin/wmsdk/libs/libc.a(atoi.o)
strpbrk                                           /home/wang/wmsdk_bundle-3.1.16/bin/wmsdk/libs/libc.a(strpbrk.o)
                                                  /home/wang/wmsdk_bundle-3.1.16/bin/wmsdk/libs/libc.a(strsep.o)
strsep                                            /home/wang/wmsdk_bundle-3.1.16/bin/wmsdk/libs/libc.a(strsep.o)
                                                  /home/wang/wmsdk_bundle-3.1.16/bin/wmsdk/libs/libc.a(strtok_r.o)
strstr                                            /home/wang/wmsdk_bundle-3.1.16/bin/wmsdk/libs/libc.a(strstr.o)
                                                  /home/wang/wmsdk_bundle-3.1.16/bin/wmsdk/libs/libos.a(os.o)
strtok                                            /home/wang/wmsdk_bundle-3.1.16/bin/wmsdk/libs/libc.a(strtok.o)
                                                  /home/wang/wmsdk_bundle-3.1.16/bin/wmsdk/libs/libos.a(os.o)
strtok_r                                          /home/wang/wmsdk_bundle-3.1.16/bin/wmsdk/libs/libc.a(strtok_r.o)
                                                  /home/wang/wmsdk_bundle-3.1.16/bin/wmsdk/libs/libc.a(strtok.o)
struct_build                                      obj/main.o
tcalib                                            /home/wang/wmsdk_bundle-3.1.16/bin/wmsdk/libs/libwmtime.a(hwrtc.o)
                                                  /home/wang/wmsdk_bundle-3.1.16/bin/wmsdk/libs/libdrv.a(mdev_pm.o)
uart0IntCb                                        /home/wang/wmsdk_bundle-3.1.16/bin/wmsdk/libs/libdrv.a(mw300_driver.o)
uart1IntCb                                        /home/wang/wmsdk_bundle-3.1.16/bin/wmsdk/libs/libdrv.a(mw300_driver.o)
uart2IntCb                                        /home/wang/wmsdk_bundle-3.1.16/bin/wmsdk/libs/libdrv.a(mw300_driver.o)
uart_drv_blocking_read                            /home/wang/wmsdk_bundle-3.1.16/bin/wmsdk/libs/libdrv.a(mdev_uart.o)
uart_drv_close                                    /home/wang/wmsdk_bundle-3.1.16/bin/wmsdk/libs/libdrv.a(mdev_uart.o)
uart_drv_deinit                                   /home/wang/wmsdk_bundle-3.1.16/bin/wmsdk/libs/libdrv.a(mdev_uart.o)
uart_drv_dma_rd_blk_size                          /home/wang/wmsdk_bundle-3.1.16/bin/wmsdk/libs/libdrv.a(mdev_uart.o)
uart_drv_get_portid                               /home/wang/wmsdk_bundle-3.1.16/bin/wmsdk/libs/libdrv.a(mdev_uart.o)
                                                  /home/wang/wmsdk_bundle-3.1.16/bin/wmsdk/libs/libwmstdio.a(console.o)
uart_drv_init                                     /home/wang/wmsdk_bundle-3.1.16/bin/wmsdk/libs/libdrv.a(mdev_uart.o)
                                                  /home/wang/wmsdk_bundle-3.1.16/bin/wmsdk/libs/libwmstdio.a(wmstdio.o)
uart_drv_open                                     /home/wang/wmsdk_bundle-3.1.16/bin/wmsdk/libs/libdrv.a(mdev_uart.o)
                                                  /home/wang/wmsdk_bundle-3.1.16/bin/wmsdk/libs/libwmstdio.a(console.o)
uart_drv_read                                     /home/wang/wmsdk_bundle-3.1.16/bin/wmsdk/libs/libdrv.a(mdev_uart.o)
                                                  /home/wang/wmsdk_bundle-3.1.16/bin/wmsdk/libs/libwmstdio.a(console.o)
uart_drv_rx_buf_reset                             /home/wang/wmsdk_bundle-3.1.16/bin/wmsdk/libs/libdrv.a(mdev_uart.o)
uart_drv_rxbuf_size                               /home/wang/wmsdk_bundle-3.1.16/bin/wmsdk/libs/libdrv.a(mdev_uart.o)
uart_drv_set_opts                                 /home/wang/wmsdk_bundle-3.1.16/bin/wmsdk/libs/libdrv.a(mdev_uart.o)
uart_drv_tx_flush                                 /home/wang/wmsdk_bundle-3.1.16/bin/wmsdk/libs/libdrv.a(mdev_uart.o)
                                                  /home/wang/wmsdk_bundle-3.1.16/bin/wmsdk/libs/libwmstdio.a(console.o)
uart_drv_write                                    /home/wang/wmsdk_bundle-3.1.16/bin/wmsdk/libs/libdrv.a(mdev_uart.o)
                                                  /home/wang/wmsdk_bundle-3.1.16/bin/wmsdk/libs/libwmstdio.a(console.o)
uart_drv_xfer_mode                                /home/wang/wmsdk_bundle-3.1.16/bin/wmsdk/libs/libdrv.a(mdev_uart.o)
uart_ps_cb                                        /home/wang/wmsdk_bundle-3.1.16/bin/wmsdk/libs/libdrv.a(mdev_uart.o)
ulKernelPriority                                  /home/wang/wmsdk_bundle-3.1.16/bin/wmsdk/libs/libfreertos.a(port.o)
ulTaskEndTrace                                    /home/wang/wmsdk_bundle-3.1.16/bin/wmsdk/libs/libfreertos.a(tasks.o)
update_time                                       /home/wang/wmsdk_bundle-3.1.16/bin/wmsdk/libs/libdrv.a(mdev_pm.o)
usbIntCb                                          /home/wang/wmsdk_bundle-3.1.16/bin/wmsdk/libs/libdrv.a(mw300_driver.o)
user_app_init                                     /home/wang/wmsdk_bundle-3.1.16/bin/wmsdk/libs/libos.a(os.o)
uxQueueMessagesWaiting                            /home/wang/wmsdk_bundle-3.1.16/bin/wmsdk/libs/libfreertos.a(queue.o)
                                                  /home/wang/wmsdk_bundle-3.1.16/bin/wmsdk/libs/libpwrmgr.a(pwrmgr.o)
uxQueueMessagesWaitingFromISR                     /home/wang/wmsdk_bundle-3.1.16/bin/wmsdk/libs/libfreertos.a(queue.o)
uxTaskGetNumberOfTasks                            /home/wang/wmsdk_bundle-3.1.16/bin/wmsdk/libs/libfreertos.a(tasks.o)
uxTaskGetStackHighWaterMark                       /home/wang/wmsdk_bundle-3.1.16/bin/wmsdk/libs/libfreertos.a(tasks.o)
uxTaskPriorityGet                                 /home/wang/wmsdk_bundle-3.1.16/bin/wmsdk/libs/libfreertos.a(tasks.o)
vApplicationIdleHook                              /home/wang/wmsdk_bundle-3.1.16/bin/wmsdk/libs/libos.a(os.o)
                                                  /home/wang/wmsdk_bundle-3.1.16/bin/wmsdk/libs/libfreertos.a(tasks.o)
vApplicationMallocFailedHook                      /home/wang/wmsdk_bundle-3.1.16/bin/wmsdk/libs/libos.a(os.o)
vApplicationStackOverflowHook                     /home/wang/wmsdk_bundle-3.1.16/bin/wmsdk/libs/libos.a(os.o)
                                                  /home/wang/wmsdk_bundle-3.1.16/bin/wmsdk/libs/libfreertos.a(tasks.o)
vApplicationTickHook                              /home/wang/wmsdk_bundle-3.1.16/bin/wmsdk/libs/libos.a(os.o)
                                                  /home/wang/wmsdk_bundle-3.1.16/bin/wmsdk/libs/libfreertos.a(tasks.o)
vGetTaskNamesInList                               /home/wang/wmsdk_bundle-3.1.16/bin/wmsdk/libs/libfreertos.a(tasks.o)
vGetWaiterListFromHandle                          /home/wang/wmsdk_bundle-3.1.16/bin/wmsdk/libs/libfreertos.a(queue.o)
vHeapSelfTest                                     /home/wang/wmsdk_bundle-3.1.16/bin/wmsdk/libs/libfreertos.a(heap_4.o)
vListInitialise                                   /home/wang/wmsdk_bundle-3.1.16/bin/wmsdk/libs/libfreertos.a(list.o)
                                                  /home/wang/wmsdk_bundle-3.1.16/bin/wmsdk/libs/libfreertos.a(timers.o)
                                                  /home/wang/wmsdk_bundle-3.1.16/bin/wmsdk/libs/libfreertos.a(tasks.o)
                                                  /home/wang/wmsdk_bundle-3.1.16/bin/wmsdk/libs/libfreertos.a(queue.o)
vListInitialiseItem                               /home/wang/wmsdk_bundle-3.1.16/bin/wmsdk/libs/libfreertos.a(list.o)
                                                  /home/wang/wmsdk_bundle-3.1.16/bin/wmsdk/libs/libfreertos.a(timers.o)
                                                  /home/wang/wmsdk_bundle-3.1.16/bin/wmsdk/libs/libfreertos.a(tasks.o)
vListInsert                                       /home/wang/wmsdk_bundle-3.1.16/bin/wmsdk/libs/libfreertos.a(list.o)
                                                  /home/wang/wmsdk_bundle-3.1.16/bin/wmsdk/libs/libfreertos.a(timers.o)
                                                  /home/wang/wmsdk_bundle-3.1.16/bin/wmsdk/libs/libfreertos.a(tasks.o)
vListInsertEnd                                    /home/wang/wmsdk_bundle-3.1.16/bin/wmsdk/libs/libfreertos.a(list.o)
                                                  /home/wang/wmsdk_bundle-3.1.16/bin/wmsdk/libs/libfreertos.a(tasks.o)
vListRemove                                       /home/wang/wmsdk_bundle-3.1.16/bin/wmsdk/libs/libfreertos.a(list.o)
                                                  /home/wang/wmsdk_bundle-3.1.16/bin/wmsdk/libs/libfreertos.a(timers.o)
                                                  /home/wang/wmsdk_bundle-3.1.16/bin/wmsdk/libs/libfreertos.a(tasks.o)
vPortBiggestFreeBlockSize                         /home/wang/wmsdk_bundle-3.1.16/bin/wmsdk/libs/libfreertos.a(heap_4.o)
vPortEndScheduler                                 /home/wang/wmsdk_bundle-3.1.16/bin/wmsdk/libs/libfreertos.a(port.o)
                                                  /home/wang/wmsdk_bundle-3.1.16/bin/wmsdk/libs/libfreertos.a(tasks.o)
vPortEnterCritical                                /home/wang/wmsdk_bundle-3.1.16/bin/wmsdk/libs/libfreertos.a(port.o)
                                                  /home/wang/wmsdk_bundle-3.1.16/bin/wmsdk/libs/libos.a(os.o)
                                                  /home/wang/wmsdk_bundle-3.1.16/bin/wmsdk/libs/libmdev.a(mdev.o)
                                                  /home/wang/wmsdk_bundle-3.1.16/bin/wmsdk/libs/libfreertos.a(timers.o)
                                                  /home/wang/wmsdk_bundle-3.1.16/bin/wmsdk/libs/libfreertos.a(tasks.o)
                                                  /home/wang/wmsdk_bundle-3.1.16/bin/wmsdk/libs/libfreertos.a(queue.o)
vPortExitCritical                                 /home/wang/wmsdk_bundle-3.1.16/bin/wmsdk/libs/libfreertos.a(port.o)
                                                  /home/wang/wmsdk_bundle-3.1.16/bin/wmsdk/libs/libos.a(os.o)
                                                  /home/wang/wmsdk_bundle-3.1.16/bin/wmsdk/libs/libmdev.a(mdev.o)
                                                  /home/wang/wmsdk_bundle-3.1.16/bin/wmsdk/libs/libfreertos.a(timers.o)
                                                  /home/wang/wmsdk_bundle-3.1.16/bin/wmsdk/libs/libfreertos.a(tasks.o)
                                                  /home/wang/wmsdk_bundle-3.1.16/bin/wmsdk/libs/libfreertos.a(queue.o)
vPortFree                                         /home/wang/wmsdk_bundle-3.1.16/bin/wmsdk/libs/libfreertos.a(heap_4.o)
                                                  /home/wang/wmsdk_bundle-3.1.16/bin/wmsdk/libs/libdrv.a(mdev_uart.o)
                                                  obj/save_file_addr.o
                                                  /home/wang/wmsdk_bundle-3.1.16/bin/wmsdk/libs/libos.a(os.o)
                                                  /home/wang/wmsdk_bundle-3.1.16/bin/wmsdk/libs/libfreertos.a(timers.o)
                                                  /home/wang/wmsdk_bundle-3.1.16/bin/wmsdk/libs/libfreertos.a(tasks.o)
                                                  /home/wang/wmsdk_bundle-3.1.16/bin/wmsdk/libs/libfreertos.a(queue.o)
vPortInitialiseBlocks                             /home/wang/wmsdk_bundle-3.1.16/bin/wmsdk/libs/libfreertos.a(heap_4.o)
vPortStartFirstTask                               /home/wang/wmsdk_bundle-3.1.16/bin/wmsdk/libs/libfreertos.a(port.o)
vPortYieldFromISR                                 /home/wang/wmsdk_bundle-3.1.16/bin/wmsdk/libs/libfreertos.a(port.o)
                                                  /home/wang/wmsdk_bundle-3.1.16/bin/wmsdk/libs/libdrv.a(mdev_iflash.o)
                                                  /home/wang/wmsdk_bundle-3.1.16/bin/wmsdk/libs/libdrv.a(mdev_dma.o)
                                                  /home/wang/wmsdk_bundle-3.1.16/bin/wmsdk/libs/libdrv.a(mdev_uart.o)
                                                  /home/wang/wmsdk_bundle-3.1.16/bin/wmsdk/libs/libcli.a(cli.o)
                                                  /home/wang/wmsdk_bundle-3.1.16/bin/wmsdk/libs/libwmstdio.a(wmstdio.o)
                                                  /home/wang/wmsdk_bundle-3.1.16/bin/wmsdk/libs/libpwrmgr.a(pwrmgr.o)
                                                  /home/wang/wmsdk_bundle-3.1.16/bin/wmsdk/libs/libos.a(os.o)
                                                  /home/wang/wmsdk_bundle-3.1.16/bin/wmsdk/libs/libfreertos.a(timers.o)
                                                  /home/wang/wmsdk_bundle-3.1.16/bin/wmsdk/libs/libfreertos.a(tasks.o)
                                                  /home/wang/wmsdk_bundle-3.1.16/bin/wmsdk/libs/libfreertos.a(queue.o)
                                                  /home/wang/wmsdk_bundle-3.1.16/bin/wmsdk/libs/libdrv.a(mdev_gpt.o)
vQueueDelete                                      /home/wang/wmsdk_bundle-3.1.16/bin/wmsdk/libs/libfreertos.a(queue.o)
                                                  /home/wang/wmsdk_bundle-3.1.16/bin/wmsdk/libs/libdrv.a(mdev_dma.o)
                                                  /home/wang/wmsdk_bundle-3.1.16/bin/wmsdk/libs/libdrv.a(mdev_uart.o)
                                                  /home/wang/wmsdk_bundle-3.1.16/bin/wmsdk/libs/libcli.a(cli.o)
                                                  /home/wang/wmsdk_bundle-3.1.16/bin/wmsdk/libs/libos.a(os.o)
vQueueWaitForMessageRestricted                    /home/wang/wmsdk_bundle-3.1.16/bin/wmsdk/libs/libfreertos.a(queue.o)
                                                  /home/wang/wmsdk_bundle-3.1.16/bin/wmsdk/libs/libfreertos.a(timers.o)
vTaskDelay                                        /home/wang/wmsdk_bundle-3.1.16/bin/wmsdk/libs/libfreertos.a(tasks.o)
                                                  /home/wang/wmsdk_bundle-3.1.16/bin/wmsdk/libs/libcli.a(cli.o)
                                                  obj/main.o
                                                  /home/wang/wmsdk_bundle-3.1.16/bin/wmsdk/libs/libos.a(os.o)
vTaskDelayAbort                                   /home/wang/wmsdk_bundle-3.1.16/bin/wmsdk/libs/libfreertos.a(tasks.o)
vTaskDelayUntil                                   /home/wang/wmsdk_bundle-3.1.16/bin/wmsdk/libs/libfreertos.a(tasks.o)
vTaskDelete                                       /home/wang/wmsdk_bundle-3.1.16/bin/wmsdk/libs/libfreertos.a(tasks.o)
                                                  /home/wang/wmsdk_bundle-3.1.16/bin/wmsdk/libs/libcli.a(cli.o)
                                                  /home/wang/wmsdk_bundle-3.1.16/bin/wmsdk/libs/libos.a(os.o)
vTaskEndScheduler                                 /home/wang/wmsdk_bundle-3.1.16/bin/wmsdk/libs/libfreertos.a(tasks.o)
vTaskIncrementTick                                /home/wang/wmsdk_bundle-3.1.16/bin/wmsdk/libs/libfreertos.a(tasks.o)
                                                  /home/wang/wmsdk_bundle-3.1.16/bin/wmsdk/libs/libfreertos.a(port.o)
vTaskList                                         /home/wang/wmsdk_bundle-3.1.16/bin/wmsdk/libs/libfreertos.a(tasks.o)
                                                  /home/wang/wmsdk_bundle-3.1.16/bin/wmsdk/libs/libos.a(os.o)
vTaskMissedYield                                  /home/wang/wmsdk_bundle-3.1.16/bin/wmsdk/libs/libfreertos.a(tasks.o)
                                                  /home/wang/wmsdk_bundle-3.1.16/bin/wmsdk/libs/libfreertos.a(queue.o)
vTaskPlaceOnEventList                             /home/wang/wmsdk_bundle-3.1.16/bin/wmsdk/libs/libfreertos.a(tasks.o)
                                                  /home/wang/wmsdk_bundle-3.1.16/bin/wmsdk/libs/libfreertos.a(queue.o)
vTaskPlaceOnEventListRestricted                   /home/wang/wmsdk_bundle-3.1.16/bin/wmsdk/libs/libfreertos.a(tasks.o)
                                                  /home/wang/wmsdk_bundle-3.1.16/bin/wmsdk/libs/libfreertos.a(queue.o)
vTaskPriorityDisinherit                           /home/wang/wmsdk_bundle-3.1.16/bin/wmsdk/libs/libfreertos.a(tasks.o)
                                                  /home/wang/wmsdk_bundle-3.1.16/bin/wmsdk/libs/libfreertos.a(queue.o)
vTaskPriorityInherit                              /home/wang/wmsdk_bundle-3.1.16/bin/wmsdk/libs/libfreertos.a(tasks.o)
                                                  /home/wang/wmsdk_bundle-3.1.16/bin/wmsdk/libs/libfreertos.a(queue.o)
vTaskPrioritySet                                  /home/wang/wmsdk_bundle-3.1.16/bin/wmsdk/libs/libfreertos.a(tasks.o)
vTaskResume                                       /home/wang/wmsdk_bundle-3.1.16/bin/wmsdk/libs/libfreertos.a(tasks.o)
vTaskSetTimeOutState                              /home/wang/wmsdk_bundle-3.1.16/bin/wmsdk/libs/libfreertos.a(tasks.o)
                                                  /home/wang/wmsdk_bundle-3.1.16/bin/wmsdk/libs/libfreertos.a(queue.o)
vTaskStartScheduler                               /home/wang/wmsdk_bundle-3.1.16/bin/wmsdk/libs/libfreertos.a(tasks.o)
                                                  /home/wang/wmsdk_bundle-3.1.16/bin/wmsdk/libs/libos.a(os.o)
vTaskStartTrace                                   /home/wang/wmsdk_bundle-3.1.16/bin/wmsdk/libs/libfreertos.a(tasks.o)
vTaskSuspend                                      /home/wang/wmsdk_bundle-3.1.16/bin/wmsdk/libs/libfreertos.a(tasks.o)
                                                  /home/wang/wmsdk_bundle-3.1.16/bin/wmsdk/libs/libcli.a(cli.o)
                                                  /home/wang/wmsdk_bundle-3.1.16/bin/wmsdk/libs/libos.a(os.o)
vTaskSuspendAll                                   /home/wang/wmsdk_bundle-3.1.16/bin/wmsdk/libs/libfreertos.a(tasks.o)
                                                  /home/wang/wmsdk_bundle-3.1.16/bin/wmsdk/libs/libfreertos.a(heap_4.o)
                                                  /home/wang/wmsdk_bundle-3.1.16/bin/wmsdk/libs/libfreertos.a(timers.o)
                                                  /home/wang/wmsdk_bundle-3.1.16/bin/wmsdk/libs/libfreertos.a(queue.o)
vTaskSwitchContext                                /home/wang/wmsdk_bundle-3.1.16/bin/wmsdk/libs/libfreertos.a(tasks.o)
                                                  /home/wang/wmsdk_bundle-3.1.16/bin/wmsdk/libs/libfreertos.a(port.o)
vsnprintf                                         /home/wang/wmsdk_bundle-3.1.16/bin/wmsdk/libs/libc.a(vsnprintf.o)
                                                  /home/wang/wmsdk_bundle-3.1.16/bin/wmsdk/libs/libc.a(sprintf.o)
                                                  /home/wang/wmsdk_bundle-3.1.16/bin/wmsdk/libs/libc.a(snprintf.o)
                                                  /home/wang/wmsdk_bundle-3.1.16/bin/wmsdk/libs/libwmstdio.a(wmstdio.o)
vsscanf                                           /home/wang/wmsdk_bundle-3.1.16/bin/wmsdk/libs/libc.a(vsscanf.o)
                                                  /home/wang/wmsdk_bundle-3.1.16/bin/wmsdk/libs/libc.a(sscanf.o)
wakelock_get                                      /home/wang/wmsdk_bundle-3.1.16/bin/wmsdk/libs/libpwrmgr.a(pwrmgr.o)
wakelock_get_debug                                /home/wang/wmsdk_bundle-3.1.16/bin/wmsdk/libs/libpwrmgr.a(pwrmgr.o)
wakelock_isheld                                   /home/wang/wmsdk_bundle-3.1.16/bin/wmsdk/libs/libpwrmgr.a(pwrmgr.o)
                                                  /home/wang/wmsdk_bundle-3.1.16/bin/wmsdk/libs/libdrv.a(mdev_pm.o)
wakelock_put                                      /home/wang/wmsdk_bundle-3.1.16/bin/wmsdk/libs/libpwrmgr.a(pwrmgr.o)
wakelock_put_debug                                /home/wang/wmsdk_bundle-3.1.16/bin/wmsdk/libs/libpwrmgr.a(pwrmgr.o)
wdtIntCb                                          /home/wang/wmsdk_bundle-3.1.16/bin/wmsdk/libs/libdrv.a(mw300_driver.o)
wifiwakeupIntCb                                   /home/wang/wmsdk_bundle-3.1.16/bin/wmsdk/libs/libdrv.a(mw300_driver.o)
wmprintf                                          /home/wang/wmsdk_bundle-3.1.16/bin/wmsdk/libs/libwmstdio.a(wmstdio.o)
                                                  /home/wang/wmsdk_bundle-3.1.16/bin/wmsdk/libs/libdrv.a(mdev_iflash.o)
                                                  /home/wang/wmsdk_bundle-3.1.16/bin/wmsdk/libs/libdrv.a(mdev_dma.o)
                                                  /home/wang/wmsdk_bundle-3.1.16/bin/wmsdk/libs/libdrv.a(mdev_uart.o)
                                                  /home/wang/wmsdk_bundle-3.1.16/bin/wmsdk/libs/libcli.a(cli.o)
                                                  obj/save_file_addr.o
                                                  obj/audio_read_write.o
                                                  obj/main.o
                                                  /home/wang/wmsdk_bundle-3.1.16/bin/wmsdk/libs/libutil.a(critical_error.o)
                                                  /home/wang/wmsdk_bundle-3.1.16/bin/wmsdk/libs/libutil.a(boot_flags.o)
                                                  /home/wang/wmsdk_bundle-3.1.16/bin/wmsdk/libs/libpwrmgr.a(pwrmgr.o)
                                                  /home/wang/wmsdk_bundle-3.1.16/bin/wmsdk/libs/libos.a(os.o)
                                                  /home/wang/wmsdk_bundle-3.1.16/bin/wmsdk/libs/libdrv.a(mdev_gpt.o)
                                                  /home/wang/wmsdk_bundle-3.1.16/bin/wmsdk/libs/libdrv.a(mdev_rtc.o)
                                                  /home/wang/wmsdk_bundle-3.1.16/bin/wmsdk/libs/libdrv.a(mdev_pm.o)
wmstdio_flush                                     /home/wang/wmsdk_bundle-3.1.16/bin/wmsdk/libs/libwmstdio.a(wmstdio.o)
                                                  /home/wang/wmsdk_bundle-3.1.16/bin/wmsdk/libs/libcli.a(cli.o)
wmstdio_getchar                                   /home/wang/wmsdk_bundle-3.1.16/bin/wmsdk/libs/libwmstdio.a(wmstdio.o)
                                                  /home/wang/wmsdk_bundle-3.1.16/bin/wmsdk/libs/libcli.a(cli.o)
wmstdio_getconsole_port                           /home/wang/wmsdk_bundle-3.1.16/bin/wmsdk/libs/libwmstdio.a(wmstdio.o)
wmstdio_init                                      /home/wang/wmsdk_bundle-3.1.16/bin/wmsdk/libs/libwmstdio.a(wmstdio.o)
                                                  obj/main.o
wmstdio_putchar                                   /home/wang/wmsdk_bundle-3.1.16/bin/wmsdk/libs/libwmstdio.a(wmstdio.o)
write_struct                                      obj/save_file_addr.o
                                                  obj/main.o
xPortGetFreeHeapSize                              /home/wang/wmsdk_bundle-3.1.16/bin/wmsdk/libs/libfreertos.a(heap_4.o)
xPortStartScheduler                               /home/wang/wmsdk_bundle-3.1.16/bin/wmsdk/libs/libfreertos.a(port.o)
                                                  /home/wang/wmsdk_bundle-3.1.16/bin/wmsdk/libs/libfreertos.a(tasks.o)
xQueueCreate                                      /home/wang/wmsdk_bundle-3.1.16/bin/wmsdk/libs/libfreertos.a(queue.o)
                                                  /home/wang/wmsdk_bundle-3.1.16/bin/wmsdk/libs/libdrv.a(mdev_dma.o)
                                                  /home/wang/wmsdk_bundle-3.1.16/bin/wmsdk/libs/libdrv.a(mdev_uart.o)
                                                  /home/wang/wmsdk_bundle-3.1.16/bin/wmsdk/libs/libos.a(os.o)
                                                  /home/wang/wmsdk_bundle-3.1.16/bin/wmsdk/libs/libfreertos.a(timers.o)
xQueueCreateCountingSemaphore                     /home/wang/wmsdk_bundle-3.1.16/bin/wmsdk/libs/libfreertos.a(queue.o)
                                                  /home/wang/wmsdk_bundle-3.1.16/bin/wmsdk/libs/libpwrmgr.a(pwrmgr.o)
xQueueCreateMutex                                 /home/wang/wmsdk_bundle-3.1.16/bin/wmsdk/libs/libfreertos.a(queue.o)
                                                  /home/wang/wmsdk_bundle-3.1.16/bin/wmsdk/libs/libdrv.a(mdev_iflash.o)
                                                  /home/wang/wmsdk_bundle-3.1.16/bin/wmsdk/libs/libdrv.a(mdev_dma.o)
                                                  /home/wang/wmsdk_bundle-3.1.16/bin/wmsdk/libs/libdrv.a(mdev_uart.o)
                                                  /home/wang/wmsdk_bundle-3.1.16/bin/wmsdk/libs/libcli.a(cli.o)
                                                  /home/wang/wmsdk_bundle-3.1.16/bin/wmsdk/libs/libwmstdio.a(wmstdio.o)
                                                  /home/wang/wmsdk_bundle-3.1.16/bin/wmsdk/libs/libos.a(os.o)
                                                  /home/wang/wmsdk_bundle-3.1.16/bin/wmsdk/libs/libdrv.a(mdev_gpt.o)
xQueueGenericReceive                              /home/wang/wmsdk_bundle-3.1.16/bin/wmsdk/libs/libfreertos.a(queue.o)
                                                  /home/wang/wmsdk_bundle-3.1.16/bin/wmsdk/libs/libdrv.a(mdev_iflash.o)
                                                  /home/wang/wmsdk_bundle-3.1.16/bin/wmsdk/libs/libdrv.a(mdev_dma.o)
                                                  /home/wang/wmsdk_bundle-3.1.16/bin/wmsdk/libs/libdrv.a(mdev_uart.o)
                                                  /home/wang/wmsdk_bundle-3.1.16/bin/wmsdk/libs/libcli.a(cli.o)
                                                  /home/wang/wmsdk_bundle-3.1.16/bin/wmsdk/libs/libwmstdio.a(wmstdio.o)
                                                  /home/wang/wmsdk_bundle-3.1.16/bin/wmsdk/libs/libpwrmgr.a(pwrmgr.o)
                                                  /home/wang/wmsdk_bundle-3.1.16/bin/wmsdk/libs/libos.a(os.o)
                                                  /home/wang/wmsdk_bundle-3.1.16/bin/wmsdk/libs/libfreertos.a(timers.o)
                                                  /home/wang/wmsdk_bundle-3.1.16/bin/wmsdk/libs/libdrv.a(mdev_gpt.o)
xQueueGenericSend                                 /home/wang/wmsdk_bundle-3.1.16/bin/wmsdk/libs/libfreertos.a(queue.o)
                                                  /home/wang/wmsdk_bundle-3.1.16/bin/wmsdk/libs/libdrv.a(mdev_iflash.o)
                                                  /home/wang/wmsdk_bundle-3.1.16/bin/wmsdk/libs/libdrv.a(mdev_dma.o)
                                                  /home/wang/wmsdk_bundle-3.1.16/bin/wmsdk/libs/libdrv.a(mdev_uart.o)
                                                  /home/wang/wmsdk_bundle-3.1.16/bin/wmsdk/libs/libcli.a(cli.o)
                                                  /home/wang/wmsdk_bundle-3.1.16/bin/wmsdk/libs/libwmstdio.a(wmstdio.o)
                                                  /home/wang/wmsdk_bundle-3.1.16/bin/wmsdk/libs/libpwrmgr.a(pwrmgr.o)
                                                  /home/wang/wmsdk_bundle-3.1.16/bin/wmsdk/libs/libos.a(os.o)
                                                  /home/wang/wmsdk_bundle-3.1.16/bin/wmsdk/libs/libfreertos.a(timers.o)
                                                  /home/wang/wmsdk_bundle-3.1.16/bin/wmsdk/libs/libdrv.a(mdev_gpt.o)
xQueueGenericSendFromISR                          /home/wang/wmsdk_bundle-3.1.16/bin/wmsdk/libs/libfreertos.a(queue.o)
                                                  /home/wang/wmsdk_bundle-3.1.16/bin/wmsdk/libs/libdrv.a(mdev_iflash.o)
                                                  /home/wang/wmsdk_bundle-3.1.16/bin/wmsdk/libs/libdrv.a(mdev_dma.o)
                                                  /home/wang/wmsdk_bundle-3.1.16/bin/wmsdk/libs/libdrv.a(mdev_uart.o)
                                                  /home/wang/wmsdk_bundle-3.1.16/bin/wmsdk/libs/libcli.a(cli.o)
                                                  /home/wang/wmsdk_bundle-3.1.16/bin/wmsdk/libs/libwmstdio.a(wmstdio.o)
                                                  /home/wang/wmsdk_bundle-3.1.16/bin/wmsdk/libs/libpwrmgr.a(pwrmgr.o)
                                                  /home/wang/wmsdk_bundle-3.1.16/bin/wmsdk/libs/libos.a(os.o)
                                                  /home/wang/wmsdk_bundle-3.1.16/bin/wmsdk/libs/libfreertos.a(timers.o)
                                                  /home/wang/wmsdk_bundle-3.1.16/bin/wmsdk/libs/libdrv.a(mdev_gpt.o)
xQueueGiveMutexRecursive                          /home/wang/wmsdk_bundle-3.1.16/bin/wmsdk/libs/libfreertos.a(queue.o)
xQueueIsQueueEmptyFromISR                         /home/wang/wmsdk_bundle-3.1.16/bin/wmsdk/libs/libfreertos.a(queue.o)
xQueueIsQueueFullFromISR                          /home/wang/wmsdk_bundle-3.1.16/bin/wmsdk/libs/libfreertos.a(queue.o)
xQueueReceiveFromISR                              /home/wang/wmsdk_bundle-3.1.16/bin/wmsdk/libs/libfreertos.a(queue.o)
xQueueTakeMutexRecursive                          /home/wang/wmsdk_bundle-3.1.16/bin/wmsdk/libs/libfreertos.a(queue.o)
xTaskCheckForTimeOut                              /home/wang/wmsdk_bundle-3.1.16/bin/wmsdk/libs/libfreertos.a(tasks.o)
                                                  /home/wang/wmsdk_bundle-3.1.16/bin/wmsdk/libs/libfreertos.a(queue.o)
xTaskGenericCreate                                /home/wang/wmsdk_bundle-3.1.16/bin/wmsdk/libs/libfreertos.a(tasks.o)
                                                  /home/wang/wmsdk_bundle-3.1.16/bin/wmsdk/libs/libos.a(os.o)
                                                  /home/wang/wmsdk_bundle-3.1.16/bin/wmsdk/libs/libfreertos.a(timers.o)
xTaskGetCurrentTaskHandle                         /home/wang/wmsdk_bundle-3.1.16/bin/wmsdk/libs/libfreertos.a(tasks.o)
                                                  /home/wang/wmsdk_bundle-3.1.16/bin/wmsdk/libs/libfreertos.a(queue.o)
xTaskGetSchedulerState                            /home/wang/wmsdk_bundle-3.1.16/bin/wmsdk/libs/libfreertos.a(tasks.o)
                                                  /home/wang/wmsdk_bundle-3.1.16/bin/wmsdk/libs/libfreertos.a(timers.o)
xTaskGetTickCount                                 /home/wang/wmsdk_bundle-3.1.16/bin/wmsdk/libs/libfreertos.a(tasks.o)
                                                  /home/wang/wmsdk_bundle-3.1.16/bin/wmsdk/libs/libos.a(os.o)
                                                  /home/wang/wmsdk_bundle-3.1.16/bin/wmsdk/libs/libfreertos.a(timers.o)
xTaskGetTickCountFromISR                          /home/wang/wmsdk_bundle-3.1.16/bin/wmsdk/libs/libfreertos.a(tasks.o)
xTaskGetTotalTickCount                            /home/wang/wmsdk_bundle-3.1.16/bin/wmsdk/libs/libfreertos.a(tasks.o)
xTaskGetUnblockTime                               /home/wang/wmsdk_bundle-3.1.16/bin/wmsdk/libs/libfreertos.a(tasks.o)
                                                  /home/wang/wmsdk_bundle-3.1.16/bin/wmsdk/libs/libdrv.a(mdev_pm.o)
xTaskIsTaskSuspended                              /home/wang/wmsdk_bundle-3.1.16/bin/wmsdk/libs/libfreertos.a(tasks.o)
xTaskRemoveFromEventList                          /home/wang/wmsdk_bundle-3.1.16/bin/wmsdk/libs/libfreertos.a(tasks.o)
                                                  /home/wang/wmsdk_bundle-3.1.16/bin/wmsdk/libs/libfreertos.a(queue.o)
xTaskResumeAll                                    /home/wang/wmsdk_bundle-3.1.16/bin/wmsdk/libs/libfreertos.a(tasks.o)
                                                  /home/wang/wmsdk_bundle-3.1.16/bin/wmsdk/libs/libfreertos.a(heap_4.o)
                                                  /home/wang/wmsdk_bundle-3.1.16/bin/wmsdk/libs/libfreertos.a(timers.o)
                                                  /home/wang/wmsdk_bundle-3.1.16/bin/wmsdk/libs/libfreertos.a(queue.o)
xTaskResumeFromISR                                /home/wang/wmsdk_bundle-3.1.16/bin/wmsdk/libs/libfreertos.a(tasks.o)
xTaskUpdateTickCount                              /home/wang/wmsdk_bundle-3.1.16/bin/wmsdk/libs/libfreertos.a(tasks.o)
                                                  /home/wang/wmsdk_bundle-3.1.16/bin/wmsdk/libs/libdrv.a(mdev_pm.o)
xTimerCreate                                      /home/wang/wmsdk_bundle-3.1.16/bin/wmsdk/libs/libfreertos.a(timers.o)
                                                  /home/wang/wmsdk_bundle-3.1.16/bin/wmsdk/libs/libos.a(os.o)
xTimerCreateTimerTask                             /home/wang/wmsdk_bundle-3.1.16/bin/wmsdk/libs/libfreertos.a(timers.o)
                                                  /home/wang/wmsdk_bundle-3.1.16/bin/wmsdk/libs/libfreertos.a(tasks.o)
xTimerGenericCommand                              /home/wang/wmsdk_bundle-3.1.16/bin/wmsdk/libs/libfreertos.a(timers.o)
                                                  /home/wang/wmsdk_bundle-3.1.16/bin/wmsdk/libs/libos.a(os.o)
xTimerIsTimerActive                               /home/wang/wmsdk_bundle-3.1.16/bin/wmsdk/libs/libfreertos.a(timers.o)
